
/home/catcatbing/dev/project/join_rtt/rt-thread/bsp/cvitek/cvitek_bootloader/fsbl/build/cv1813h_milkv_duos_sd/bl2/bl2.elf:     file format elf64-littleriscv
/home/catcatbing/dev/project/join_rtt/rt-thread/bsp/cvitek/cvitek_bootloader/fsbl/build/cv1813h_milkv_duos_sd/bl2/bl2.elf
architecture: riscv:rv64, flags 0x00000112:
EXEC_P, HAS_SYMS, D_PAGED
start address 0x000000000c000000

Program Header:
    LOAD off    0x0000000000001000 vaddr 0x000000000c000000 paddr 0x000000000c000000 align 2**12
         filesz 0x00000000000081a0 memsz 0x000000000000f270 flags rwx
   STACK off    0x0000000000000000 vaddr 0x0000000000000000 paddr 0x0000000000000000 align 2**4
         filesz 0x0000000000000000 memsz 0x0000000000000000 flags rw-

Sections:
Idx Name          Size      VMA               LMA               File off  Algn
  0 ro            00007fb0  000000000c000000  000000000c000000  00001000  2**3
                  CONTENTS, ALLOC, LOAD, READONLY, CODE
  1 .data         000001f0  000000000c007fb0  000000000c007fb0  00008fb0  2**3
                  CONTENTS, ALLOC, LOAD, DATA
  2 stacks        00002020  000000000c0081a0  000000000c0081a0  000091a0  2**0
                  ALLOC
  3 .bss          00005070  000000000c00a200  000000000c00a200  000091a0  2**9
                  ALLOC
  4 .debug_info   000617bf  0000000000000000  0000000000000000  000091a0  2**0
                  CONTENTS, READONLY, DEBUGGING, OCTETS
  5 .debug_abbrev 00003892  0000000000000000  0000000000000000  0006a95f  2**0
                  CONTENTS, READONLY, DEBUGGING, OCTETS
  6 .debug_aranges 00001850  0000000000000000  0000000000000000  0006e200  2**4
                  CONTENTS, READONLY, DEBUGGING, OCTETS
  7 .debug_macro  0000767b  0000000000000000  0000000000000000  0006fa50  2**0
                  CONTENTS, READONLY, DEBUGGING, OCTETS
  8 .debug_line   0006ea94  0000000000000000  0000000000000000  000770cb  2**0
                  CONTENTS, READONLY, DEBUGGING, OCTETS
  9 .debug_str    0001b80d  0000000000000000  0000000000000000  000e5b5f  2**0
                  CONTENTS, READONLY, DEBUGGING, OCTETS
 10 .comment      0000004d  0000000000000000  0000000000000000  0010136c  2**0
                  CONTENTS, READONLY
 11 .riscv.attributes 0000005b  0000000000000000  0000000000000000  001013b9  2**0
                  CONTENTS, READONLY
 12 .debug_ranges 0002cb30  0000000000000000  0000000000000000  00101414  2**0
                  CONTENTS, READONLY, DEBUGGING, OCTETS
 13 .debug_frame  000038d8  0000000000000000  0000000000000000  0012df48  2**3
                  CONTENTS, READONLY, DEBUGGING, OCTETS
 14 .debug_loc    000b8de1  0000000000000000  0000000000000000  00131820  2**0
                  CONTENTS, READONLY, DEBUGGING, OCTETS
SYMBOL TABLE:
000000000c000000 l    d  ro	0000000000000000 ro
000000000c007fb0 l    d  .data	0000000000000000 .data
000000000c0081a0 l    d  stacks	0000000000000000 stacks
000000000c00a200 l    d  .bss	0000000000000000 .bss
0000000000000000 l    d  .debug_info	0000000000000000 .debug_info
0000000000000000 l    d  .debug_abbrev	0000000000000000 .debug_abbrev
0000000000000000 l    d  .debug_aranges	0000000000000000 .debug_aranges
0000000000000000 l    d  .debug_macro	0000000000000000 .debug_macro
0000000000000000 l    d  .debug_line	0000000000000000 .debug_line
0000000000000000 l    d  .debug_str	0000000000000000 .debug_str
0000000000000000 l    d  .comment	0000000000000000 .comment
0000000000000000 l    d  .riscv.attributes	0000000000000000 .riscv.attributes
0000000000000000 l    d  .debug_ranges	0000000000000000 .debug_ranges
0000000000000000 l    d  .debug_frame	0000000000000000 .debug_frame
0000000000000000 l    d  .debug_loc	0000000000000000 .debug_loc
0000000000000000 l    df *ABS*	0000000000000000 /home/catcatbing/dev/project/join_rtt/rt-thread/bsp/cvitek/cvitek_bootloader/fsbl/build/cv1813h_milkv_duos_sd/bl2/bl2_entrypoint.o
000000000c000020 l       ro	0000000000000000 bl2_entrypoint_real
000000000c000144 l       ro	0000000000000000 trap_vector
000000000c00012c l       ro	0000000000000000 bss_clear
000000000c000144 l       ro	0000000000000000 die
0000000000000000 l    df *ABS*	0000000000000000 cpu_helper.c
0000000000000000 l    df *ABS*	0000000000000000 cache.c
0000000000000000 l    df *ABS*	0000000000000000 delay_timer.c
0000000000000000 l    df *ABS*	0000000000000000 bl2_helper.c
000000000c00f200 l     O .bss	0000000000000030 fw_dynamic_info
0000000000000000 l    df *ABS*	0000000000000000 uart_dw.c
0000000000000000 l    df *ABS*	0000000000000000 tf_printf.c
000000000c0002b0 l     F ro	0000000000000082 unsigned_num_print
0000000000000000 l    df *ABS*	0000000000000000 platform.c
0000000000000000 l    df *ABS*	0000000000000000 security.c
0000000000000000 l    df *ABS*	0000000000000000 mem.c
0000000000000000 l    df *ABS*	0000000000000000 putchar.c
0000000000000000 l    df *ABS*	0000000000000000 bl2_opt.c
000000000c000d9a l     F ro	000000000000001a read_time_ms
000000000c00a200 l     O .bss	0000000000001000 fip_param2
000000000c00b200 l     O .bss	0000000000004000 sram_union_buf
0000000000000000 l    df *ABS*	0000000000000000 decompress.c
000000000c00154c l     F ro	0000000000000002 SzFree
000000000c00154e l     F ro	0000000000000042 SzAlloc
000000000c00f230 l     O .bss	0000000000000008 comp_alloc_buf
000000000c00f238 l     O .bss	0000000000000008 comp_alloc_size
000000000c007bf0 l     O ro	0000000000000008 __func__.0
000000000c007bf8 l     O ro	0000000000000010 __func__.1
0000000000000000 l    df *ABS*	0000000000000000 LzmaDec.c
000000000c0017d4 l     F ro	0000000000000072 LzmaDec_WriteRem
000000000c001846 l     F ro	00000000000013a6 LzmaDec_DecodeReal2
000000000c002bec l     F ro	0000000000000502 LzmaDec_TryDummy
000000000c00339a l     F ro	0000000000000062 LzmaDec_AllocateProbs2.isra.0
0000000000000000 l    df *ABS*	0000000000000000 lz4_all.c
000000000c003520 l     F ro	0000000000000024 LZ4F_readLE32
000000000c003544 l     F ro	0000000000000276 LZ4_decompress_safe_withSmallPrefix
000000000c0037ba l     F ro	0000000000000108 LZ4F_updateDict
000000000c0040fe l     F ro	00000000000001a2 LZ4F_decodeHeader
000000000c007c48 l     O ro	0000000000000020 blockSizes.0
000000000c007c68 l     O ro	0000000000000020 dec64table
000000000c007c88 l     O ro	0000000000000020 inc32table
0000000000000000 l    df *ABS*	0000000000000000 xxhash.c
000000000c004a78 l     F ro	000000000000002e XXH32_avalanche
000000000c004aa6 l     F ro	0000000000000016 XXH_read32
000000000c004abc l     F ro	0000000000000338 XXH32_finalize.constprop.0
0000000000000000 l    df *ABS*	0000000000000000 bl2_main.c
0000000000000000 l    df *ABS*	0000000000000000 ddr.c
0000000000000000 l    df *ABS*	0000000000000000 ddr_pkg_info.c
0000000000000000 l    df *ABS*	0000000000000000 ddr_sys_bring_up.c
0000000000000000 l    df *ABS*	0000000000000000 ddr_sys.c
0000000000000000 l    df *ABS*	0000000000000000 phy_pll_init.c
0000000000000000 l    df *ABS*	0000000000000000 cvx16_pinmux.c
0000000000000000 l    df *ABS*	0000000000000000 cvx16_dram_cap_check.c
0000000000000000 l    df *ABS*	0000000000000000 ddrc_init.c
0000000000000000 l    df *ABS*	0000000000000000 phy_init.c
0000000000000000 l    df *ABS*	0000000000000000 
0000000000000000 l    df *ABS*	0000000000000000 ddr_patch_regs.c
000000000c0055ca g     F ro	000000000000000a get_ddr_vendor
000000000c007fc8 g     O .data	00000000000001c8 ddr_patch_regs
000000000c0001a4 g     F ro	000000000000000a mdelay
000000000c0055de g     F ro	0000000000000050 axi_mon_start_all
000000000c00f268 g     O .bss	0000000000000004 tar_freq
000000000c007fb8 g     O .data	0000000000000008 time_records
0000000004418100 g       *ABS*	0000000000000000 p_rom_api_cryptodma_aes_decrypt
000000000c00f260 g     O .bss	0000000000000004 freq_in
000000000c000eea g     F ro	0000000000000088 load_ddr_param
000000000c007458 g     O ro	0000000000000011 version_string
0000000004418080 g       *ABS*	0000000000000000 p_rom_api_flash_init
000000000c00521e g     F ro	0000000000000004 dec_verify_image
000000000c000d48 g     F ro	0000000000000052 putchar_l
000000000c0016a6 g     F ro	0000000000000002 LZ4_free
0000000004418020 g       *ABS*	0000000000000000 p_rom_api_get_boot_src
000000000c000234 g     F ro	0000000000000002 jump_to_loader_2nd
000000000c0001bc g     F ro	0000000000000078 jump_to_monitor
000000000c00f250 g     O .bss	0000000000000008 reg_step
000000000c000d28 g     F ro	0000000000000020 memmove
000000000c00587c g     F ro	000000000000004e cvx16_bist_wr_prbs_init
000000000c0038c2 g     F ro	000000000000026e LZ4_decompress_safe
000000000c005ef2 g     F ro	0000000000000042 cvx16_ddr_phy_power_on_seq1
000000000c003102 g     F ro	000000000000027c LzmaDec_DecodeToDic
000000000c005970 g     F ro	0000000000000046 cvx16_bist_rdglvl_init
000000000c00592a g     F ro	0000000000000046 cvx16_bist_wrlvl_init
000000000c007438 g     O ro	000000000000001a build_message
000000000c006700 g     F ro	0000000000000172 cvx16_wdqlvl_req
000000000c007fb0 g       .data	0000000000000000 __DATA_START__
000000000c0004c8 g     F ro	00000000000000c6 __system_reset
000000000c000a82 g     F ro	000000000000005c switch_rtc_mode_2nd_stage
000000000c001466 g     F ro	00000000000000e6 load_rest
000000000c005ffe g     F ro	0000000000000028 cvx16_set_dfi_init_complete
000000000c005fb2 g     F ro	0000000000000034 cvx16_wait_for_dfi_init_complete
000000000c006250 g     F ro	00000000000001bc cvx16_wrlvl_req
000000000c006536 g     F ro	00000000000001ca cvx16_rdlvl_req
000000000c000cc8 g     F ro	0000000000000060 memcpy
000000000c000694 g     F ro	0000000000000190 sys_pll_od
000000000c005a9c g     F ro	00000000000000b0 cvx16_bist_wdqlvl_init
000000000c006fb8 g     F ro	000000000000001e ctrl_init_low_patch
000000000c000bb6 g     F ro	000000000000001c efuse_power_on
000000000c0030ee g     F ro	0000000000000014 LzmaDec_Init
000000000c001188 g     F ro	0000000000000110 load_monitor
000000000c00f26f g     O .bss	0000000000000001 pkg
000000000c00a1c0 g       stacks	0000000000000000 __STACKS_END__
000000000c005dea g     F ro	0000000000000016 cvx16_clk_div40
000000000c00058e g     F ro	0000000000000032 panic_handler
000000000c006d7c g     F ro	0000000000000002 cvx16_dram_cap_check
000000000c005bac g     F ro	0000000000000068 cvx16_bist_start_check
000000000c00f264 g     O .bss	0000000000000004 mod_freq
00000000044180e0 g       *ABS*	0000000000000000 p_rom_api_verify_rsa
000000000c006872 g     F ro	0000000000000002 cvx16_en_rec_vol_mode
000000000c0001ae g     F ro	000000000000000e read_count_tick
000000000c0061f0 g     F ro	0000000000000060 cvx16_clk_gating_enable
000000000c001756 g     F ro	000000000000007e decompress
000000000c0058ca g     F ro	0000000000000060 cvx16_bist_wr_sram_init
0000000000005070 g       *ABS*	0000000000000000 __BSS_SIZE__
000000000c005f7a g     F ro	0000000000000038 cvx16_ddr_phy_power_on_seq3
000000000c000236 g     F ro	0000000000000038 console_init
000000000c00027e g     F ro	000000000000001e console_putc
000000000c00f258 g     O .bss	0000000000000004 rddata
000000000c005e00 g     F ro	00000000000000f2 cvx16_chg_pll_freq
000000000c00026e g     F ro	0000000000000010 _uart_putc
000000000c000156 g     F ro	0000000000000024 flush_dcache_range
000000000c000db6 g     F ro	000000000000008a lock_efuse_chipsn
000000000c000824 g     F ro	00000000000001c0 sys_pll_nd
000000000c0009fa g     F ro	0000000000000088 switch_rtc_mode_1st_stage
000000000c000ade g     F ro	00000000000000aa set_rtc_en_registers
000000000c000e40 g     F ro	00000000000000aa load_param2
000000000c0042d0 g     F ro	00000000000007a8 LZ4F_decompress
000000000c006a42 g     F ro	000000000000033a cvx16_pinmux
000000000c005d20 g     F ro	000000000000005c cvx16_dll_cal
000000000c0061ae g     F ro	0000000000000042 cvx16_clk_gating_disable
000000000c0042a0 g     F ro	0000000000000030 LZ4F_createDecompressionContext
000000000c00f270 g       .bss	0000000000000000 __BL2_END__
000000000c005f34 g     F ro	0000000000000046 cvx16_ddr_phy_power_on_seq2
000000000c006026 g     F ro	000000000000002a cvx16_INT_ISR_08
000000000c003d9a g     F ro	0000000000000316 LZ4_decompress_safe_forceExtDict
000000000c003446 g     F ro	0000000000000030 LzmaDec_AllocateProbs
000000000c007fb0 g     O .data	0000000000000008 fip_param1
000000000c006114 g     F ro	000000000000009a cvx16_pll_init
000000000c000b88 g     F ro	000000000000002e efuse_wait_idle
000000000c005240 g     F ro	00000000000000da bl2_main
000000000c0081a0 g       .data	0000000000000000 __DATA_END__
000000000c00337e g     F ro	000000000000001c LzmaDec_FreeProbs
000000000c001590 g     F ro	00000000000000e8 decompress_lzma
000000000c005b4c g     F ro	0000000000000060 cvx16_bist_wdmlvl_init
000000000c00017a g     F ro	000000000000002a udelay
000000000c005fe6 g     F ro	0000000000000018 cvx16_polling_dfi_init_start
000000000c0059b6 g     F ro	00000000000000e6 cvx16_bist_rdlvl_init
000000000c00f26e g     O .bss	0000000000000001 ddr_vendor
00000000044180a0 g       *ABS*	0000000000000000 p_rom_api_image_crc
000000000c000000 g       ro	0000000000000000 bl2_entrypoint
000000000c000c28 g     F ro	000000000000002a efuse_refresh_shadow
000000000c001298 g     F ro	00000000000001ce load_loader_2nd
000000000c0055d4 g     F ro	000000000000000a get_pkg
000000000c000db4  w    F ro	0000000000000002 init_comm_info
000000000c00f25c g     O .bss	0000000000000004 dev_freq
000000000c000686 g     F ro	000000000000000e sys_switch_all_to_pll
000000000c00f270 g       .bss	0000000000000000 __BSS_END__
000000000c00534e g     F ro	000000000000027c read_ddr_pkg_info
0000000004418040 g       *ABS*	0000000000000000 p_rom_api_set_boot_src
000000000c0033fc g     F ro	000000000000004a LzmaProps_Decode
000000000c0060d0 g     F ro	0000000000000020 cvx16_setting_check
000000000c001038 g     F ro	0000000000000150 load_blcp_2nd
000000000c00f248 g     O .bss	0000000000000008 reg_span
000000000c005d7c g     F ro	0000000000000058 cvx16_clk_normal
000000000c000c6e g     F ro	000000000000005a memset
000000000c00500e g     F ro	00000000000001d0 XXH32_update
000000000c006fd6 g     F ro	00000000000000b0 ctrl_init_update_by_dram_size
000000000c004fb8 g     F ro	0000000000000056 XXH32_reset
000000000c004df4 g     F ro	00000000000001c4 XXH32
000000000c005c14 g     F ro	000000000000009e cvx16_rdvld_train
000000000c006d7e g     F ro	000000000000021e ddrc_init
000000000c003b30 g     F ro	000000000000026a LZ4_decompress_safe_withPrefix64k
000000000c000332 g     F ro	0000000000000196 tf_printf
000000000c00167e g     F ro	0000000000000028 LZ4_calloc
000000000c00029c g     F ro	0000000000000014 console_flush
000000000c007fb0 g       ro	0000000000000000 __RO_END__
0000000004418060 g       *ABS*	0000000000000000 p_rom_api_load_image
000000000c0040d4 g     F ro	000000000000000c LZ4F_isError
000000000c00a200 g       .bss	0000000000000000 __BSS_START__
000000000c000000 g       ro	0000000000000000 __RO_START__
000000000c00640c g     F ro	000000000000012a cvx16_rdglvl_req
000000000c000bd2 g     F ro	0000000000000056 efuse_program_bit
000000000c006050 g     F ro	000000000000001a cvx16_polling_synp_normal_mode
000000000c0040b0 g     F ro	0000000000000024 LZ4_decompress_safe_usingDict
000000000c001678 g     F ro	0000000000000006 LZ4_malloc
000000000c006874 g     F ro	0000000000000114 ctrl_init_detect_dram_size
00000000044180c0 g       *ABS*	0000000000000000 p_rom_api_get_number_of_retries
000000000c00014c g     F ro	000000000000000a sync_cache
000000000c000606 g     F ro	0000000000000060 setup_dl_flag
000000000c0005c0 g     F ro	0000000000000046 reset_c906l
000000000c000c52 g     F ro	000000000000001c efuse_power_off
000000000c00f240 g     O .bss	0000000000000008 reg_set
000000000c003476 g     F ro	00000000000000aa LzmaDecode
000000000c0081c0 g       stacks	0000000000000000 __STACKS_START__
000000000c0009e4 g     F ro	0000000000000016 sys_pll_init
000000000c008190 g     O .data	0000000000000004 ddr_patch_regs_count
000000000c000666 g     F ro	0000000000000020 config_core_power
000000000c007fc0 g     O .data	0000000000000004 ddr_data_rate
000000000c00606a g     F ro	0000000000000066 cvx16_dfi_ca_park_prbs
000000000c00f26d g     O .bss	0000000000000001 ddr_type
000000000c00562e g     F ro	000000000000024e ddr_sys_bring_up
000000000c0051de g     F ro	0000000000000040 XXH32_digest
000000000c00531a g     F ro	0000000000000034 ddr_init
000000000c0016a8 g     F ro	00000000000000ae decompress_lz4
000000000c0040e0 g     F ro	000000000000001e LZ4F_getBlockSize
000000000c00f26c g     O .bss	0000000000000001 ddr_capacity
000000000c0060f0 g     F ro	0000000000000024 cvx16_set_dfi_init_start
000000000c006f9c g     F ro	000000000000001c ctrl_init_high_patch
000000000c000f72 g     F ro	00000000000000c6 load_ddr
000000000c005cb2 g     F ro	000000000000006e cvx16_synp_mrw
000000000c005222 g     F ro	000000000000001e set_baudrate
000000000c005dd4 g     F ro	0000000000000016 cvx16_clk_div2
000000000c007086 g     F ro	00000000000003b2 phy_init
000000000c006988 g     F ro	00000000000000ba pll_init



Disassembly of section ro:

000000000c000000 <__RO_START__>:
 c000000:	0200006f          	j	c000020 <bl2_entrypoint_real>
	...

000000000c000020 <bl2_entrypoint_real>:
 c000020:	05900e1b          	addiw	t3,zero,89
 c000024:	019e1e13          	slli	t3,t3,0x19
 c000028:	03000eb7          	lui	t4,0x3000
 c00002c:	084e8e9b          	addiw	t4,t4,132
 c000030:	01cea023          	sw	t3,0(t4) # 3000000 <__BSS_SIZE__+0x2ffaf90>
 c000034:	00000093          	li	ra,0
 c000038:	00000113          	li	sp,0
 c00003c:	00000193          	li	gp,0
 c000040:	00000213          	li	tp,0
 c000044:	00000293          	li	t0,0
 c000048:	00000313          	li	t1,0
 c00004c:	00000393          	li	t2,0
 c000050:	00000413          	li	s0,0
 c000054:	00000493          	li	s1,0
 c000058:	00000513          	li	a0,0
 c00005c:	00000593          	li	a1,0
 c000060:	00000613          	li	a2,0
 c000064:	00000693          	li	a3,0
 c000068:	00000713          	li	a4,0
 c00006c:	00000793          	li	a5,0
 c000070:	00000813          	li	a6,0
 c000074:	00000893          	li	a7,0
 c000078:	00000913          	li	s2,0
 c00007c:	00000993          	li	s3,0
 c000080:	00000a13          	li	s4,0
 c000084:	00000a93          	li	s5,0
 c000088:	00000b13          	li	s6,0
 c00008c:	00000b93          	li	s7,0
 c000090:	00000c13          	li	s8,0
 c000094:	00000c93          	li	s9,0
 c000098:	00000d13          	li	s10,0
 c00009c:	00000d93          	li	s11,0
 c0000a0:	00000e13          	li	t3,0
 c0000a4:	00000e93          	li	t4,0
 c0000a8:	00000f13          	li	t5,0
 c0000ac:	00000f93          	li	t6,0
 c0000b0:	34001073          	csrw	mscratch,zero
 c0000b4:	00000297          	auipc	t0,0x0
 c0000b8:	09028293          	addi	t0,t0,144 # c000144 <die>
 c0000bc:	30529073          	csrw	mtvec,t0
 c0000c0:	000181b7          	lui	gp,0x18
 c0000c4:	0c71819b          	addiw	gp,gp,199
 c0000c8:	00f19193          	slli	gp,gp,0xf
 c0000cc:	7c019073          	csrw	mxstatus,gp
 c0000d0:	702001b7          	lui	gp,0x70200
 c0000d4:	ffc1819b          	addiw	gp,gp,-4
 c0000d8:	00100213          	li	tp,1
 c0000dc:	0041a023          	sw	tp,0(gp) # 70200000 <__BL2_END__+0x641f0d90>
 c0000e0:	03300193          	li	gp,51
 c0000e4:	7c21b073          	csrc	mcor,gp
 c0000e8:	01100193          	li	gp,17
 c0000ec:	7c21a073          	csrs	mcor,gp
 c0000f0:	00100193          	li	gp,1
 c0000f4:	7c11a073          	csrs	mhcr,gp
 c0000f8:	03300193          	li	gp,51
 c0000fc:	7c21b073          	csrc	mcor,gp
 c000100:	01200193          	li	gp,18
 c000104:	7c21a073          	csrs	mcor,gp
 c000108:	00200193          	li	gp,2
 c00010c:	7c11a073          	csrs	mhcr,gp
 c000110:	0000a117          	auipc	sp,0xa
 c000114:	0b010113          	addi	sp,sp,176 # c00a1c0 <__STACKS_END__>
 c000118:	0000a697          	auipc	a3,0xa
 c00011c:	0e868693          	addi	a3,a3,232 # c00a200 <fip_param2>
 c000120:	0000f717          	auipc	a4,0xf
 c000124:	15070713          	addi	a4,a4,336 # c00f270 <__BL2_END__>
 c000128:	40d70733          	sub	a4,a4,a3

000000000c00012c <bss_clear>:
 c00012c:	0006b023          	sd	zero,0(a3)
 c000130:	00868693          	addi	a3,a3,8
 c000134:	ff870713          	addi	a4,a4,-8
 c000138:	fe071ae3          	bnez	a4,c00012c <bss_clear>
 c00013c:	104050ef          	jal	ra,c005240 <bl2_main>
 c000140:	0040006f          	j	c000144 <die>

000000000c000144 <die>:
 c000144:	44a0006f          	j	c00058e <panic_handler>
 c000148:	ffdff06f          	j	c000144 <die>

000000000c00014c <sync_cache>:
 c00014c:	0100000b          	icache.iall
 c000150:	01a0000b          	sync.i
 c000154:	8082                	ret

000000000c000156 <flush_dcache_range>:
 c000156:	87aa                	mv	a5,a0
 c000158:	03f58593          	addi	a1,a1,63
 c00015c:	95be                	add	a1,a1,a5
 c00015e:	fc057513          	andi	a0,a0,-64
 c000162:	fc05f593          	andi	a1,a1,-64
 c000166:	00b56563          	bltu	a0,a1,c000170 <flush_dcache_range+0x1a>
 c00016a:	0190000b          	sync.s
 c00016e:	8082                	ret
 c000170:	02b5000b          	dcache.cipa	a0
 c000174:	04050513          	addi	a0,a0,64
 c000178:	b7fd                	j	c000166 <flush_dcache_range+0x10>

000000000c00017a <udelay>:
 c00017a:	c0102773          	rdtime	a4
 c00017e:	47e5                	li	a5,25
 c000180:	02a786bb          	mulw	a3,a5,a0
 c000184:	fff74713          	not	a4,a4
 c000188:	030007b7          	lui	a5,0x3000
 c00018c:	2701                	sext.w	a4,a4
 c00018e:	08d7a423          	sw	a3,136(a5) # 3000088 <__BSS_SIZE__+0x2ffb018>
 c000192:	c01027f3          	rdtime	a5
 c000196:	fff7c793          	not	a5,a5
 c00019a:	40f707bb          	subw	a5,a4,a5
 c00019e:	fed7eae3          	bltu	a5,a3,c000192 <udelay+0x18>
 c0001a2:	8082                	ret

000000000c0001a4 <mdelay>:
 c0001a4:	3e800793          	li	a5,1000
 c0001a8:	02a7853b          	mulw	a0,a5,a0
 c0001ac:	b7f9                	j	c00017a <udelay>

000000000c0001ae <read_count_tick>:
 c0001ae:	c0102573          	rdtime	a0
 c0001b2:	47e5                	li	a5,25
 c0001b4:	02f55533          	divu	a0,a0,a5
 c0001b8:	2501                	sext.w	a0,a0
 c0001ba:	8082                	ret

000000000c0001bc <jump_to_monitor>:
 c0001bc:	1101                	addi	sp,sp,-32
 c0001be:	494257b7          	lui	a5,0x49425
 c0001c2:	e822                	sd	s0,16(sp)
 c0001c4:	34f78793          	addi	a5,a5,847 # 4942534f <__BL2_END__+0x3d4160df>
 c0001c8:	0000f417          	auipc	s0,0xf
 c0001cc:	03840413          	addi	s0,s0,56 # c00f200 <fw_dynamic_info>
 c0001d0:	e426                	sd	s1,8(sp)
 c0001d2:	e01c                	sd	a5,0(s0)
 c0001d4:	010014b7          	lui	s1,0x1001
 c0001d8:	4785                	li	a5,1
 c0001da:	e04a                	sd	s2,0(sp)
 c0001dc:	00749613          	slli	a2,s1,0x7
 c0001e0:	892a                	mv	s2,a0
 c0001e2:	ec1c                	sd	a5,24(s0)
 c0001e4:	00007517          	auipc	a0,0x7
 c0001e8:	28c50513          	addi	a0,a0,652 # c007470 <version_string+0x18>
 c0001ec:	57fd                	li	a5,-1
 c0001ee:	ec06                	sd	ra,24(sp)
 c0001f0:	f41c                	sd	a5,40(s0)
 c0001f2:	e80c                	sd	a1,16(s0)
 c0001f4:	13e000ef          	jal	ra,c000332 <tf_printf>
 c0001f8:	03000593          	li	a1,48
 c0001fc:	8522                	mv	a0,s0
 c0001fe:	f59ff0ef          	jal	ra,c000156 <flush_dcache_range>
 c000202:	fadff0ef          	jal	ra,c0001ae <read_count_tick>
 c000206:	3e800793          	li	a5,1000
 c00020a:	3e75051b          	addiw	a0,a0,999
 c00020e:	02f5553b          	divuw	a0,a0,a5
 c000212:	00008797          	auipc	a5,0x8
 c000216:	da67b783          	ld	a5,-602(a5) # c007fb8 <time_records>
 c00021a:	8622                	mv	a2,s0
 c00021c:	6442                	ld	s0,16(sp)
 c00021e:	60e2                	ld	ra,24(sp)
 c000220:	00749593          	slli	a1,s1,0x7
 c000224:	64a2                	ld	s1,8(sp)
 c000226:	00a79723          	sh	a0,14(a5)
 c00022a:	87ca                	mv	a5,s2
 c00022c:	6902                	ld	s2,0(sp)
 c00022e:	4501                	li	a0,0
 c000230:	6105                	addi	sp,sp,32
 c000232:	8782                	jr	a5

000000000c000234 <jump_to_loader_2nd>:
 c000234:	8082                	ret

000000000c000236 <console_init>:
 c000236:	041407b7          	lui	a5,0x4140
 c00023a:	47d8                	lw	a4,12(a5)
 c00023c:	0046161b          	slliw	a2,a2,0x4
 c000240:	02c5c5bb          	divw	a1,a1,a2
 c000244:	08376713          	ori	a4,a4,131
 c000248:	c7d8                	sw	a4,12(a5)
 c00024a:	0ff5f713          	andi	a4,a1,255
 c00024e:	c398                	sw	a4,0(a5)
 c000250:	3c85b58b          	extu	a1,a1,15,8
 c000254:	c3cc                	sw	a1,4(a5)
 c000256:	47d8                	lw	a4,12(a5)
 c000258:	f7f77713          	andi	a4,a4,-129
 c00025c:	c7d8                	sw	a4,12(a5)
 c00025e:	0007a223          	sw	zero,4(a5) # 4140004 <__BSS_SIZE__+0x413af94>
 c000262:	470d                	li	a4,3
 c000264:	cb98                	sw	a4,16(a5)
 c000266:	469d                	li	a3,7
 c000268:	c794                	sw	a3,8(a5)
 c00026a:	c7d8                	sw	a4,12(a5)
 c00026c:	8082                	ret

000000000c00026e <_uart_putc>:
 c00026e:	04140737          	lui	a4,0x4140
 c000272:	4b5c                	lw	a5,20(a4)
 c000274:	0207f793          	andi	a5,a5,32
 c000278:	dfed                	beqz	a5,c000272 <_uart_putc+0x4>
 c00027a:	c308                	sw	a0,0(a4)
 c00027c:	8082                	ret

000000000c00027e <console_putc>:
 c00027e:	1141                	addi	sp,sp,-16
 c000280:	e022                	sd	s0,0(sp)
 c000282:	e406                	sd	ra,8(sp)
 c000284:	47a9                	li	a5,10
 c000286:	842a                	mv	s0,a0
 c000288:	00f51563          	bne	a0,a5,c000292 <console_putc+0x14>
 c00028c:	4535                	li	a0,13
 c00028e:	fe1ff0ef          	jal	ra,c00026e <_uart_putc>
 c000292:	8522                	mv	a0,s0
 c000294:	6402                	ld	s0,0(sp)
 c000296:	60a2                	ld	ra,8(sp)
 c000298:	0141                	addi	sp,sp,16
 c00029a:	bfd1                	j	c00026e <_uart_putc>

000000000c00029c <console_flush>:
 c00029c:	041406b7          	lui	a3,0x4140
 c0002a0:	06000713          	li	a4,96
 c0002a4:	4adc                	lw	a5,20(a3)
 c0002a6:	0607f793          	andi	a5,a5,96
 c0002aa:	fee79de3          	bne	a5,a4,c0002a4 <console_flush+0x8>
 c0002ae:	8082                	ret

000000000c0002b0 <unsigned_num_print>:
 c0002b0:	7139                	addi	sp,sp,-64
 c0002b2:	f04a                	sd	s2,32(sp)
 c0002b4:	7c05b70b          	extu	a4,a1,31,0
 c0002b8:	fc06                	sd	ra,56(sp)
 c0002ba:	f822                	sd	s0,48(sp)
 c0002bc:	f426                	sd	s1,40(sp)
 c0002be:	8932                	mv	s2,a2
 c0002c0:	4801                	li	a6,0
 c0002c2:	45a5                	li	a1,9
 c0002c4:	02e57633          	remu	a2,a0,a4
 c0002c8:	0018041b          	addiw	s0,a6,1
 c0002cc:	0ff67793          	andi	a5,a2,255
 c0002d0:	04c5e063          	bltu	a1,a2,c000310 <unsigned_num_print+0x60>
 c0002d4:	0307879b          	addiw	a5,a5,48
 c0002d8:	0ff7f793          	andi	a5,a5,255
 c0002dc:	0030                	addi	a2,sp,8
 c0002de:	0106578b          	srb	a5,a2,a6,0
 c0002e2:	02e557b3          	divu	a5,a0,a4
 c0002e6:	0805                	addi	a6,a6,1
 c0002e8:	02e57263          	bgeu	a0,a4,c00030c <unsigned_num_print+0x5c>
 c0002ec:	408684bb          	subw	s1,a3,s0
 c0002f0:	02904363          	bgtz	s1,c000316 <unsigned_num_print+0x66>
 c0002f4:	54fd                	li	s1,-1
 c0002f6:	147d                	addi	s0,s0,-1
 c0002f8:	0004079b          	sext.w	a5,s0
 c0002fc:	02979463          	bne	a5,s1,c000324 <unsigned_num_print+0x74>
 c000300:	70e2                	ld	ra,56(sp)
 c000302:	7442                	ld	s0,48(sp)
 c000304:	74a2                	ld	s1,40(sp)
 c000306:	7902                	ld	s2,32(sp)
 c000308:	6121                	addi	sp,sp,64
 c00030a:	8082                	ret
 c00030c:	853e                	mv	a0,a5
 c00030e:	bf5d                	j	c0002c4 <unsigned_num_print+0x14>
 c000310:	0577879b          	addiw	a5,a5,87
 c000314:	b7d1                	j	c0002d8 <unsigned_num_print+0x28>
 c000316:	85ca                	mv	a1,s2
 c000318:	03000513          	li	a0,48
 c00031c:	22d000ef          	jal	ra,c000d48 <putchar_l>
 c000320:	34fd                	addiw	s1,s1,-1
 c000322:	b7f9                	j	c0002f0 <unsigned_num_print+0x40>
 c000324:	003c                	addi	a5,sp,8
 c000326:	8087c50b          	lrbu	a0,a5,s0,0
 c00032a:	85ca                	mv	a1,s2
 c00032c:	21d000ef          	jal	ra,c000d48 <putchar_l>
 c000330:	b7d9                	j	c0002f6 <unsigned_num_print+0x46>

000000000c000332 <tf_printf>:
 c000332:	7135                	addi	sp,sp,-160
 c000334:	e8a2                	sd	s0,80(sp)
 c000336:	e4a6                	sd	s1,72(sp)
 c000338:	ec86                	sd	ra,88(sp)
 c00033a:	e0ca                	sd	s2,64(sp)
 c00033c:	fc4e                	sd	s3,56(sp)
 c00033e:	f852                	sd	s4,48(sp)
 c000340:	f456                	sd	s5,40(sp)
 c000342:	f05a                	sd	s6,32(sp)
 c000344:	f4ae                	sd	a1,104(sp)
 c000346:	f8b2                	sd	a2,112(sp)
 c000348:	fcb6                	sd	a3,120(sp)
 c00034a:	e13a                	sd	a4,128(sp)
 c00034c:	e53e                	sd	a5,136(sp)
 c00034e:	e942                	sd	a6,144(sp)
 c000350:	ed46                	sd	a7,152(sp)
 c000352:	842a                	mv	s0,a0
 c000354:	4489                	li	s1,2
 c000356:	c115                	beqz	a0,c00037a <tf_printf+0x48>
 c000358:	00054703          	lbu	a4,0(a0)
 c00035c:	4785                	li	a5,1
 c00035e:	00f71e63          	bne	a4,a5,c00037a <tf_printf+0x48>
 c000362:	00154783          	lbu	a5,1(a0)
 c000366:	4711                	li	a4,4
 c000368:	fd07879b          	addiw	a5,a5,-48
 c00036c:	0ff7f693          	andi	a3,a5,255
 c000370:	00d76563          	bltu	a4,a3,c00037a <tf_printf+0x48>
 c000374:	84be                	mv	s1,a5
 c000376:	00250413          	addi	s0,a0,2
 c00037a:	10bc                	addi	a5,sp,104
 c00037c:	ec3e                	sd	a5,24(sp)
 c00037e:	4a25                	li	s4,9
 c000380:	4ad9                	li	s5,22
 c000382:	00007997          	auipc	s3,0x7
 c000386:	11a98993          	addi	s3,s3,282 # c00749c <version_string+0x44>
 c00038a:	00044503          	lbu	a0,0(s0)
 c00038e:	e919                	bnez	a0,c0003a4 <tf_printf+0x72>
 c000390:	60e6                	ld	ra,88(sp)
 c000392:	6446                	ld	s0,80(sp)
 c000394:	64a6                	ld	s1,72(sp)
 c000396:	6906                	ld	s2,64(sp)
 c000398:	79e2                	ld	s3,56(sp)
 c00039a:	7a42                	ld	s4,48(sp)
 c00039c:	7aa2                	ld	s5,40(sp)
 c00039e:	7b02                	ld	s6,32(sp)
 c0003a0:	610d                	addi	sp,sp,160
 c0003a2:	8082                	ret
 c0003a4:	02500793          	li	a5,37
 c0003a8:	0405                	addi	s0,s0,1
 c0003aa:	10f51b63          	bne	a0,a5,c0004c0 <tf_printf+0x18e>
 c0003ae:	4781                	li	a5,0
 c0003b0:	4681                	li	a3,0
 c0003b2:	03000613          	li	a2,48
 c0003b6:	00044703          	lbu	a4,0(s0)
 c0003ba:	00c70c63          	beq	a4,a2,c0003d2 <tf_printf+0xa0>
 c0003be:	f9c7071b          	addiw	a4,a4,-100
 c0003c2:	0ff77713          	andi	a4,a4,255
 c0003c6:	fceae5e3          	bltu	s5,a4,c000390 <tf_printf+0x5e>
 c0003ca:	44e9c70b          	lrw	a4,s3,a4,2
 c0003ce:	974e                	add	a4,a4,s3
 c0003d0:	8702                	jr	a4
 c0003d2:	00144703          	lbu	a4,1(s0)
 c0003d6:	fd07071b          	addiw	a4,a4,-48
 c0003da:	0ff77593          	andi	a1,a4,255
 c0003de:	00ba6363          	bltu	s4,a1,c0003e4 <tf_printf+0xb2>
 c0003e2:	86ba                	mv	a3,a4
 c0003e4:	0409                	addi	s0,s0,2
 c0003e6:	bfc1                	j	c0003b6 <tf_printf+0x84>
 c0003e8:	6762                	ld	a4,24(sp)
 c0003ea:	4585                	li	a1,1
 c0003ec:	00870613          	addi	a2,a4,8 # 4140008 <__BSS_SIZE__+0x413af98>
 c0003f0:	ec32                	sd	a2,24(sp)
 c0003f2:	02f5d563          	bge	a1,a5,c00041c <tf_printf+0xea>
 c0003f6:	00073903          	ld	s2,0(a4)
 c0003fa:	00095b63          	bgez	s2,c000410 <tf_printf+0xde>
 c0003fe:	85a6                	mv	a1,s1
 c000400:	02d00513          	li	a0,45
 c000404:	e436                	sd	a3,8(sp)
 c000406:	143000ef          	jal	ra,c000d48 <putchar_l>
 c00040a:	66a2                	ld	a3,8(sp)
 c00040c:	41200933          	neg	s2,s2
 c000410:	8626                	mv	a2,s1
 c000412:	45a9                	li	a1,10
 c000414:	854a                	mv	a0,s2
 c000416:	e9bff0ef          	jal	ra,c0002b0 <unsigned_num_print>
 c00041a:	a831                	j	c000436 <tf_printf+0x104>
 c00041c:	ffe9                	bnez	a5,c0003f6 <tf_printf+0xc4>
 c00041e:	00072903          	lw	s2,0(a4)
 c000422:	bfe1                	j	c0003fa <tf_printf+0xc8>
 c000424:	67e2                	ld	a5,24(sp)
 c000426:	0007b903          	ld	s2,0(a5)
 c00042a:	00878713          	addi	a4,a5,8
 c00042e:	ec3a                	sd	a4,24(sp)
 c000430:	00094503          	lbu	a0,0(s2)
 c000434:	e119                	bnez	a0,c00043a <tf_printf+0x108>
 c000436:	0405                	addi	s0,s0,1
 c000438:	bf89                	j	c00038a <tf_printf+0x58>
 c00043a:	85a6                	mv	a1,s1
 c00043c:	0905                	addi	s2,s2,1
 c00043e:	10b000ef          	jal	ra,c000d48 <putchar_l>
 c000442:	b7fd                	j	c000430 <tf_printf+0xfe>
 c000444:	67e2                	ld	a5,24(sp)
 c000446:	00007917          	auipc	s2,0x7
 c00044a:	05290913          	addi	s2,s2,82 # c007498 <version_string+0x40>
 c00044e:	0007bb03          	ld	s6,0(a5)
 c000452:	00878713          	addi	a4,a5,8
 c000456:	ec3a                	sd	a4,24(sp)
 c000458:	000b1c63          	bnez	s6,c000470 <tf_printf+0x13e>
 c00045c:	8626                	mv	a2,s1
 c00045e:	45c1                	li	a1,16
 c000460:	855a                	mv	a0,s6
 c000462:	bf55                	j	c000416 <tf_printf+0xe4>
 c000464:	85a6                	mv	a1,s1
 c000466:	e436                	sd	a3,8(sp)
 c000468:	0e1000ef          	jal	ra,c000d48 <putchar_l>
 c00046c:	66a2                	ld	a3,8(sp)
 c00046e:	0905                	addi	s2,s2,1
 c000470:	00094503          	lbu	a0,0(s2)
 c000474:	f965                	bnez	a0,c000464 <tf_printf+0x132>
 c000476:	b7dd                	j	c00045c <tf_printf+0x12a>
 c000478:	6762                	ld	a4,24(sp)
 c00047a:	4585                	li	a1,1
 c00047c:	00870613          	addi	a2,a4,8
 c000480:	ec32                	sd	a2,24(sp)
 c000482:	00f5d663          	bge	a1,a5,c00048e <tf_printf+0x15c>
 c000486:	6308                	ld	a0,0(a4)
 c000488:	8626                	mv	a2,s1
 c00048a:	45c1                	li	a1,16
 c00048c:	b769                	j	c000416 <tf_printf+0xe4>
 c00048e:	ffe5                	bnez	a5,c000486 <tf_printf+0x154>
 c000490:	00076503          	lwu	a0,0(a4)
 c000494:	bfd5                	j	c000488 <tf_printf+0x156>
 c000496:	0405                	addi	s0,s0,1
 c000498:	4789                	li	a5,2
 c00049a:	bf31                	j	c0003b6 <tf_printf+0x84>
 c00049c:	2785                	addiw	a5,a5,1
 c00049e:	0405                	addi	s0,s0,1
 c0004a0:	bf19                	j	c0003b6 <tf_printf+0x84>
 c0004a2:	6762                	ld	a4,24(sp)
 c0004a4:	4585                	li	a1,1
 c0004a6:	00870613          	addi	a2,a4,8
 c0004aa:	ec32                	sd	a2,24(sp)
 c0004ac:	00f5d663          	bge	a1,a5,c0004b8 <tf_printf+0x186>
 c0004b0:	6308                	ld	a0,0(a4)
 c0004b2:	8626                	mv	a2,s1
 c0004b4:	45a9                	li	a1,10
 c0004b6:	b785                	j	c000416 <tf_printf+0xe4>
 c0004b8:	ffe5                	bnez	a5,c0004b0 <tf_printf+0x17e>
 c0004ba:	00076503          	lwu	a0,0(a4)
 c0004be:	bfd5                	j	c0004b2 <tf_printf+0x180>
 c0004c0:	85a6                	mv	a1,s1
 c0004c2:	087000ef          	jal	ra,c000d48 <putchar_l>
 c0004c6:	b5d1                	j	c00038a <tf_printf+0x58>

000000000c0004c8 <__system_reset>:
 c0004c8:	7179                	addi	sp,sp,-48
 c0004ca:	f022                	sd	s0,32(sp)
 c0004cc:	be00e437          	lui	s0,0xbe00e
 c0004d0:	f406                	sd	ra,40(sp)
 c0004d2:	00340793          	addi	a5,s0,3 # ffffffffbe00e003 <__BL2_END__+0xffffffffb1ffed93>
 c0004d6:	ec26                	sd	s1,24(sp)
 c0004d8:	e84a                	sd	s2,16(sp)
 c0004da:	e44e                	sd	s3,8(sp)
 c0004dc:	0e000937          	lui	s2,0xe000
 c0004e0:	862e                	mv	a2,a1
 c0004e2:	00f92823          	sw	a5,16(s2) # e000010 <__BL2_END__+0x1ff0da0>
 c0004e6:	85aa                	mv	a1,a0
 c0004e8:	00007517          	auipc	a0,0x7
 c0004ec:	01050513          	addi	a0,a0,16 # c0074f8 <version_string+0xa0>
 c0004f0:	e43ff0ef          	jal	ra,c000332 <tf_printf>
 c0004f4:	da9ff0ef          	jal	ra,c00029c <console_flush>
 c0004f8:	be0034b7          	lui	s1,0xbe003
 c0004fc:	00148793          	addi	a5,s1,1 # ffffffffbe003001 <__BL2_END__+0xffffffffb1ff3d91>
 c000500:	030009b7          	lui	s3,0x3000
 c000504:	6505                	lui	a0,0x1
 c000506:	08f9a223          	sw	a5,132(s3) # 3000084 <__BSS_SIZE__+0x2ffb014>
 c00050a:	38850513          	addi	a0,a0,904 # 1388 <__BSS_SIZE__-0x3ce8>
 c00050e:	c97ff0ef          	jal	ra,c0001a4 <mdelay>
 c000512:	050267b7          	lui	a5,0x5026
 c000516:	4705                	li	a4,1
 c000518:	0ee7a023          	sw	a4,224(a5) # 50260e0 <p_rom_api_cryptodma_aes_decrypt+0xc0dfe0>
 c00051c:	0ce7a423          	sw	a4,200(a5)
 c000520:	0489                	addi	s1,s1,2
 c000522:	0899a223          	sw	s1,132(s3)
 c000526:	06400513          	li	a0,100
 c00052a:	c51ff0ef          	jal	ra,c00017a <udelay>
 c00052e:	050257b7          	lui	a5,0x5025
 c000532:	672d                	lui	a4,0xb
 c000534:	0a07a623          	sw	zero,172(a5) # 50250ac <p_rom_api_cryptodma_aes_decrypt+0xc0cfac>
 c000538:	b1870713          	addi	a4,a4,-1256 # ab18 <__BSS_SIZE__+0x5aa8>
 c00053c:	c3d8                	sw	a4,4(a5)
 c00053e:	00400737          	lui	a4,0x400
 c000542:	04070713          	addi	a4,a4,64 # 400040 <__BSS_SIZE__+0x3fafd0>
 c000546:	c798                	sw	a4,8(a5)
 c000548:	030107b7          	lui	a5,0x3010
 c00054c:	06600713          	li	a4,102
 c000550:	c3d8                	sw	a4,4(a5)
 c000552:	02000713          	li	a4,32
 c000556:	cfd8                	sw	a4,28(a5)
 c000558:	07600713          	li	a4,118
 c00055c:	c7d8                	sw	a4,12(a5)
 c00055e:	4745                	li	a4,17
 c000560:	c398                	sw	a4,0(a5)
 c000562:	00394783          	lbu	a5,3(s2)
 c000566:	0407f793          	andi	a5,a5,64
 c00056a:	c38d                	beqz	a5,c00058c <__system_reset+0xc4>
 c00056c:	0411                	addi	s0,s0,4
 c00056e:	00892823          	sw	s0,16(s2)
 c000572:	050266b7          	lui	a3,0x5026
 c000576:	470d                	li	a4,3
 c000578:	0d46a783          	lw	a5,212(a3) # 50260d4 <p_rom_api_cryptodma_aes_decrypt+0xc0dfd4>
 c00057c:	fee79ee3          	bne	a5,a4,c000578 <__system_reset+0xb0>
 c000580:	000807b7          	lui	a5,0x80
 c000584:	05025737          	lui	a4,0x5025
 c000588:	07a1                	addi	a5,a5,8
 c00058a:	c71c                	sw	a5,8(a4)
 c00058c:	a001                	j	c00058c <__system_reset+0xc4>

000000000c00058e <panic_handler>:
 c00058e:	1141                	addi	sp,sp,-16
 c000590:	be00e7b7          	lui	a5,0xbe00e
 c000594:	e406                	sd	ra,8(sp)
 c000596:	0e000737          	lui	a4,0xe000
 c00059a:	0789                	addi	a5,a5,2
 c00059c:	cb1c                	sw	a5,16(a4)
 c00059e:	0000879b          	sext.w	a5,ra
 c0005a2:	8586                	mv	a1,ra
 c0005a4:	00007517          	auipc	a0,0x7
 c0005a8:	f6c50513          	addi	a0,a0,-148 # c007510 <version_string+0xb8>
 c0005ac:	cb5c                	sw	a5,20(a4)
 c0005ae:	d85ff0ef          	jal	ra,c000332 <tf_printf>
 c0005b2:	55fd                	li	a1,-1
 c0005b4:	00007517          	auipc	a0,0x7
 c0005b8:	f6c50513          	addi	a0,a0,-148 # c007520 <version_string+0xc8>
 c0005bc:	f0dff0ef          	jal	ra,c0004c8 <__system_reset>

000000000c0005c0 <reset_c906l>:
 c0005c0:	1141                	addi	sp,sp,-16
 c0005c2:	e022                	sd	s0,0(sp)
 c0005c4:	842a                	mv	s0,a0
 c0005c6:	00007517          	auipc	a0,0x7
 c0005ca:	f6250513          	addi	a0,a0,-158 # c007528 <version_string+0xd0>
 c0005ce:	e406                	sd	ra,8(sp)
 c0005d0:	d63ff0ef          	jal	ra,c000332 <tf_printf>
 c0005d4:	03003737          	lui	a4,0x3003
 c0005d8:	535c                	lw	a5,36(a4)
 c0005da:	020b06b7          	lui	a3,0x20b0
 c0005de:	6609                	lui	a2,0x2
 c0005e0:	fbf7f793          	andi	a5,a5,-65
 c0005e4:	d35c                	sw	a5,36(a4)
 c0005e6:	42dc                	lw	a5,4(a3)
 c0005e8:	60a2                	ld	ra,8(sp)
 c0005ea:	8fd1                	or	a5,a5,a2
 c0005ec:	c2dc                	sw	a5,4(a3)
 c0005ee:	0004079b          	sext.w	a5,s0
 c0005f2:	d29c                	sw	a5,32(a3)
 c0005f4:	9401                	srai	s0,s0,0x20
 c0005f6:	d2c0                	sw	s0,36(a3)
 c0005f8:	535c                	lw	a5,36(a4)
 c0005fa:	6402                	ld	s0,0(sp)
 c0005fc:	0407e793          	ori	a5,a5,64
 c000600:	d35c                	sw	a5,36(a4)
 c000602:	0141                	addi	sp,sp,16
 c000604:	8082                	ret

000000000c000606 <setup_dl_flag>:
 c000606:	1141                	addi	sp,sp,-16
 c000608:	e406                	sd	ra,8(sp)
 c00060a:	f8418097          	auipc	ra,0xf8418
 c00060e:	a16080e7          	jalr	-1514(ra) # 4418020 <p_rom_api_get_boot_src>
 c000612:	67b5                	lui	a5,0xd
 c000614:	2501                	sext.w	a0,a0
 c000616:	ea378713          	addi	a4,a5,-349 # cea3 <__BSS_SIZE__+0x7e33>
 c00061a:	02e50b63          	beq	a0,a4,c000650 <setup_dl_flag+0x4a>
 c00061e:	ea578713          	addi	a4,a5,-347
 c000622:	00e50d63          	beq	a0,a4,c00063c <setup_dl_flag+0x36>
 c000626:	ea078793          	addi	a5,a5,-352
 c00062a:	02f51a63          	bne	a0,a5,c00065e <setup_dl_flag+0x58>
 c00062e:	4d4757b7          	lui	a5,0x4d475
 c000632:	0e000737          	lui	a4,0xe000
 c000636:	e3278793          	addi	a5,a5,-462 # 4d474e32 <__BL2_END__+0x41465bc2>
 c00063a:	a039                	j	c000648 <setup_dl_flag+0x42>
 c00063c:	4d4757b7          	lui	a5,0x4d475
 c000640:	0e000737          	lui	a4,0xe000
 c000644:	e3378793          	addi	a5,a5,-461 # 4d474e33 <__BL2_END__+0x41465bc3>
 c000648:	c35c                	sw	a5,4(a4)
 c00064a:	60a2                	ld	ra,8(sp)
 c00064c:	0141                	addi	sp,sp,16
 c00064e:	8082                	ret
 c000650:	4d4757b7          	lui	a5,0x4d475
 c000654:	0e000737          	lui	a4,0xe000
 c000658:	e3178793          	addi	a5,a5,-463 # 4d474e31 <__BL2_END__+0x41465bc1>
 c00065c:	b7f5                	j	c000648 <setup_dl_flag+0x42>
 c00065e:	0e0007b7          	lui	a5,0xe000
 c000662:	c3c8                	sw	a0,4(a5)
 c000664:	b7dd                	j	c00064a <setup_dl_flag+0x44>

000000000c000666 <config_core_power>:
 c000666:	030607b7          	lui	a5,0x3060
 c00066a:	c388                	sw	a0,0(a5)
 c00066c:	06400713          	li	a4,100
 c000670:	c3d8                	sw	a4,4(a5)
 c000672:	03001737          	lui	a4,0x3001
 c000676:	0e072623          	sw	zero,236(a4) # 30010ec <__BSS_SIZE__+0x2ffc07c>
 c00067a:	4705                	li	a4,1
 c00067c:	c3f8                	sw	a4,68(a5)
 c00067e:	0ce7a823          	sw	a4,208(a5) # 30600d0 <__BSS_SIZE__+0x305b060>
 c000682:	4529                	li	a0,10
 c000684:	b605                	j	c0001a4 <mdelay>

000000000c000686 <sys_switch_all_to_pll>:
 c000686:	030027b7          	lui	a5,0x3002
 c00068a:	0207a823          	sw	zero,48(a5) # 3002030 <__BSS_SIZE__+0x2ffcfc0>
 c00068e:	0207aa23          	sw	zero,52(a5)
 c000692:	8082                	ret

000000000c000694 <sys_pll_od>:
 c000694:	00007797          	auipc	a5,0x7
 c000698:	f547b783          	ld	a5,-172(a5) # c0075e8 <version_string+0x190>
 c00069c:	7139                	addi	sp,sp,-64
 c00069e:	00007517          	auipc	a0,0x7
 c0006a2:	e9250513          	addi	a0,a0,-366 # c007530 <version_string+0xd8>
 c0006a6:	e03e                	sd	a5,0(sp)
 c0006a8:	00007797          	auipc	a5,0x7
 c0006ac:	f487b783          	ld	a5,-184(a5) # c0075f0 <version_string+0x198>
 c0006b0:	fc06                	sd	ra,56(sp)
 c0006b2:	f426                	sd	s1,40(sp)
 c0006b4:	e43e                	sd	a5,8(sp)
 c0006b6:	00007797          	auipc	a5,0x7
 c0006ba:	f427b783          	ld	a5,-190(a5) # c0075f8 <version_string+0x1a0>
 c0006be:	f822                	sd	s0,48(sp)
 c0006c0:	f04a                	sd	s2,32(sp)
 c0006c2:	e83e                	sd	a5,16(sp)
 c0006c4:	00007797          	auipc	a5,0x7
 c0006c8:	f3c7b783          	ld	a5,-196(a5) # c007600 <version_string+0x1a8>
 c0006cc:	ec3e                	sd	a5,24(sp)
 c0006ce:	c65ff0ef          	jal	ra,c000332 <tf_printf>
 c0006d2:	05800513          	li	a0,88
 c0006d6:	f91ff0ef          	jal	ra,c000666 <config_core_power>
 c0006da:	030027b7          	lui	a5,0x3002
 c0006de:	577d                	li	a4,-1
 c0006e0:	5b84                	lw	s1,48(a5)
 c0006e2:	03f00693          	li	a3,63
 c0006e6:	db98                	sw	a4,48(a5)
 c0006e8:	dbd4                	sw	a3,52(a5)
 c0006ea:	054887b7          	lui	a5,0x5488
 c0006ee:	03003737          	lui	a4,0x3003
 c0006f2:	10178793          	addi	a5,a5,257 # 5488101 <p_rom_api_cryptodma_aes_decrypt+0x1070001>
 c0006f6:	80f72423          	sw	a5,-2040(a4) # 3002808 <__BSS_SIZE__+0x2ffd798>
 c0006fa:	030037b7          	lui	a5,0x3003
 c0006fe:	84d72023          	sw	a3,-1984(a4)
 c000702:	4601                	li	a2,0
 c000704:	85470713          	addi	a4,a4,-1964
 c000708:	01010813          	addi	a6,sp,16
 c00070c:	80c78513          	addi	a0,a5,-2036 # 300280c <__BSS_SIZE__+0x2ffd79c>
 c000710:	45c1                	li	a1,16
 c000712:	4026468b          	lrw	a3,a2,sp,0
 c000716:	c314                	sw	a3,0(a4)
 c000718:	ffc72683          	lw	a3,-4(a4)
 c00071c:	0741                	addi	a4,a4,16
 c00071e:	9abd                	andi	a3,a3,-17
 c000720:	0016e693          	ori	a3,a3,1
 c000724:	fed72623          	sw	a3,-20(a4)
 c000728:	4106468b          	lrw	a3,a2,a6,0
 c00072c:	40a6568b          	srw	a3,a2,a0,0
 c000730:	0611                	addi	a2,a2,4
 c000732:	feb610e3          	bne	a2,a1,c000712 <sys_pll_od+0x7e>
 c000736:	80078613          	addi	a2,a5,-2048
 c00073a:	4218                	lw	a4,0(a2)
 c00073c:	76bd                	lui	a3,0xfffef
 c00073e:	eee68693          	addi	a3,a3,-274 # fffffffffffeeeee <__BL2_END__+0xfffffffff3fdfc7e>
 c000742:	8f75                	and	a4,a4,a3
 c000744:	c218                	sw	a4,0(a2)
 c000746:	05548737          	lui	a4,0x5548
 c00074a:	90078613          	addi	a2,a5,-1792
 c00074e:	10170713          	addi	a4,a4,257 # 5548101 <p_rom_api_cryptodma_aes_decrypt+0x1130001>
 c000752:	c618                	sw	a4,8(a2)
 c000754:	03002437          	lui	s0,0x3002
 c000758:	6541                	lui	a0,0x10
 c00075a:	01800737          	lui	a4,0x1800
 c00075e:	d018                	sw	a4,32(s0)
 c000760:	10040693          	addi	a3,s0,256 # 3002100 <__BSS_SIZE__+0x2ffd090>
 c000764:	30950713          	addi	a4,a0,777 # 10309 <__BSS_SIZE__+0xb299>
 c000768:	da98                	sw	a4,48(a3)
 c00076a:	10950713          	addi	a4,a0,265
 c00076e:	de98                	sw	a4,56(a3)
 c000770:	07708737          	lui	a4,0x7708
 c000774:	10170713          	addi	a4,a4,257 # 7708101 <p_rom_api_cryptodma_aes_decrypt+0x32f0001>
 c000778:	000305b7          	lui	a1,0x30
 c00077c:	c658                	sw	a4,12(a2)
 c00077e:	00958313          	addi	t1,a1,9 # 30009 <__BSS_SIZE__+0x2af99>
 c000782:	00020637          	lui	a2,0x20
 c000786:	04642423          	sw	t1,72(s0)
 c00078a:	00960893          	addi	a7,a2,9 # 20009 <__BSS_SIZE__+0x1af99>
 c00078e:	00080937          	lui	s2,0x80
 c000792:	05142a23          	sw	a7,84(s0)
 c000796:	00990813          	addi	a6,s2,9 # 80009 <__BSS_SIZE__+0x7af99>
 c00079a:	07042223          	sw	a6,100(s0)
 c00079e:	08040713          	addi	a4,s0,128
 c0007a2:	01072423          	sw	a6,8(a4)
 c0007a6:	00200837          	lui	a6,0x200
 c0007aa:	0825                	addi	a6,a6,9
 c0007ac:	01072c23          	sw	a6,24(a4)
 c0007b0:	000f0837          	lui	a6,0xf0
 c0007b4:	0825                	addi	a6,a6,9
 c0007b6:	0306a023          	sw	a6,32(a3)
 c0007ba:	0525                	addi	a0,a0,9
 c0007bc:	d708                	sw	a0,40(a4)
 c0007be:	10960513          	addi	a0,a2,265
 c0007c2:	d368                	sw	a0,100(a4)
 c0007c4:	20960613          	addi	a2,a2,521
 c0007c8:	d770                	sw	a2,108(a4)
 c0007ca:	00060537          	lui	a0,0x60
 c0007ce:	04672423          	sw	t1,72(a4)
 c0007d2:	30950513          	addi	a0,a0,777 # 60309 <__BSS_SIZE__+0x5b299>
 c0007d6:	cb28                	sw	a0,80(a4)
 c0007d8:	20958593          	addi	a1,a1,521
 c0007dc:	cf2c                	sw	a1,88(a4)
 c0007de:	ca90                	sw	a2,16(a3)
 c0007e0:	0516a023          	sw	a7,64(a3)
 c0007e4:	00050637          	lui	a2,0x50
 c0007e8:	c2ec                	sw	a1,68(a3)
 c0007ea:	0625                	addi	a2,a2,9
 c0007ec:	df10                	sw	a2,56(a4)
 c0007ee:	d6d0                	sw	a2,44(a3)
 c0007f0:	88078793          	addi	a5,a5,-1920
 c0007f4:	5398                	lw	a4,32(a5)
 c0007f6:	10090913          	addi	s2,s2,256
 c0007fa:	0124f933          	and	s2,s1,s2
 c0007fe:	9b6d                	andi	a4,a4,-5
 c000800:	d398                	sw	a4,32(a5)
 c000802:	57d8                	lw	a4,44(a5)
 c000804:	0c800513          	li	a0,200
 c000808:	9b65                	andi	a4,a4,-7
 c00080a:	d7d8                	sw	a4,44(a5)
 c00080c:	96fff0ef          	jal	ra,c00017a <udelay>
 c000810:	03242823          	sw	s2,48(s0)
 c000814:	70e2                	ld	ra,56(sp)
 c000816:	02042a23          	sw	zero,52(s0)
 c00081a:	7442                	ld	s0,48(sp)
 c00081c:	74a2                	ld	s1,40(sp)
 c00081e:	7902                	ld	s2,32(sp)
 c000820:	6121                	addi	sp,sp,64
 c000822:	8082                	ret

000000000c000824 <sys_pll_nd>:
 c000824:	00007797          	auipc	a5,0x7
 c000828:	dc47b783          	ld	a5,-572(a5) # c0075e8 <version_string+0x190>
 c00082c:	7139                	addi	sp,sp,-64
 c00082e:	f822                	sd	s0,48(sp)
 c000830:	e03e                	sd	a5,0(sp)
 c000832:	00007797          	auipc	a5,0x7
 c000836:	dd67b783          	ld	a5,-554(a5) # c007608 <version_string+0x1b0>
 c00083a:	842a                	mv	s0,a0
 c00083c:	00007517          	auipc	a0,0x7
 c000840:	d0450513          	addi	a0,a0,-764 # c007540 <version_string+0xe8>
 c000844:	e43e                	sd	a5,8(sp)
 c000846:	00007797          	auipc	a5,0x7
 c00084a:	dca7b783          	ld	a5,-566(a5) # c007610 <version_string+0x1b8>
 c00084e:	fc06                	sd	ra,56(sp)
 c000850:	f426                	sd	s1,40(sp)
 c000852:	e83e                	sd	a5,16(sp)
 c000854:	00007797          	auipc	a5,0x7
 c000858:	dc47b783          	ld	a5,-572(a5) # c007618 <version_string+0x1c0>
 c00085c:	ec3e                	sd	a5,24(sp)
 c00085e:	ad5ff0ef          	jal	ra,c000332 <tf_printf>
 c000862:	cc19                	beqz	s0,c000880 <sys_pll_nd+0x5c>
 c000864:	22f397b7          	lui	a5,0x22f39
 c000868:	2a478793          	addi	a5,a5,676 # 22f392a4 <__BL2_END__+0x16f2a034>
 c00086c:	c63e                	sw	a5,12(sp)
 c00086e:	001487b7          	lui	a5,0x148
 c000872:	10178793          	addi	a5,a5,257 # 148101 <__BSS_SIZE__+0x143091>
 c000876:	05800513          	li	a0,88
 c00087a:	ce3e                	sw	a5,28(sp)
 c00087c:	debff0ef          	jal	ra,c000666 <config_core_power>
 c000880:	030027b7          	lui	a5,0x3002
 c000884:	577d                	li	a4,-1
 c000886:	5b84                	lw	s1,48(a5)
 c000888:	03f00693          	li	a3,63
 c00088c:	db98                	sw	a4,48(a5)
 c00088e:	05488737          	lui	a4,0x5488
 c000892:	dbd4                	sw	a3,52(a5)
 c000894:	10170713          	addi	a4,a4,257 # 5488101 <p_rom_api_cryptodma_aes_decrypt+0x1070001>
 c000898:	030037b7          	lui	a5,0x3003
 c00089c:	80e7a423          	sw	a4,-2040(a5) # 3002808 <__BSS_SIZE__+0x2ffd798>
 c0008a0:	84d7a023          	sw	a3,-1984(a5)
 c0008a4:	030036b7          	lui	a3,0x3003
 c0008a8:	4601                	li	a2,0
 c0008aa:	85478793          	addi	a5,a5,-1964
 c0008ae:	01010813          	addi	a6,sp,16
 c0008b2:	80c68513          	addi	a0,a3,-2036 # 300280c <__BSS_SIZE__+0x2ffd79c>
 c0008b6:	45c1                	li	a1,16
 c0008b8:	4026470b          	lrw	a4,a2,sp,0
 c0008bc:	c398                	sw	a4,0(a5)
 c0008be:	ffc7a703          	lw	a4,-4(a5)
 c0008c2:	07c1                	addi	a5,a5,16
 c0008c4:	9b3d                	andi	a4,a4,-17
 c0008c6:	00176713          	ori	a4,a4,1
 c0008ca:	fee7a623          	sw	a4,-20(a5)
 c0008ce:	4106470b          	lrw	a4,a2,a6,0
 c0008d2:	40a6570b          	srw	a4,a2,a0,0
 c0008d6:	0611                	addi	a2,a2,4
 c0008d8:	feb610e3          	bne	a2,a1,c0008b8 <sys_pll_nd+0x94>
 c0008dc:	80068613          	addi	a2,a3,-2048
 c0008e0:	421c                	lw	a5,0(a2)
 c0008e2:	773d                	lui	a4,0xfffef
 c0008e4:	eee70713          	addi	a4,a4,-274 # fffffffffffeeeee <__BL2_END__+0xfffffffff3fdfc7e>
 c0008e8:	8ff9                	and	a5,a5,a4
 c0008ea:	c21c                	sw	a5,0(a2)
 c0008ec:	00448637          	lui	a2,0x448
 c0008f0:	10160613          	addi	a2,a2,257 # 448101 <__BSS_SIZE__+0x443091>
 c0008f4:	90068693          	addi	a3,a3,-1792
 c0008f8:	c690                	sw	a2,8(a3)
 c0008fa:	030027b7          	lui	a5,0x3002
 c0008fe:	01800737          	lui	a4,0x1800
 c000902:	6541                	lui	a0,0x10
 c000904:	d398                	sw	a4,32(a5)
 c000906:	30950593          	addi	a1,a0,777 # 10309 <__BSS_SIZE__+0xb299>
 c00090a:	10078713          	addi	a4,a5,256 # 3002100 <__BSS_SIZE__+0x2ffd090>
 c00090e:	db0c                	sw	a1,48(a4)
 c000910:	000205b7          	lui	a1,0x20
 c000914:	20958893          	addi	a7,a1,521 # 20209 <__BSS_SIZE__+0x1b199>
 c000918:	03172c23          	sw	a7,56(a4) # 1800038 <__BSS_SIZE__+0x17fafc8>
 c00091c:	c6d0                	sw	a2,12(a3)
 c00091e:	000306b7          	lui	a3,0x30
 c000922:	30968613          	addi	a2,a3,777 # 30309 <__BSS_SIZE__+0x2b299>
 c000926:	cbf0                	sw	a2,84(a5)
 c000928:	00080837          	lui	a6,0x80
 c00092c:	00968613          	addi	a2,a3,9
 c000930:	c7b0                	sw	a2,72(a5)
 c000932:	0825                	addi	a6,a6,9
 c000934:	0707a223          	sw	a6,100(a5)
 c000938:	08078793          	addi	a5,a5,128
 c00093c:	0107a423          	sw	a6,8(a5)
 c000940:	00120837          	lui	a6,0x120
 c000944:	0825                	addi	a6,a6,9
 c000946:	0107ac23          	sw	a6,24(a5)
 c00094a:	000f0837          	lui	a6,0xf0
 c00094e:	0825                	addi	a6,a6,9
 c000950:	03072023          	sw	a6,32(a4)
 c000954:	0525                	addi	a0,a0,9
 c000956:	d788                	sw	a0,40(a5)
 c000958:	c7b0                	sw	a2,72(a5)
 c00095a:	01172823          	sw	a7,16(a4)
 c00095e:	20968693          	addi	a3,a3,521
 c000962:	c374                	sw	a3,68(a4)
 c000964:	c435                	beqz	s0,c0009d0 <sys_pll_nd+0x1ac>
 c000966:	10958613          	addi	a2,a1,265
 c00096a:	d3f0                	sw	a2,100(a5)
 c00096c:	00060637          	lui	a2,0x60
 c000970:	0717a623          	sw	a7,108(a5)
 c000974:	30960613          	addi	a2,a2,777 # 60309 <__BSS_SIZE__+0x5b299>
 c000978:	cbb0                	sw	a2,80(a5)
 c00097a:	cfb4                	sw	a3,88(a5)
 c00097c:	05a5                	addi	a1,a1,9
 c00097e:	c32c                	sw	a1,64(a4)
 c000980:	000507b7          	lui	a5,0x50
 c000984:	03002437          	lui	s0,0x3002
 c000988:	07a5                	addi	a5,a5,9
 c00098a:	0af42c23          	sw	a5,184(s0) # 30020b8 <__BSS_SIZE__+0x2ffd048>
 c00098e:	12f42623          	sw	a5,300(s0)
 c000992:	030037b7          	lui	a5,0x3003
 c000996:	88078793          	addi	a5,a5,-1920 # 3002880 <__BSS_SIZE__+0x2ffd810>
 c00099a:	5398                	lw	a4,32(a5)
 c00099c:	0c800513          	li	a0,200
 c0009a0:	9b6d                	andi	a4,a4,-5
 c0009a2:	d398                	sw	a4,32(a5)
 c0009a4:	57d8                	lw	a4,44(a5)
 c0009a6:	9b65                	andi	a4,a4,-7
 c0009a8:	d7d8                	sw	a4,44(a5)
 c0009aa:	fd0ff0ef          	jal	ra,c00017a <udelay>
 c0009ae:	000807b7          	lui	a5,0x80
 c0009b2:	10078793          	addi	a5,a5,256 # 80100 <__BSS_SIZE__+0x7b090>
 c0009b6:	8cfd                	and	s1,s1,a5
 c0009b8:	d804                	sw	s1,48(s0)
 c0009ba:	02042a23          	sw	zero,52(s0)
 c0009be:	7442                	ld	s0,48(sp)
 c0009c0:	70e2                	ld	ra,56(sp)
 c0009c2:	74a2                	ld	s1,40(sp)
 c0009c4:	00007517          	auipc	a0,0x7
 c0009c8:	b8c50513          	addi	a0,a0,-1140 # c007550 <version_string+0xf8>
 c0009cc:	6121                	addi	sp,sp,64
 c0009ce:	b295                	j	c000332 <tf_printf>
 c0009d0:	d3f4                	sw	a3,100(a5)
 c0009d2:	000606b7          	lui	a3,0x60
 c0009d6:	d7f0                	sw	a2,108(a5)
 c0009d8:	20968693          	addi	a3,a3,521 # 60209 <__BSS_SIZE__+0x5b199>
 c0009dc:	cbb4                	sw	a3,80(a5)
 c0009de:	cfb0                	sw	a2,88(a5)
 c0009e0:	c330                	sw	a2,64(a4)
 c0009e2:	bf79                	j	c000980 <sys_pll_nd+0x15c>

000000000c0009e4 <sys_pll_init>:
 c0009e4:	4785                	li	a5,1
 c0009e6:	00f50763          	beq	a0,a5,c0009f4 <sys_pll_init+0x10>
 c0009ea:	4789                	li	a5,2
 c0009ec:	00f51563          	bne	a0,a5,c0009f6 <sys_pll_init+0x12>
 c0009f0:	4505                	li	a0,1
 c0009f2:	bd0d                	j	c000824 <sys_pll_nd>
 c0009f4:	b145                	j	c000694 <sys_pll_od>
 c0009f6:	4501                	li	a0,0
 c0009f8:	bfed                	j	c0009f2 <sys_pll_init+0xe>

000000000c0009fa <switch_rtc_mode_1st_stage>:
 c0009fa:	05025737          	lui	a4,0x5025
 c0009fe:	471c                	lw	a5,8(a4)
 c000a00:	28a7b78b          	extu	a5,a5,10,10
 c000a04:	c791                	beqz	a5,c000a10 <switch_rtc_mode_1st_stage+0x16>
 c000a06:	00007517          	auipc	a0,0x7
 c000a0a:	b5a50513          	addi	a0,a0,-1190 # c007560 <version_string+0x108>
 c000a0e:	b215                	j	c000332 <tf_printf>
 c000a10:	1141                	addi	sp,sp,-16
 c000a12:	67ad                	lui	a5,0xb
 c000a14:	e406                	sd	ra,8(sp)
 c000a16:	e022                	sd	s0,0(sp)
 c000a18:	b1878793          	addi	a5,a5,-1256 # ab18 <__BSS_SIZE__+0x5aa8>
 c000a1c:	c35c                	sw	a5,4(a4)
 c000a1e:	471c                	lw	a5,8(a4)
 c000a20:	f7fff6b7          	lui	a3,0xf7fff
 c000a24:	7ff68693          	addi	a3,a3,2047 # fffffffff7fff7ff <__BL2_END__+0xffffffffebff058f>
 c000a28:	8ff5                	and	a5,a5,a3
 c000a2a:	080006b7          	lui	a3,0x8000
 c000a2e:	8fd5                	or	a5,a5,a3
 c000a30:	c71c                	sw	a5,8(a4)
 c000a32:	475c                	lw	a5,12(a4)
 c000a34:	050256b7          	lui	a3,0x5025
 c000a38:	02000737          	lui	a4,0x2000
 c000a3c:	8ff9                	and	a5,a5,a4
 c000a3e:	e3a1                	bnez	a5,c000a7e <switch_rtc_mode_1st_stage+0x84>
 c000a40:	05025437          	lui	s0,0x5025
 c000a44:	441c                	lw	a5,8(s0)
 c000a46:	04000737          	lui	a4,0x4000
 c000a4a:	40070713          	addi	a4,a4,1024 # 4000400 <__BSS_SIZE__+0x3ffb390>
 c000a4e:	8fd9                	or	a5,a5,a4
 c000a50:	c41c                	sw	a5,8(s0)
 c000a52:	4705                	li	a4,1
 c000a54:	050267b7          	lui	a5,0x5026
 c000a58:	48e7a623          	sw	a4,1164(a5) # 502648c <p_rom_api_cryptodma_aes_decrypt+0xc0e38c>
 c000a5c:	4807a623          	sw	zero,1164(a5)
 c000a60:	0c800513          	li	a0,200
 c000a64:	f16ff0ef          	jal	ra,c00017a <udelay>
 c000a68:	441c                	lw	a5,8(s0)
 c000a6a:	0c001737          	lui	a4,0xc001
 c000a6e:	80070713          	addi	a4,a4,-2048 # c000800 <sys_pll_od+0x16c>
 c000a72:	8fd9                	or	a5,a5,a4
 c000a74:	60a2                	ld	ra,8(sp)
 c000a76:	c41c                	sw	a5,8(s0)
 c000a78:	6402                	ld	s0,0(sp)
 c000a7a:	0141                	addi	sp,sp,16
 c000a7c:	8082                	ret
 c000a7e:	46dc                	lw	a5,12(a3)
 c000a80:	bf75                	j	c000a3c <switch_rtc_mode_1st_stage+0x42>

000000000c000a82 <switch_rtc_mode_2nd_stage>:
 c000a82:	1141                	addi	sp,sp,-16
 c000a84:	050257b7          	lui	a5,0x5025
 c000a88:	e022                	sd	s0,0(sp)
 c000a8a:	e406                	sd	ra,8(sp)
 c000a8c:	47c0                	lw	s0,12(a5)
 c000a8e:	347040ef          	jal	ra,c0055d4 <get_pkg>
 c000a92:	4785                	li	a5,1
 c000a94:	00f50963          	beq	a0,a5,c000aa6 <switch_rtc_mode_2nd_stage+0x24>
 c000a98:	6594340b          	extu	s0,s0,25,25
 c000a9c:	00007517          	auipc	a0,0x7
 c000aa0:	afc50513          	addi	a0,a0,-1284 # c007598 <version_string+0x140>
 c000aa4:	e805                	bnez	s0,c000ad4 <switch_rtc_mode_2nd_stage+0x52>
 c000aa6:	050256b7          	lui	a3,0x5025
 c000aaa:	469c                	lw	a5,8(a3)
 c000aac:	f4000737          	lui	a4,0xf4000
 c000ab0:	bff70713          	addi	a4,a4,-1025 # fffffffff3fffbff <__BL2_END__+0xffffffffe7ff098f>
 c000ab4:	8ff9                	and	a5,a5,a4
 c000ab6:	0c000737          	lui	a4,0xc000
 c000aba:	8fd9                	or	a5,a5,a4
 c000abc:	c69c                	sw	a5,8(a3)
 c000abe:	4705                	li	a4,1
 c000ac0:	050267b7          	lui	a5,0x5026
 c000ac4:	48e7a623          	sw	a4,1164(a5) # 502648c <p_rom_api_cryptodma_aes_decrypt+0xc0e38c>
 c000ac8:	4807a623          	sw	zero,1164(a5)
 c000acc:	00007517          	auipc	a0,0x7
 c000ad0:	ab450513          	addi	a0,a0,-1356 # c007580 <version_string+0x128>
 c000ad4:	6402                	ld	s0,0(sp)
 c000ad6:	60a2                	ld	ra,8(sp)
 c000ad8:	0141                	addi	sp,sp,16
 c000ada:	859ff06f          	j	c000332 <tf_printf>

000000000c000ade <set_rtc_en_registers>:
 c000ade:	1141                	addi	sp,sp,-16
 c000ae0:	e022                	sd	s0,0(sp)
 c000ae2:	05026437          	lui	s0,0x5026
 c000ae6:	0f842583          	lw	a1,248(s0) # 50260f8 <p_rom_api_cryptodma_aes_decrypt+0xc0dff8>
 c000aea:	00007517          	auipc	a0,0x7
 c000aee:	ace50513          	addi	a0,a0,-1330 # c0075b8 <version_string+0x160>
 c000af2:	e406                	sd	ra,8(sp)
 c000af4:	83fff0ef          	jal	ra,c000332 <tf_printf>
 c000af8:	0fc42583          	lw	a1,252(s0)
 c000afc:	00007517          	auipc	a0,0x7
 c000b00:	ad450513          	addi	a0,a0,-1324 # c0075d0 <version_string+0x178>
 c000b04:	82fff0ef          	jal	ra,c000332 <tf_printf>
 c000b08:	4785                	li	a5,1
 c000b0a:	0cf42023          	sw	a5,192(s0)
 c000b0e:	05026737          	lui	a4,0x5026
 c000b12:	4685                	li	a3,1
 c000b14:	0c072783          	lw	a5,192(a4) # 50260c0 <p_rom_api_cryptodma_aes_decrypt+0xc0dfc0>
 c000b18:	fed79ee3          	bne	a5,a3,c000b14 <set_rtc_en_registers+0x36>
 c000b1c:	0cd72623          	sw	a3,204(a4)
 c000b20:	05026737          	lui	a4,0x5026
 c000b24:	4685                	li	a3,1
 c000b26:	0cc72783          	lw	a5,204(a4) # 50260cc <p_rom_api_cryptodma_aes_decrypt+0xc0dfcc>
 c000b2a:	fed79ee3          	bne	a5,a3,c000b26 <set_rtc_en_registers+0x48>
 c000b2e:	0cd72423          	sw	a3,200(a4)
 c000b32:	05026737          	lui	a4,0x5026
 c000b36:	4685                	li	a3,1
 c000b38:	0c872783          	lw	a5,200(a4) # 50260c8 <p_rom_api_cryptodma_aes_decrypt+0xc0dfc8>
 c000b3c:	fed79ee3          	bne	a5,a3,c000b38 <set_rtc_en_registers+0x5a>
 c000b40:	0ed72023          	sw	a3,224(a4)
 c000b44:	050266b7          	lui	a3,0x5026
 c000b48:	4705                	li	a4,1
 c000b4a:	0e06a783          	lw	a5,224(a3) # 50260e0 <p_rom_api_cryptodma_aes_decrypt+0xc0dfe0>
 c000b4e:	fee79ee3          	bne	a5,a4,c000b4a <set_rtc_en_registers+0x6c>
 c000b52:	05025737          	lui	a4,0x5025
 c000b56:	08070613          	addi	a2,a4,128 # 5025080 <p_rom_api_cryptodma_aes_decrypt+0xc0cf80>
 c000b5a:	565c                	lw	a5,44(a2)
 c000b5c:	60a2                	ld	ra,8(sp)
 c000b5e:	6402                	ld	s0,0(sp)
 c000b60:	0017e793          	ori	a5,a5,1
 c000b64:	d65c                	sw	a5,44(a2)
 c000b66:	67ad                	lui	a5,0xb
 c000b68:	b1878793          	addi	a5,a5,-1256 # ab18 <__BSS_SIZE__+0x5aa8>
 c000b6c:	c35c                	sw	a5,4(a4)
 c000b6e:	471c                	lw	a5,8(a4)
 c000b70:	7645                	lui	a2,0xffff1
 c000b72:	84060613          	addi	a2,a2,-1984 # ffffffffffff0840 <__BL2_END__+0xfffffffff3fe15d0>
 c000b76:	8fd1                	or	a5,a5,a2
 c000b78:	c71c                	sw	a5,8(a4)
 c000b7a:	0d06a783          	lw	a5,208(a3)
 c000b7e:	9bed                	andi	a5,a5,-5
 c000b80:	0cf6a823          	sw	a5,208(a3)
 c000b84:	0141                	addi	sp,sp,16
 c000b86:	8082                	ret

000000000c000b88 <efuse_wait_idle>:
 c000b88:	6705                	lui	a4,0x1
 c000b8a:	0705                	addi	a4,a4,1
 c000b8c:	030506b7          	lui	a3,0x3050
 c000b90:	4a9c                	lw	a5,16(a3)
 c000b92:	377d                	addiw	a4,a4,-1
 c000b94:	ef09                	bnez	a4,c000bae <efuse_wait_idle+0x26>
 c000b96:	1141                	addi	sp,sp,-16
 c000b98:	00007517          	auipc	a0,0x7
 c000b9c:	a8850513          	addi	a0,a0,-1400 # c007620 <version_string+0x1c8>
 c000ba0:	e406                	sd	ra,8(sp)
 c000ba2:	f90ff0ef          	jal	ra,c000332 <tf_printf>
 c000ba6:	60a2                	ld	ra,8(sp)
 c000ba8:	557d                	li	a0,-1
 c000baa:	0141                	addi	sp,sp,16
 c000bac:	8082                	ret
 c000bae:	8b85                	andi	a5,a5,1
 c000bb0:	f3e5                	bnez	a5,c000b90 <efuse_wait_idle+0x8>
 c000bb2:	4501                	li	a0,0
 c000bb4:	8082                	ret

000000000c000bb6 <efuse_power_on>:
 c000bb6:	1141                	addi	sp,sp,-16
 c000bb8:	e406                	sd	ra,8(sp)
 c000bba:	fcfff0ef          	jal	ra,c000b88 <efuse_wait_idle>
 c000bbe:	e901                	bnez	a0,c000bce <efuse_power_on+0x18>
 c000bc0:	030507b7          	lui	a5,0x3050
 c000bc4:	4741                	li	a4,16
 c000bc6:	c398                	sw	a4,0(a5)
 c000bc8:	60a2                	ld	ra,8(sp)
 c000bca:	0141                	addi	sp,sp,16
 c000bcc:	8082                	ret
 c000bce:	557d                	li	a0,-1
 c000bd0:	bfe5                	j	c000bc8 <efuse_power_on+0x12>

000000000c000bd2 <efuse_program_bit>:
 c000bd2:	0015151b          	slliw	a0,a0,0x1
 c000bd6:	07e57513          	andi	a0,a0,126
 c000bda:	0075959b          	slliw	a1,a1,0x7
 c000bde:	1101                	addi	sp,sp,-32
 c000be0:	8d4d                	or	a0,a0,a1
 c000be2:	e822                	sd	s0,16(sp)
 c000be4:	ec06                	sd	ra,24(sp)
 c000be6:	e426                	sd	s1,8(sp)
 c000be8:	e04a                	sd	s2,0(sp)
 c000bea:	3c05340b          	extu	s0,a0,15,0
 c000bee:	f9bff0ef          	jal	ra,c000b88 <efuse_wait_idle>
 c000bf2:	c901                	beqz	a0,c000c02 <efuse_program_bit+0x30>
 c000bf4:	557d                	li	a0,-1
 c000bf6:	60e2                	ld	ra,24(sp)
 c000bf8:	6442                	ld	s0,16(sp)
 c000bfa:	64a2                	ld	s1,8(sp)
 c000bfc:	6902                	ld	s2,0(sp)
 c000bfe:	6105                	addi	sp,sp,32
 c000c00:	8082                	ret
 c000c02:	2c04378b          	extu	a5,s0,11,0
 c000c06:	03050437          	lui	s0,0x3050
 c000c0a:	c05c                	sw	a5,4(s0)
 c000c0c:	4951                	li	s2,20
 c000c0e:	01242023          	sw	s2,0(s0) # 3050000 <__BSS_SIZE__+0x304af90>
 c000c12:	3c07b48b          	extu	s1,a5,15,0
 c000c16:	f73ff0ef          	jal	ra,c000b88 <efuse_wait_idle>
 c000c1a:	fd69                	bnez	a0,c000bf4 <efuse_program_bit+0x22>
 c000c1c:	0014e493          	ori	s1,s1,1
 c000c20:	c044                	sw	s1,4(s0)
 c000c22:	01242023          	sw	s2,0(s0)
 c000c26:	bfc1                	j	c000bf6 <efuse_program_bit+0x24>

000000000c000c28 <efuse_refresh_shadow>:
 c000c28:	1141                	addi	sp,sp,-16
 c000c2a:	e406                	sd	ra,8(sp)
 c000c2c:	f5dff0ef          	jal	ra,c000b88 <efuse_wait_idle>
 c000c30:	87aa                	mv	a5,a0
 c000c32:	557d                	li	a0,-1
 c000c34:	ef81                	bnez	a5,c000c4c <efuse_refresh_shadow+0x24>
 c000c36:	030507b7          	lui	a5,0x3050
 c000c3a:	03000713          	li	a4,48
 c000c3e:	c398                	sw	a4,0(a5)
 c000c40:	f49ff0ef          	jal	ra,c000b88 <efuse_wait_idle>
 c000c44:	00a03533          	snez	a0,a0
 c000c48:	0005250b          	ext	a0,a0,0,0
 c000c4c:	60a2                	ld	ra,8(sp)
 c000c4e:	0141                	addi	sp,sp,16
 c000c50:	8082                	ret

000000000c000c52 <efuse_power_off>:
 c000c52:	1141                	addi	sp,sp,-16
 c000c54:	e406                	sd	ra,8(sp)
 c000c56:	f33ff0ef          	jal	ra,c000b88 <efuse_wait_idle>
 c000c5a:	e901                	bnez	a0,c000c6a <efuse_power_off+0x18>
 c000c5c:	030507b7          	lui	a5,0x3050
 c000c60:	4761                	li	a4,24
 c000c62:	c398                	sw	a4,0(a5)
 c000c64:	60a2                	ld	ra,8(sp)
 c000c66:	0141                	addi	sp,sp,16
 c000c68:	8082                	ret
 c000c6a:	557d                	li	a0,-1
 c000c6c:	bfe5                	j	c000c64 <efuse_power_off+0x12>

000000000c000c6e <memset>:
 c000c6e:	0ff5f813          	andi	a6,a1,255
 c000c72:	87aa                	mv	a5,a0
 c000c74:	0077f713          	andi	a4,a5,7
 c000c78:	c719                	beqz	a4,c000c86 <memset+0x18>
 c000c7a:	e211                	bnez	a2,c000c7e <memset+0x10>
 c000c7c:	8082                	ret
 c000c7e:	1817d80b          	sbia	a6,(a5),1,0
 c000c82:	167d                	addi	a2,a2,-1
 c000c84:	bfc5                	j	c000c74 <memset+0x6>
 c000c86:	ca05                	beqz	a2,c000cb6 <memset+0x48>
 c000c88:	00007697          	auipc	a3,0x7
 c000c8c:	9b06b683          	ld	a3,-1616(a3) # c007638 <version_string+0x1e0>
 c000c90:	0ff5f593          	andi	a1,a1,255
 c000c94:	489d                	li	a7,7
 c000c96:	02d585b3          	mul	a1,a1,a3
 c000c9a:	4681                	li	a3,0
 c000c9c:	40d60333          	sub	t1,a2,a3
 c000ca0:	0068ec63          	bltu	a7,t1,c000cb8 <memset+0x4a>
 c000ca4:	00365693          	srli	a3,a2,0x3
 c000ca8:	55e1                	li	a1,-8
 c000caa:	20b6960b          	mula	a2,a3,a1
 c000cae:	06d7978b          	addsl	a5,a5,a3,3
 c000cb2:	00e61763          	bne	a2,a4,c000cc0 <memset+0x52>
 c000cb6:	8082                	ret
 c000cb8:	60d7d58b          	srd	a1,a5,a3,0
 c000cbc:	06a1                	addi	a3,a3,8
 c000cbe:	bff9                	j	c000c9c <memset+0x2e>
 c000cc0:	00e7d80b          	srb	a6,a5,a4,0
 c000cc4:	0705                	addi	a4,a4,1
 c000cc6:	b7f5                	j	c000cb2 <memset+0x44>

000000000c000cc8 <memcpy>:
 c000cc8:	00b547b3          	xor	a5,a0,a1
 c000ccc:	8b9d                	andi	a5,a5,7
 c000cce:	e7a9                	bnez	a5,c000d18 <memcpy+0x50>
 c000cd0:	87aa                	mv	a5,a0
 c000cd2:	0077f713          	andi	a4,a5,7
 c000cd6:	cb09                	beqz	a4,c000ce8 <memcpy+0x20>
 c000cd8:	e211                	bnez	a2,c000cdc <memcpy+0x14>
 c000cda:	8082                	ret
 c000cdc:	9815c70b          	lbuia	a4,(a1),1,0
 c000ce0:	167d                	addi	a2,a2,-1
 c000ce2:	1817d70b          	sbia	a4,(a5),1,0
 c000ce6:	b7f5                	j	c000cd2 <memcpy+0xa>
 c000ce8:	469d                	li	a3,7
 c000cea:	e619                	bnez	a2,c000cf8 <memcpy+0x30>
 c000cec:	8082                	ret
 c000cee:	60e5c80b          	lrd	a6,a1,a4,0
 c000cf2:	60e7d80b          	srd	a6,a5,a4,0
 c000cf6:	0721                	addi	a4,a4,8
 c000cf8:	40e60833          	sub	a6,a2,a4
 c000cfc:	ff06e9e3          	bltu	a3,a6,c000cee <memcpy+0x26>
 c000d00:	00365713          	srli	a4,a2,0x3
 c000d04:	56e1                	li	a3,-8
 c000d06:	20d7160b          	mula	a2,a4,a3
 c000d0a:	070e                	slli	a4,a4,0x3
 c000d0c:	97ba                	add	a5,a5,a4
 c000d0e:	95ba                	add	a1,a1,a4
 c000d10:	4701                	li	a4,0
 c000d12:	00e61563          	bne	a2,a4,c000d1c <memcpy+0x54>
 c000d16:	8082                	ret
 c000d18:	87aa                	mv	a5,a0
 c000d1a:	bfdd                	j	c000d10 <memcpy+0x48>
 c000d1c:	80e5c68b          	lrbu	a3,a1,a4,0
 c000d20:	00e7d68b          	srb	a3,a5,a4,0
 c000d24:	0705                	addi	a4,a4,1
 c000d26:	b7f5                	j	c000d12 <memcpy+0x4a>

000000000c000d28 <memmove>:
 c000d28:	40b50733          	sub	a4,a0,a1
 c000d2c:	87aa                	mv	a5,a0
 c000d2e:	00c76363          	bltu	a4,a2,c000d34 <memmove+0xc>
 c000d32:	bf59                	j	c000cc8 <memcpy>
 c000d34:	95b2                	add	a1,a1,a2
 c000d36:	9532                	add	a0,a0,a2
 c000d38:	00f51363          	bne	a0,a5,c000d3e <memmove+0x16>
 c000d3c:	8082                	ret
 c000d3e:	89f5c70b          	lbuib	a4,(a1),-1,0
 c000d42:	09f5570b          	sbib	a4,(a0),-1,0
 c000d46:	bfcd                	j	c000d38 <memmove+0x10>

000000000c000d48 <putchar_l>:
 c000d48:	0e0007b7          	lui	a5,0xe000
 c000d4c:	4794                	lw	a3,8(a5)
 c000d4e:	1141                	addi	sp,sp,-16
 c000d50:	e022                	sd	s0,0(sp)
 c000d52:	e406                	sd	ra,8(sp)
 c000d54:	6709                	lui	a4,0x2
 c000d56:	842a                	mv	s0,a0
 c000d58:	00e6e463          	bltu	a3,a4,c000d60 <putchar_l+0x18>
 c000d5c:	0007a423          	sw	zero,8(a5) # e000008 <__BL2_END__+0x1ff0d98>
 c000d60:	0e0007b7          	lui	a5,0xe000
 c000d64:	4798                	lw	a4,8(a5)
 c000d66:	0017069b          	addiw	a3,a4,1
 c000d6a:	c794                	sw	a3,8(a5)
 c000d6c:	2c0376b7          	lui	a3,0x2c037
 c000d70:	10e6d40b          	surb	s0,a3,a4,0
 c000d74:	4709                	li	a4,2
 c000d76:	00b74d63          	blt	a4,a1,c000d90 <putchar_l+0x48>
 c000d7a:	0007c783          	lbu	a5,0(a5) # e000000 <__BL2_END__+0x1ff0d90>
 c000d7e:	8b91                	andi	a5,a5,4
 c000d80:	eb81                	bnez	a5,c000d90 <putchar_l+0x48>
 c000d82:	0ff47513          	andi	a0,s0,255
 c000d86:	cf8ff0ef          	jal	ra,c00027e <console_putc>
 c000d8a:	00055363          	bgez	a0,c000d90 <putchar_l+0x48>
 c000d8e:	547d                	li	s0,-1
 c000d90:	60a2                	ld	ra,8(sp)
 c000d92:	8522                	mv	a0,s0
 c000d94:	6402                	ld	s0,0(sp)
 c000d96:	0141                	addi	sp,sp,16
 c000d98:	8082                	ret

000000000c000d9a <read_time_ms>:
 c000d9a:	1141                	addi	sp,sp,-16
 c000d9c:	e406                	sd	ra,8(sp)
 c000d9e:	c10ff0ef          	jal	ra,c0001ae <read_count_tick>
 c000da2:	60a2                	ld	ra,8(sp)
 c000da4:	3e75051b          	addiw	a0,a0,999
 c000da8:	3e800793          	li	a5,1000
 c000dac:	02f5553b          	divuw	a0,a0,a5
 c000db0:	0141                	addi	sp,sp,16
 c000db2:	8082                	ret

000000000c000db4 <init_comm_info>:
 c000db4:	8082                	ret

000000000c000db6 <lock_efuse_chipsn>:
 c000db6:	1141                	addi	sp,sp,-16
 c000db8:	030507b7          	lui	a5,0x3050
 c000dbc:	e022                	sd	s0,0(sp)
 c000dbe:	e406                	sd	ra,8(sp)
 c000dc0:	1987a403          	lw	s0,408(a5) # 3050198 <__BSS_SIZE__+0x304b128>
 c000dc4:	df3ff0ef          	jal	ra,c000bb6 <efuse_power_on>
 c000dc8:	c911                	beqz	a0,c000ddc <lock_efuse_chipsn+0x26>
 c000dca:	00007517          	auipc	a0,0x7
 c000dce:	87650513          	addi	a0,a0,-1930 # c007640 <version_string+0x1e8>
 c000dd2:	6402                	ld	s0,0(sp)
 c000dd4:	60a2                	ld	ra,8(sp)
 c000dd6:	0141                	addi	sp,sp,16
 c000dd8:	d5aff06f          	j	c000332 <tf_printf>
 c000ddc:	00847793          	andi	a5,s0,8
 c000de0:	e791                	bnez	a5,c000dec <lock_efuse_chipsn+0x36>
 c000de2:	458d                	li	a1,3
 c000de4:	02600513          	li	a0,38
 c000de8:	debff0ef          	jal	ra,c000bd2 <efuse_program_bit>
 c000dec:	8841                	andi	s0,s0,16
 c000dee:	e411                	bnez	s0,c000dfa <lock_efuse_chipsn+0x44>
 c000df0:	4591                	li	a1,4
 c000df2:	02600513          	li	a0,38
 c000df6:	dddff0ef          	jal	ra,c000bd2 <efuse_program_bit>
 c000dfa:	e2fff0ef          	jal	ra,c000c28 <efuse_refresh_shadow>
 c000dfe:	c511                	beqz	a0,c000e0a <lock_efuse_chipsn+0x54>
 c000e00:	00007517          	auipc	a0,0x7
 c000e04:	85850513          	addi	a0,a0,-1960 # c007658 <version_string+0x200>
 c000e08:	b7e9                	j	c000dd2 <lock_efuse_chipsn+0x1c>
 c000e0a:	030507b7          	lui	a5,0x3050
 c000e0e:	1987a783          	lw	a5,408(a5) # 3050198 <__BSS_SIZE__+0x304b128>
 c000e12:	470d                	li	a4,3
 c000e14:	1037b78b          	extu	a5,a5,4,3
 c000e18:	00e78863          	beq	a5,a4,c000e28 <lock_efuse_chipsn+0x72>
 c000e1c:	00007517          	auipc	a0,0x7
 c000e20:	85c50513          	addi	a0,a0,-1956 # c007678 <version_string+0x220>
 c000e24:	d0eff0ef          	jal	ra,c000332 <tf_printf>
 c000e28:	e2bff0ef          	jal	ra,c000c52 <efuse_power_off>
 c000e2c:	c511                	beqz	a0,c000e38 <lock_efuse_chipsn+0x82>
 c000e2e:	00007517          	auipc	a0,0x7
 c000e32:	86a50513          	addi	a0,a0,-1942 # c007698 <version_string+0x240>
 c000e36:	bf71                	j	c000dd2 <lock_efuse_chipsn+0x1c>
 c000e38:	60a2                	ld	ra,8(sp)
 c000e3a:	6402                	ld	s0,0(sp)
 c000e3c:	0141                	addi	sp,sp,16
 c000e3e:	8082                	ret

000000000c000e40 <load_param2>:
 c000e40:	1101                	addi	sp,sp,-32
 c000e42:	e42a                	sd	a0,8(sp)
 c000e44:	00009617          	auipc	a2,0x9
 c000e48:	3bc60613          	addi	a2,a2,956 # c00a200 <fip_param2>
 c000e4c:	6585                	lui	a1,0x1
 c000e4e:	00007517          	auipc	a0,0x7
 c000e52:	86250513          	addi	a0,a0,-1950 # c0076b0 <version_string+0x258>
 c000e56:	ec06                	sd	ra,24(sp)
 c000e58:	e822                	sd	s0,16(sp)
 c000e5a:	cd8ff0ef          	jal	ra,c000332 <tf_printf>
 c000e5e:	00007797          	auipc	a5,0x7
 c000e62:	1527b783          	ld	a5,338(a5) # c007fb0 <__RO_END__>
 c000e66:	66a2                	ld	a3,8(sp)
 c000e68:	6605                	lui	a2,0x1
 c000e6a:	0e07a583          	lw	a1,224(a5)
 c000e6e:	00009517          	auipc	a0,0x9
 c000e72:	39250513          	addi	a0,a0,914 # c00a200 <fip_param2>
 c000e76:	f8417097          	auipc	ra,0xf8417
 c000e7a:	1ea080e7          	jalr	490(ra) # 4418060 <p_rom_api_load_image>
 c000e7e:	02054463          	bltz	a0,c000ea6 <load_param2+0x66>
 c000e82:	00009417          	auipc	s0,0x9
 c000e86:	37e40413          	addi	s0,s0,894 # c00a200 <fip_param2>
 c000e8a:	00007797          	auipc	a5,0x7
 c000e8e:	bf67b783          	ld	a5,-1034(a5) # c007a80 <version_string+0x628>
 c000e92:	6018                	ld	a4,0(s0)
 c000e94:	00f70d63          	beq	a4,a5,c000eae <load_param2+0x6e>
 c000e98:	00007517          	auipc	a0,0x7
 c000e9c:	83050513          	addi	a0,a0,-2000 # c0076c8 <version_string+0x270>
 c000ea0:	c92ff0ef          	jal	ra,c000332 <tf_printf>
 c000ea4:	557d                	li	a0,-1
 c000ea6:	60e2                	ld	ra,24(sp)
 c000ea8:	6442                	ld	s0,16(sp)
 c000eaa:	6105                	addi	sp,sp,32
 c000eac:	8082                	ret
 c000eae:	6585                	lui	a1,0x1
 c000eb0:	15d1                	addi	a1,a1,-12
 c000eb2:	00009517          	auipc	a0,0x9
 c000eb6:	35a50513          	addi	a0,a0,858 # c00a20c <fip_param2+0xc>
 c000eba:	f8417097          	auipc	ra,0xf8417
 c000ebe:	1e6080e7          	jalr	486(ra) # 44180a0 <p_rom_api_image_crc>
 c000ec2:	4410                	lw	a2,8(s0)
 c000ec4:	0005059b          	sext.w	a1,a0
 c000ec8:	00b60963          	beq	a2,a1,c000eda <load_param2+0x9a>
 c000ecc:	00007517          	auipc	a0,0x7
 c000ed0:	81450513          	addi	a0,a0,-2028 # c0076e0 <version_string+0x288>
 c000ed4:	c5eff0ef          	jal	ra,c000332 <tf_printf>
 c000ed8:	b7f1                	j	c000ea4 <load_param2+0x64>
 c000eda:	00007517          	auipc	a0,0x7
 c000ede:	82650513          	addi	a0,a0,-2010 # c007700 <version_string+0x2a8>
 c000ee2:	c50ff0ef          	jal	ra,c000332 <tf_printf>
 c000ee6:	4501                	li	a0,0
 c000ee8:	bf7d                	j	c000ea6 <load_param2+0x66>

000000000c000eea <load_ddr_param>:
 c000eea:	1101                	addi	sp,sp,-32
 c000eec:	e822                	sd	s0,16(sp)
 c000eee:	00009417          	auipc	s0,0x9
 c000ef2:	31240413          	addi	s0,s0,786 # c00a200 <fip_param2>
 c000ef6:	4c10                	lw	a2,24(s0)
 c000ef8:	484c                	lw	a1,20(s0)
 c000efa:	e42a                	sd	a0,8(sp)
 c000efc:	00007517          	auipc	a0,0x7
 c000f00:	80c50513          	addi	a0,a0,-2036 # c007708 <version_string+0x2b0>
 c000f04:	ec06                	sd	ra,24(sp)
 c000f06:	c2cff0ef          	jal	ra,c000332 <tf_printf>
 c000f0a:	4c18                	lw	a4,24(s0)
 c000f0c:	6791                	lui	a5,0x4
 c000f0e:	66a2                	ld	a3,8(sp)
 c000f10:	00f76363          	bltu	a4,a5,c000f16 <load_ddr_param+0x2c>
 c000f14:	cc1c                	sw	a5,24(s0)
 c000f16:	01846603          	lwu	a2,24(s0)
 c000f1a:	484c                	lw	a1,20(s0)
 c000f1c:	0000a517          	auipc	a0,0xa
 c000f20:	2e450513          	addi	a0,a0,740 # c00b200 <sram_union_buf>
 c000f24:	f8417097          	auipc	ra,0xf8417
 c000f28:	13c080e7          	jalr	316(ra) # 4418060 <p_rom_api_load_image>
 c000f2c:	02054763          	bltz	a0,c000f5a <load_ddr_param+0x70>
 c000f30:	4c0c                	lw	a1,24(s0)
 c000f32:	0000a517          	auipc	a0,0xa
 c000f36:	2ce50513          	addi	a0,a0,718 # c00b200 <sram_union_buf>
 c000f3a:	f8417097          	auipc	ra,0xf8417
 c000f3e:	166080e7          	jalr	358(ra) # 44180a0 <p_rom_api_image_crc>
 c000f42:	4810                	lw	a2,16(s0)
 c000f44:	0005059b          	sext.w	a1,a0
 c000f48:	00c58d63          	beq	a1,a2,c000f62 <load_ddr_param+0x78>
 c000f4c:	00006517          	auipc	a0,0x6
 c000f50:	7d450513          	addi	a0,a0,2004 # c007720 <version_string+0x2c8>
 c000f54:	bdeff0ef          	jal	ra,c000332 <tf_printf>
 c000f58:	557d                	li	a0,-1
 c000f5a:	60e2                	ld	ra,24(sp)
 c000f5c:	6442                	ld	s0,16(sp)
 c000f5e:	6105                	addi	sp,sp,32
 c000f60:	8082                	ret
 c000f62:	00006517          	auipc	a0,0x6
 c000f66:	7e650513          	addi	a0,a0,2022 # c007748 <version_string+0x2f0>
 c000f6a:	bc8ff0ef          	jal	ra,c000332 <tf_printf>
 c000f6e:	4501                	li	a0,0
 c000f70:	b7ed                	j	c000f5a <load_ddr_param+0x70>

000000000c000f72 <load_ddr>:
 c000f72:	7179                	addi	sp,sp,-48
 c000f74:	ec26                	sd	s1,24(sp)
 c000f76:	74cd                	lui	s1,0xffff3
 c000f78:	e84a                	sd	s2,16(sp)
 c000f7a:	e44e                	sd	s3,8(sp)
 c000f7c:	e052                	sd	s4,0(sp)
 c000f7e:	f406                	sd	ra,40(sp)
 c000f80:	f022                	sd	s0,32(sp)
 c000f82:	1604849b          	addiw	s1,s1,352
 c000f86:	4995                	li	s3,5
 c000f88:	4a05                	li	s4,1
 c000f8a:	00006917          	auipc	s2,0x6
 c000f8e:	7c690913          	addi	s2,s2,1990 # c007750 <version_string+0x2f8>
 c000f92:	4401                	li	s0,0
 c000f94:	f8417097          	auipc	ra,0xf8417
 c000f98:	12c080e7          	jalr	300(ra) # 44180c0 <p_rom_api_get_number_of_retries>
 c000f9c:	00a45e63          	bge	s0,a0,c000fb8 <load_ddr+0x46>
 c000fa0:	8522                	mv	a0,s0
 c000fa2:	e9fff0ef          	jal	ra,c000e40 <load_param2>
 c000fa6:	00055463          	bgez	a0,c000fae <load_ddr+0x3c>
 c000faa:	2405                	addiw	s0,s0,1
 c000fac:	b7e5                	j	c000f94 <load_ddr+0x22>
 c000fae:	8522                	mv	a0,s0
 c000fb0:	f3bff0ef          	jal	ra,c000eea <load_ddr_param>
 c000fb4:	fe054be3          	bltz	a0,c000faa <load_ddr+0x38>
 c000fb8:	f8417097          	auipc	ra,0xf8417
 c000fbc:	108080e7          	jalr	264(ra) # 44180c0 <p_rom_api_get_number_of_retries>
 c000fc0:	02a45f63          	bge	s0,a0,c000ffe <load_ddr+0x8c>
 c000fc4:	dd7ff0ef          	jal	ra,c000d9a <read_time_ms>
 c000fc8:	00007417          	auipc	s0,0x7
 c000fcc:	ff040413          	addi	s0,s0,-16 # c007fb8 <time_records>
 c000fd0:	601c                	ld	a5,0(s0)
 c000fd2:	00a79123          	sh	a0,2(a5) # 4002 <__BSS_SIZE__-0x106e>
 c000fd6:	0000a517          	auipc	a0,0xa
 c000fda:	22a50513          	addi	a0,a0,554 # c00b200 <sram_union_buf>
 c000fde:	33c040ef          	jal	ra,c00531a <ddr_init>
 c000fe2:	db9ff0ef          	jal	ra,c000d9a <read_time_ms>
 c000fe6:	601c                	ld	a5,0(s0)
 c000fe8:	70a2                	ld	ra,40(sp)
 c000fea:	7402                	ld	s0,32(sp)
 c000fec:	00a79223          	sh	a0,4(a5)
 c000ff0:	64e2                	ld	s1,24(sp)
 c000ff2:	6942                	ld	s2,16(sp)
 c000ff4:	69a2                	ld	s3,8(sp)
 c000ff6:	6a02                	ld	s4,0(sp)
 c000ff8:	4501                	li	a0,0
 c000ffa:	6145                	addi	sp,sp,48
 c000ffc:	8082                	ret
 c000ffe:	f8417097          	auipc	ra,0xf8417
 c001002:	022080e7          	jalr	34(ra) # 4418020 <p_rom_api_get_boot_src>
 c001006:	9d25                	addw	a0,a0,s1
 c001008:	85a2                	mv	a1,s0
 c00100a:	00a9ef63          	bltu	s3,a0,c001028 <load_ddr+0xb6>
 c00100e:	00aa1533          	sll	a0,s4,a0
 c001012:	02957513          	andi	a0,a0,41
 c001016:	c909                	beqz	a0,c001028 <load_ddr+0xb6>
 c001018:	854a                	mv	a0,s2
 c00101a:	b18ff0ef          	jal	ra,c000332 <tf_printf>
 c00101e:	f8417097          	auipc	ra,0xf8417
 c001022:	062080e7          	jalr	98(ra) # 4418080 <p_rom_api_flash_init>
 c001026:	b7b5                	j	c000f92 <load_ddr+0x20>
 c001028:	00006517          	auipc	a0,0x6
 c00102c:	75050513          	addi	a0,a0,1872 # c007778 <version_string+0x320>
 c001030:	b02ff0ef          	jal	ra,c000332 <tf_printf>
 c001034:	d5aff0ef          	jal	ra,c00058e <panic_handler>

000000000c001038 <load_blcp_2nd>:
 c001038:	7179                	addi	sp,sp,-48
 c00103a:	e44e                	sd	s3,8(sp)
 c00103c:	00007997          	auipc	s3,0x7
 c001040:	f7c98993          	addi	s3,s3,-132 # c007fb8 <time_records>
 c001044:	0009b783          	ld	a5,0(s3)
 c001048:	f022                	sd	s0,32(sp)
 c00104a:	00009417          	auipc	s0,0x9
 c00104e:	1b640413          	addi	s0,s0,438 # c00a200 <fip_param2>
 c001052:	0047d703          	lhu	a4,4(a5)
 c001056:	5414                	lw	a3,40(s0)
 c001058:	5450                	lw	a2,44(s0)
 c00105a:	504c                	lw	a1,36(s0)
 c00105c:	ec26                	sd	s1,24(sp)
 c00105e:	f406                	sd	ra,40(sp)
 c001060:	e84a                	sd	s2,16(sp)
 c001062:	84aa                	mv	s1,a0
 c001064:	00e79323          	sh	a4,6(a5)
 c001068:	00006517          	auipc	a0,0x6
 c00106c:	73850513          	addi	a0,a0,1848 # c0077a0 <version_string+0x348>
 c001070:	ac2ff0ef          	jal	ra,c000332 <tf_printf>
 c001074:	5448                	lw	a0,44(s0)
 c001076:	e909                	bnez	a0,c001088 <load_blcp_2nd+0x50>
 c001078:	00006517          	auipc	a0,0x6
 c00107c:	74050513          	addi	a0,a0,1856 # c0077b8 <version_string+0x360>
 c001080:	ab2ff0ef          	jal	ra,c000332 <tf_printf>
 c001084:	4481                	li	s1,0
 c001086:	a8ad                	j	c001100 <load_blcp_2nd+0xc8>
 c001088:	800006b7          	lui	a3,0x80000
 c00108c:	00a687bb          	addw	a5,a3,a0
 c001090:	20000737          	lui	a4,0x20000
 c001094:	00e7eb63          	bltu	a5,a4,c0010aa <load_blcp_2nd+0x72>
 c001098:	85aa                	mv	a1,a0
 c00109a:	00006517          	auipc	a0,0x6
 c00109e:	73650513          	addi	a0,a0,1846 # c0077d0 <version_string+0x378>
 c0010a2:	a90ff0ef          	jal	ra,c000332 <tf_printf>
 c0010a6:	ce8ff0ef          	jal	ra,c00058e <panic_handler>
 c0010aa:	540c                	lw	a1,40(s0)
 c0010ac:	00b507bb          	addw	a5,a0,a1
 c0010b0:	9fb5                	addw	a5,a5,a3
 c0010b2:	00e7e763          	bltu	a5,a4,c0010c0 <load_blcp_2nd+0x88>
 c0010b6:	00006517          	auipc	a0,0x6
 c0010ba:	74a50513          	addi	a0,a0,1866 # c007800 <version_string+0x3a8>
 c0010be:	b7d5                	j	c0010a2 <load_blcp_2nd+0x6a>
 c0010c0:	7c05b60b          	extu	a2,a1,31,0
 c0010c4:	504c                	lw	a1,36(s0)
 c0010c6:	86a6                	mv	a3,s1
 c0010c8:	7c05350b          	extu	a0,a0,31,0
 c0010cc:	f8417097          	auipc	ra,0xf8417
 c0010d0:	f94080e7          	jalr	-108(ra) # 4418060 <p_rom_api_load_image>
 c0010d4:	84aa                	mv	s1,a0
 c0010d6:	02054563          	bltz	a0,c001100 <load_blcp_2nd+0xc8>
 c0010da:	540c                	lw	a1,40(s0)
 c0010dc:	02c46503          	lwu	a0,44(s0)
 c0010e0:	f8417097          	auipc	ra,0xf8417
 c0010e4:	fc0080e7          	jalr	-64(ra) # 44180a0 <p_rom_api_image_crc>
 c0010e8:	5010                	lw	a2,32(s0)
 c0010ea:	0005059b          	sext.w	a1,a0
 c0010ee:	02b60163          	beq	a2,a1,c001110 <load_blcp_2nd+0xd8>
 c0010f2:	00006517          	auipc	a0,0x6
 c0010f6:	73e50513          	addi	a0,a0,1854 # c007830 <version_string+0x3d8>
 c0010fa:	a38ff0ef          	jal	ra,c000332 <tf_printf>
 c0010fe:	54fd                	li	s1,-1
 c001100:	70a2                	ld	ra,40(sp)
 c001102:	7402                	ld	s0,32(sp)
 c001104:	6942                	ld	s2,16(sp)
 c001106:	69a2                	ld	s3,8(sp)
 c001108:	8526                	mv	a0,s1
 c00110a:	64e2                	ld	s1,24(sp)
 c00110c:	6145                	addi	sp,sp,48
 c00110e:	8082                	ret
 c001110:	00007697          	auipc	a3,0x7
 c001114:	ea06b683          	ld	a3,-352(a3) # c007fb0 <__RO_END__>
 c001118:	02846583          	lwu	a1,40(s0)
 c00111c:	02c46503          	lwu	a0,44(s0)
 c001120:	4601                	li	a2,0
 c001122:	0fc040ef          	jal	ra,c00521e <dec_verify_image>
 c001126:	84aa                	mv	s1,a0
 c001128:	00055a63          	bgez	a0,c00113c <load_blcp_2nd+0x104>
 c00112c:	85aa                	mv	a1,a0
 c00112e:	00006517          	auipc	a0,0x6
 c001132:	72a50513          	addi	a0,a0,1834 # c007858 <version_string+0x400>
 c001136:	9fcff0ef          	jal	ra,c000332 <tf_printf>
 c00113a:	b7d9                	j	c001100 <load_blcp_2nd+0xc8>
 c00113c:	02846583          	lwu	a1,40(s0)
 c001140:	02c46503          	lwu	a0,44(s0)
 c001144:	0e000937          	lui	s2,0xe000
 c001148:	80eff0ef          	jal	ra,c000156 <flush_dcache_range>
 c00114c:	4501                	li	a0,0
 c00114e:	07c92483          	lw	s1,124(s2) # e00007c <__BL2_END__+0x1ff0e0c>
 c001152:	c63ff0ef          	jal	ra,c000db4 <init_comm_info>
 c001156:	c45ff0ef          	jal	ra,c000d9a <read_time_ms>
 c00115a:	0009b783          	ld	a5,0(s3)
 c00115e:	00a79323          	sh	a0,6(a5)
 c001162:	0abc17b7          	lui	a5,0xabc1
 c001166:	def78793          	addi	a5,a5,-529 # abc0def <p_rom_api_cryptodma_aes_decrypt+0x67a8cef>
 c00116a:	00f49a63          	bne	s1,a5,c00117e <load_blcp_2nd+0x146>
 c00116e:	545c                	lw	a5,44(s0)
 c001170:	06f92e23          	sw	a5,124(s2)
 c001174:	00006517          	auipc	a0,0x6
 c001178:	70450513          	addi	a0,a0,1796 # c007878 <version_string+0x420>
 c00117c:	b711                	j	c001080 <load_blcp_2nd+0x48>
 c00117e:	02c46503          	lwu	a0,44(s0)
 c001182:	c3eff0ef          	jal	ra,c0005c0 <reset_c906l>
 c001186:	b7fd                	j	c001174 <load_blcp_2nd+0x13c>

000000000c001188 <load_monitor>:
 c001188:	1101                	addi	sp,sp,-32
 c00118a:	e822                	sd	s0,16(sp)
 c00118c:	00009417          	auipc	s0,0x9
 c001190:	07440413          	addi	s0,s0,116 # c00a200 <fip_param2>
 c001194:	e04a                	sd	s2,0(sp)
 c001196:	5c14                	lw	a3,56(s0)
 c001198:	5c50                	lw	a2,60(s0)
 c00119a:	892e                	mv	s2,a1
 c00119c:	584c                	lw	a1,52(s0)
 c00119e:	e426                	sd	s1,8(sp)
 c0011a0:	84aa                	mv	s1,a0
 c0011a2:	00006517          	auipc	a0,0x6
 c0011a6:	6de50513          	addi	a0,a0,1758 # c007880 <version_string+0x428>
 c0011aa:	ec06                	sd	ra,24(sp)
 c0011ac:	986ff0ef          	jal	ra,c000332 <tf_printf>
 c0011b0:	5c48                	lw	a0,60(s0)
 c0011b2:	e909                	bnez	a0,c0011c4 <load_monitor+0x3c>
 c0011b4:	00006517          	auipc	a0,0x6
 c0011b8:	6e450513          	addi	a0,a0,1764 # c007898 <version_string+0x440>
 c0011bc:	976ff0ef          	jal	ra,c000332 <tf_printf>
 c0011c0:	4481                	li	s1,0
 c0011c2:	a8ad                	j	c00123c <load_monitor+0xb4>
 c0011c4:	800006b7          	lui	a3,0x80000
 c0011c8:	00a687bb          	addw	a5,a3,a0
 c0011cc:	20000737          	lui	a4,0x20000
 c0011d0:	00e7eb63          	bltu	a5,a4,c0011e6 <load_monitor+0x5e>
 c0011d4:	85aa                	mv	a1,a0
 c0011d6:	00006517          	auipc	a0,0x6
 c0011da:	6d250513          	addi	a0,a0,1746 # c0078a8 <version_string+0x450>
 c0011de:	954ff0ef          	jal	ra,c000332 <tf_printf>
 c0011e2:	bacff0ef          	jal	ra,c00058e <panic_handler>
 c0011e6:	5c0c                	lw	a1,56(s0)
 c0011e8:	00b507bb          	addw	a5,a0,a1
 c0011ec:	9fb5                	addw	a5,a5,a3
 c0011ee:	00e7e763          	bltu	a5,a4,c0011fc <load_monitor+0x74>
 c0011f2:	00006517          	auipc	a0,0x6
 c0011f6:	6e650513          	addi	a0,a0,1766 # c0078d8 <version_string+0x480>
 c0011fa:	b7d5                	j	c0011de <load_monitor+0x56>
 c0011fc:	7c05b60b          	extu	a2,a1,31,0
 c001200:	584c                	lw	a1,52(s0)
 c001202:	86a6                	mv	a3,s1
 c001204:	7c05350b          	extu	a0,a0,31,0
 c001208:	f8417097          	auipc	ra,0xf8417
 c00120c:	e58080e7          	jalr	-424(ra) # 4418060 <p_rom_api_load_image>
 c001210:	84aa                	mv	s1,a0
 c001212:	02054563          	bltz	a0,c00123c <load_monitor+0xb4>
 c001216:	5c0c                	lw	a1,56(s0)
 c001218:	03c46503          	lwu	a0,60(s0)
 c00121c:	f8417097          	auipc	ra,0xf8417
 c001220:	e84080e7          	jalr	-380(ra) # 44180a0 <p_rom_api_image_crc>
 c001224:	5810                	lw	a2,48(s0)
 c001226:	0005059b          	sext.w	a1,a0
 c00122a:	02b60063          	beq	a2,a1,c00124a <load_monitor+0xc2>
 c00122e:	00006517          	auipc	a0,0x6
 c001232:	6da50513          	addi	a0,a0,1754 # c007908 <version_string+0x4b0>
 c001236:	8fcff0ef          	jal	ra,c000332 <tf_printf>
 c00123a:	54fd                	li	s1,-1
 c00123c:	60e2                	ld	ra,24(sp)
 c00123e:	6442                	ld	s0,16(sp)
 c001240:	6902                	ld	s2,0(sp)
 c001242:	8526                	mv	a0,s1
 c001244:	64a2                	ld	s1,8(sp)
 c001246:	6105                	addi	sp,sp,32
 c001248:	8082                	ret
 c00124a:	00007697          	auipc	a3,0x7
 c00124e:	d666b683          	ld	a3,-666(a3) # c007fb0 <__RO_END__>
 c001252:	03846583          	lwu	a1,56(s0)
 c001256:	03c46503          	lwu	a0,60(s0)
 c00125a:	4601                	li	a2,0
 c00125c:	7c3030ef          	jal	ra,c00521e <dec_verify_image>
 c001260:	84aa                	mv	s1,a0
 c001262:	00055a63          	bgez	a0,c001276 <load_monitor+0xee>
 c001266:	85aa                	mv	a1,a0
 c001268:	00006517          	auipc	a0,0x6
 c00126c:	6c050513          	addi	a0,a0,1728 # c007928 <version_string+0x4d0>
 c001270:	8c2ff0ef          	jal	ra,c000332 <tf_printf>
 c001274:	b7e1                	j	c00123c <load_monitor+0xb4>
 c001276:	03846583          	lwu	a1,56(s0)
 c00127a:	03c46503          	lwu	a0,60(s0)
 c00127e:	ed9fe0ef          	jal	ra,c000156 <flush_dcache_range>
 c001282:	00006517          	auipc	a0,0x6
 c001286:	6c650513          	addi	a0,a0,1734 # c007948 <version_string+0x4f0>
 c00128a:	8a8ff0ef          	jal	ra,c000332 <tf_printf>
 c00128e:	03c46783          	lwu	a5,60(s0)
 c001292:	00f93023          	sd	a5,0(s2)
 c001296:	b72d                	j	c0011c0 <load_monitor+0x38>

000000000c001298 <load_loader_2nd>:
 c001298:	715d                	addi	sp,sp,-80
 c00129a:	f84a                	sd	s2,48(sp)
 c00129c:	00009917          	auipc	s2,0x9
 c0012a0:	f6490913          	addi	s2,s2,-156 # c00a200 <fip_param2>
 c0012a4:	ec56                	sd	s5,24(sp)
 c0012a6:	8aae                	mv	s5,a1
 c0012a8:	04492583          	lw	a1,68(s2)
 c0012ac:	e85a                	sd	s6,16(sp)
 c0012ae:	8b2a                	mv	s6,a0
 c0012b0:	00006517          	auipc	a0,0x6
 c0012b4:	6a050513          	addi	a0,a0,1696 # c007950 <version_string+0x4f8>
 c0012b8:	e486                	sd	ra,72(sp)
 c0012ba:	e0a2                	sd	s0,64(sp)
 c0012bc:	fc26                	sd	s1,56(sp)
 c0012be:	f44e                	sd	s3,40(sp)
 c0012c0:	f052                	sd	s4,32(sp)
 c0012c2:	870ff0ef          	jal	ra,c000332 <tf_printf>
 c0012c6:	04492583          	lw	a1,68(s2)
 c0012ca:	86da                	mv	a3,s6
 c0012cc:	20000613          	li	a2,512
 c0012d0:	0000a517          	auipc	a0,0xa
 c0012d4:	f3050513          	addi	a0,a0,-208 # c00b200 <sram_union_buf>
 c0012d8:	f8417097          	auipc	ra,0xf8417
 c0012dc:	d88080e7          	jalr	-632(ra) # 4418060 <p_rom_api_load_image>
 c0012e0:	00055e63          	bgez	a0,c0012fc <load_loader_2nd+0x64>
 c0012e4:	597d                	li	s2,-1
 c0012e6:	60a6                	ld	ra,72(sp)
 c0012e8:	6406                	ld	s0,64(sp)
 c0012ea:	74e2                	ld	s1,56(sp)
 c0012ec:	79a2                	ld	s3,40(sp)
 c0012ee:	7a02                	ld	s4,32(sp)
 c0012f0:	6ae2                	ld	s5,24(sp)
 c0012f2:	6b42                	ld	s6,16(sp)
 c0012f4:	854a                	mv	a0,s2
 c0012f6:	7942                	ld	s2,48(sp)
 c0012f8:	6161                	addi	sp,sp,80
 c0012fa:	8082                	ret
 c0012fc:	0000a417          	auipc	s0,0xa
 c001300:	f0440413          	addi	s0,s0,-252 # c00b200 <sram_union_buf>
 c001304:	4458                	lw	a4,12(s0)
 c001306:	6814                	ld	a3,16(s0)
 c001308:	4410                	lw	a2,8(s0)
 c00130a:	1ff7049b          	addiw	s1,a4,511
 c00130e:	404c                	lw	a1,4(s0)
 c001310:	e004f493          	andi	s1,s1,-512
 c001314:	2481                	sext.w	s1,s1
 c001316:	87a6                	mv	a5,s1
 c001318:	00006517          	auipc	a0,0x6
 c00131c:	64850513          	addi	a0,a0,1608 # c007960 <version_string+0x508>
 c001320:	812ff0ef          	jal	ra,c000332 <tf_printf>
 c001324:	4058                	lw	a4,4(s0)
 c001326:	345a37b7          	lui	a5,0x345a3
 c00132a:	34278793          	addi	a5,a5,834 # 345a3342 <__BL2_END__+0x285940d2>
 c00132e:	04f70b63          	beq	a4,a5,c001384 <load_loader_2nd+0xec>
 c001332:	414d37b7          	lui	a5,0x414d3
 c001336:	34278793          	addi	a5,a5,834 # 414d3342 <__BL2_END__+0x354c40d2>
 c00133a:	06f70163          	beq	a4,a5,c00139c <load_loader_2nd+0x104>
 c00133e:	01043983          	ld	s3,16(s0)
 c001342:	4a01                	li	s4,0
 c001344:	04492583          	lw	a1,68(s2)
 c001348:	86da                	mv	a3,s6
 c00134a:	8626                	mv	a2,s1
 c00134c:	854e                	mv	a0,s3
 c00134e:	f8417097          	auipc	ra,0xf8417
 c001352:	d12080e7          	jalr	-750(ra) # 4418060 <p_rom_api_load_image>
 c001356:	f80547e3          	bltz	a0,c0012e4 <load_loader_2nd+0x4c>
 c00135a:	444c                	lw	a1,12(s0)
 c00135c:	00c98913          	addi	s2,s3,12
 c001360:	854a                	mv	a0,s2
 c001362:	35d1                	addiw	a1,a1,-12
 c001364:	f8417097          	auipc	ra,0xf8417
 c001368:	d3c080e7          	jalr	-708(ra) # 44180a0 <p_rom_api_image_crc>
 c00136c:	4410                	lw	a2,8(s0)
 c00136e:	0005059b          	sext.w	a1,a0
 c001372:	02b60763          	beq	a2,a1,c0013a0 <load_loader_2nd+0x108>
 c001376:	00006517          	auipc	a0,0x6
 c00137a:	61a50513          	addi	a0,a0,1562 # c007990 <version_string+0x538>
 c00137e:	fb5fe0ef          	jal	ra,c000332 <tf_printf>
 c001382:	b78d                	j	c0012e4 <load_loader_2nd+0x4c>
 c001384:	4a09                	li	s4,2
 c001386:	85d2                	mv	a1,s4
 c001388:	00006517          	auipc	a0,0x6
 c00138c:	5f850513          	addi	a0,a0,1528 # c007980 <version_string+0x528>
 c001390:	008199b7          	lui	s3,0x819
 c001394:	f9ffe0ef          	jal	ra,c000332 <tf_printf>
 c001398:	09a2                	slli	s3,s3,0x8
 c00139a:	b76d                	j	c001344 <load_loader_2nd+0xac>
 c00139c:	4a05                	li	s4,1
 c00139e:	b7e5                	j	c001386 <load_loader_2nd+0xee>
 c0013a0:	444c                	lw	a1,12(s0)
 c0013a2:	00007697          	auipc	a3,0x7
 c0013a6:	c0e6b683          	ld	a3,-1010(a3) # c007fb0 <__RO_END__>
 c0013aa:	854a                	mv	a0,s2
 c0013ac:	35d1                	addiw	a1,a1,-12
 c0013ae:	4651                	li	a2,20
 c0013b0:	7c05b58b          	extu	a1,a1,31,0
 c0013b4:	66b030ef          	jal	ra,c00521e <dec_verify_image>
 c0013b8:	892a                	mv	s2,a0
 c0013ba:	00055a63          	bgez	a0,c0013ce <load_loader_2nd+0x136>
 c0013be:	85aa                	mv	a1,a0
 c0013c0:	00006517          	auipc	a0,0x6
 c0013c4:	5f850513          	addi	a0,a0,1528 # c0079b8 <version_string+0x560>
 c0013c8:	f6bfe0ef          	jal	ra,c000332 <tf_printf>
 c0013cc:	bf29                	j	c0012e6 <load_loader_2nd+0x4e>
 c0013ce:	9cdff0ef          	jal	ra,c000d9a <read_time_ms>
 c0013d2:	00007917          	auipc	s2,0x7
 c0013d6:	be690913          	addi	s2,s2,-1050 # c007fb8 <time_records>
 c0013da:	00093783          	ld	a5,0(s2)
 c0013de:	00a79423          	sh	a0,8(a5)
 c0013e2:	aa4ff0ef          	jal	ra,c000686 <sys_switch_all_to_pll>
 c0013e6:	9b5ff0ef          	jal	ra,c000d9a <read_time_ms>
 c0013ea:	00093783          	ld	a5,0(s2)
 c0013ee:	00a79523          	sh	a0,10(a5)
 c0013f2:	040a0363          	beqz	s4,c001438 <load_loader_2nd+0x1a0>
 c0013f6:	6804                	ld	s1,16(s0)
 c0013f8:	010007b7          	lui	a5,0x1000
 c0013fc:	02000613          	li	a2,32
 c001400:	85ce                	mv	a1,s3
 c001402:	8526                	mv	a0,s1
 c001404:	e43e                	sd	a5,8(sp)
 c001406:	8c3ff0ef          	jal	ra,c000cc8 <memcpy>
 c00140a:	00c46683          	lwu	a3,12(s0)
 c00140e:	02098613          	addi	a2,s3,32 # 819020 <__BSS_SIZE__+0x813fb0>
 c001412:	002c                	addi	a1,sp,8
 c001414:	02048513          	addi	a0,s1,32 # ffffffffffff3020 <__BL2_END__+0xfffffffff3fe3db0>
 c001418:	8752                	mv	a4,s4
 c00141a:	33c000ef          	jal	ra,c001756 <decompress>
 c00141e:	6622                	ld	a2,8(sp)
 c001420:	85aa                	mv	a1,a0
 c001422:	0006049b          	sext.w	s1,a2
 c001426:	00055963          	bgez	a0,c001438 <load_loader_2nd+0x1a0>
 c00142a:	00006517          	auipc	a0,0x6
 c00142e:	5ae50513          	addi	a0,a0,1454 # c0079d8 <version_string+0x580>
 c001432:	f01fe0ef          	jal	ra,c000332 <tf_printf>
 c001436:	b57d                	j	c0012e4 <load_loader_2nd+0x4c>
 c001438:	6808                	ld	a0,16(s0)
 c00143a:	85a6                	mv	a1,s1
 c00143c:	d1bfe0ef          	jal	ra,c000156 <flush_dcache_range>
 c001440:	95bff0ef          	jal	ra,c000d9a <read_time_ms>
 c001444:	00093783          	ld	a5,0(s2)
 c001448:	4901                	li	s2,0
 c00144a:	00a79623          	sh	a0,12(a5) # 100000c <__BSS_SIZE__+0xffaf9c>
 c00144e:	00006517          	auipc	a0,0x6
 c001452:	5ba50513          	addi	a0,a0,1466 # c007a08 <version_string+0x5b0>
 c001456:	eddfe0ef          	jal	ra,c000332 <tf_printf>
 c00145a:	681c                	ld	a5,16(s0)
 c00145c:	02078793          	addi	a5,a5,32
 c001460:	00fab023          	sd	a5,0(s5)
 c001464:	b549                	j	c0012e6 <load_loader_2nd+0x4e>

000000000c001466 <load_rest>:
 c001466:	7179                	addi	sp,sp,-48
 c001468:	ec26                	sd	s1,24(sp)
 c00146a:	74cd                	lui	s1,0xffff3
 c00146c:	e84a                	sd	s2,16(sp)
 c00146e:	f406                	sd	ra,40(sp)
 c001470:	f022                	sd	s0,32(sp)
 c001472:	e002                	sd	zero,0(sp)
 c001474:	e402                	sd	zero,8(sp)
 c001476:	1604849b          	addiw	s1,s1,352
 c00147a:	d6aff0ef          	jal	ra,c0009e4 <sys_pll_init>
 c00147e:	4915                	li	s2,5
 c001480:	4401                	li	s0,0
 c001482:	f8417097          	auipc	ra,0xf8417
 c001486:	c3e080e7          	jalr	-962(ra) # 44180c0 <p_rom_api_get_number_of_retries>
 c00148a:	02a45563          	bge	s0,a0,c0014b4 <load_rest+0x4e>
 c00148e:	8522                	mv	a0,s0
 c001490:	ba9ff0ef          	jal	ra,c001038 <load_blcp_2nd>
 c001494:	00055463          	bgez	a0,c00149c <load_rest+0x36>
 c001498:	2405                	addiw	s0,s0,1
 c00149a:	b7e5                	j	c001482 <load_rest+0x1c>
 c00149c:	858a                	mv	a1,sp
 c00149e:	8522                	mv	a0,s0
 c0014a0:	ce9ff0ef          	jal	ra,c001188 <load_monitor>
 c0014a4:	fe054ae3          	bltz	a0,c001498 <load_rest+0x32>
 c0014a8:	002c                	addi	a1,sp,8
 c0014aa:	8522                	mv	a0,s0
 c0014ac:	dedff0ef          	jal	ra,c001298 <load_loader_2nd>
 c0014b0:	fe0544e3          	bltz	a0,c001498 <load_rest+0x32>
 c0014b4:	f8417097          	auipc	ra,0xf8417
 c0014b8:	c0c080e7          	jalr	-1012(ra) # 44180c0 <p_rom_api_get_number_of_retries>
 c0014bc:	02a45b63          	bge	s0,a0,c0014f2 <load_rest+0x8c>
 c0014c0:	c8dfe0ef          	jal	ra,c00014c <sync_cache>
 c0014c4:	dd9fe0ef          	jal	ra,c00029c <console_flush>
 c0014c8:	dbaff0ef          	jal	ra,c000a82 <switch_rtc_mode_2nd_stage>
 c0014cc:	6582                	ld	a1,0(sp)
 c0014ce:	c5a5                	beqz	a1,c001536 <load_rest+0xd0>
 c0014d0:	00006517          	auipc	a0,0x6
 c0014d4:	57050513          	addi	a0,a0,1392 # c007a40 <version_string+0x5e8>
 c0014d8:	e5bfe0ef          	jal	ra,c000332 <tf_printf>
 c0014dc:	65a2                	ld	a1,8(sp)
 c0014de:	6502                	ld	a0,0(sp)
 c0014e0:	cddfe0ef          	jal	ra,c0001bc <jump_to_monitor>
 c0014e4:	70a2                	ld	ra,40(sp)
 c0014e6:	7402                	ld	s0,32(sp)
 c0014e8:	64e2                	ld	s1,24(sp)
 c0014ea:	6942                	ld	s2,16(sp)
 c0014ec:	4501                	li	a0,0
 c0014ee:	6145                	addi	sp,sp,48
 c0014f0:	8082                	ret
 c0014f2:	f8417097          	auipc	ra,0xf8417
 c0014f6:	b2e080e7          	jalr	-1234(ra) # 4418020 <p_rom_api_get_boot_src>
 c0014fa:	00a487bb          	addw	a5,s1,a0
 c0014fe:	85a2                	mv	a1,s0
 c001500:	02f96363          	bltu	s2,a5,c001526 <load_rest+0xc0>
 c001504:	4505                	li	a0,1
 c001506:	00f51533          	sll	a0,a0,a5
 c00150a:	02957513          	andi	a0,a0,41
 c00150e:	cd01                	beqz	a0,c001526 <load_rest+0xc0>
 c001510:	00006517          	auipc	a0,0x6
 c001514:	24050513          	addi	a0,a0,576 # c007750 <version_string+0x2f8>
 c001518:	e1bfe0ef          	jal	ra,c000332 <tf_printf>
 c00151c:	f8417097          	auipc	ra,0xf8417
 c001520:	b64080e7          	jalr	-1180(ra) # 4418080 <p_rom_api_flash_init>
 c001524:	bfb1                	j	c001480 <load_rest+0x1a>
 c001526:	00006517          	auipc	a0,0x6
 c00152a:	4fa50513          	addi	a0,a0,1274 # c007a20 <version_string+0x5c8>
 c00152e:	e05fe0ef          	jal	ra,c000332 <tf_printf>
 c001532:	85cff0ef          	jal	ra,c00058e <panic_handler>
 c001536:	65a2                	ld	a1,8(sp)
 c001538:	00006517          	auipc	a0,0x6
 c00153c:	52850513          	addi	a0,a0,1320 # c007a60 <version_string+0x608>
 c001540:	df3fe0ef          	jal	ra,c000332 <tf_printf>
 c001544:	6522                	ld	a0,8(sp)
 c001546:	ceffe0ef          	jal	ra,c000234 <jump_to_loader_2nd>
 c00154a:	bf69                	j	c0014e4 <load_rest+0x7e>

000000000c00154c <SzFree>:
 c00154c:	8082                	ret

000000000c00154e <SzAlloc>:
 c00154e:	0000e797          	auipc	a5,0xe
 c001552:	ce278793          	addi	a5,a5,-798 # c00f230 <comp_alloc_buf>
 c001556:	6388                	ld	a0,0(a5)
 c001558:	00b50733          	add	a4,a0,a1
 c00155c:	e398                	sd	a4,0(a5)
 c00155e:	0000e797          	auipc	a5,0xe
 c001562:	cda7b783          	ld	a5,-806(a5) # c00f238 <comp_alloc_size>
 c001566:	97ba                	add	a5,a5,a4
 c001568:	02f76363          	bltu	a4,a5,c00158e <SzAlloc+0x40>
 c00156c:	1141                	addi	sp,sp,-16
 c00156e:	862e                	mv	a2,a1
 c001570:	00006517          	auipc	a0,0x6
 c001574:	51850513          	addi	a0,a0,1304 # c007a88 <version_string+0x630>
 c001578:	00006597          	auipc	a1,0x6
 c00157c:	67858593          	addi	a1,a1,1656 # c007bf0 <__func__.0>
 c001580:	e406                	sd	ra,8(sp)
 c001582:	db1fe0ef          	jal	ra,c000332 <tf_printf>
 c001586:	60a2                	ld	ra,8(sp)
 c001588:	4501                	li	a0,0
 c00158a:	0141                	addi	sp,sp,16
 c00158c:	8082                	ret
 c00158e:	8082                	ret

000000000c001590 <decompress_lzma>:
 c001590:	711d                	addi	sp,sp,-96
 c001592:	00000797          	auipc	a5,0x0
 c001596:	fbc78793          	addi	a5,a5,-68 # c00154e <SzAlloc>
 c00159a:	f83e                	sd	a5,48(sp)
 c00159c:	00000797          	auipc	a5,0x0
 c0015a0:	fb078793          	addi	a5,a5,-80 # c00154c <SzFree>
 c0015a4:	ec86                	sd	ra,88(sp)
 c0015a6:	e8a2                	sd	s0,80(sp)
 c0015a8:	e4a6                	sd	s1,72(sp)
 c0015aa:	e0ca                	sd	s2,64(sp)
 c0015ac:	ec36                	sd	a3,24(sp)
 c0015ae:	f402                	sd	zero,40(sp)
 c0015b0:	fc3e                	sd	a5,56(sp)
 c0015b2:	d202                	sw	zero,36(sp)
 c0015b4:	e19d                	bnez	a1,c0015da <decompress_lzma+0x4a>
 c0015b6:	00006597          	auipc	a1,0x6
 c0015ba:	64258593          	addi	a1,a1,1602 # c007bf8 <__func__.1>
 c0015be:	00006517          	auipc	a0,0x6
 c0015c2:	4ea50513          	addi	a0,a0,1258 # c007aa8 <version_string+0x650>
 c0015c6:	d6dfe0ef          	jal	ra,c000332 <tf_printf>
 c0015ca:	5429                	li	s0,-22
 c0015cc:	60e6                	ld	ra,88(sp)
 c0015ce:	8522                	mv	a0,s0
 c0015d0:	6446                	ld	s0,80(sp)
 c0015d2:	64a6                	ld	s1,72(sp)
 c0015d4:	6906                	ld	s2,64(sp)
 c0015d6:	6125                	addi	sp,sp,96
 c0015d8:	8082                	ret
 c0015da:	10300793          	li	a5,259
 c0015de:	07de                	slli	a5,a5,0x17
 c0015e0:	842a                	mv	s0,a0
 c0015e2:	0000e717          	auipc	a4,0xe
 c0015e6:	c4f73723          	sd	a5,-946(a4) # c00f230 <comp_alloc_buf>
 c0015ea:	84ae                	mv	s1,a1
 c0015ec:	001007b7          	lui	a5,0x100
 c0015f0:	85aa                	mv	a1,a0
 c0015f2:	00006517          	auipc	a0,0x6
 c0015f6:	4d650513          	addi	a0,a0,1238 # c007ac8 <version_string+0x670>
 c0015fa:	8932                	mv	s2,a2
 c0015fc:	0000e717          	auipc	a4,0xe
 c001600:	c2f73e23          	sd	a5,-964(a4) # c00f238 <comp_alloc_size>
 c001604:	d2ffe0ef          	jal	ra,c000332 <tf_printf>
 c001608:	67e2                	ld	a5,24(sp)
 c00160a:	4611                	li	a2,4
 c00160c:	00590593          	addi	a1,s2,5
 c001610:	17ed                	addi	a5,a5,-5
 c001612:	1008                	addi	a0,sp,32
 c001614:	ec3e                	sd	a5,24(sp)
 c001616:	eb2ff0ef          	jal	ra,c000cc8 <memcpy>
 c00161a:	67e2                	ld	a5,24(sp)
 c00161c:	02016583          	lwu	a1,32(sp)
 c001620:	00006517          	auipc	a0,0x6
 c001624:	4c050513          	addi	a0,a0,1216 # c007ae0 <version_string+0x688>
 c001628:	17e1                	addi	a5,a5,-8
 c00162a:	f42e                	sd	a1,40(sp)
 c00162c:	ec3e                	sd	a5,24(sp)
 c00162e:	d05fe0ef          	jal	ra,c000332 <tf_printf>
 c001632:	181c                	addi	a5,sp,48
 c001634:	e03e                	sd	a5,0(sp)
 c001636:	8522                	mv	a0,s0
 c001638:	02410893          	addi	a7,sp,36
 c00163c:	4805                	li	a6,1
 c00163e:	4795                	li	a5,5
 c001640:	874a                	mv	a4,s2
 c001642:	0834                	addi	a3,sp,24
 c001644:	00d90613          	addi	a2,s2,13
 c001648:	102c                	addi	a1,sp,40
 c00164a:	62d010ef          	jal	ra,c003476 <LzmaDecode>
 c00164e:	842a                	mv	s0,a0
 c001650:	c919                	beqz	a0,c001666 <decompress_lzma+0xd6>
 c001652:	5612                	lw	a2,36(sp)
 c001654:	85aa                	mv	a1,a0
 c001656:	00006517          	auipc	a0,0x6
 c00165a:	4aa50513          	addi	a0,a0,1194 # c007b00 <version_string+0x6a8>
 c00165e:	cd5fe0ef          	jal	ra,c000332 <tf_printf>
 c001662:	5449                	li	s0,-14
 c001664:	b7a5                	j	c0015cc <decompress_lzma+0x3c>
 c001666:	75a2                	ld	a1,40(sp)
 c001668:	00006517          	auipc	a0,0x6
 c00166c:	4c050513          	addi	a0,a0,1216 # c007b28 <version_string+0x6d0>
 c001670:	e08c                	sd	a1,0(s1)
 c001672:	cc1fe0ef          	jal	ra,c000332 <tf_printf>
 c001676:	bf99                	j	c0015cc <decompress_lzma+0x3c>

000000000c001678 <LZ4_malloc>:
 c001678:	85aa                	mv	a1,a0
 c00167a:	4501                	li	a0,0
 c00167c:	bdc9                	j	c00154e <SzAlloc>

000000000c00167e <LZ4_calloc>:
 c00167e:	02b50633          	mul	a2,a0,a1
 c001682:	1101                	addi	sp,sp,-32
 c001684:	e822                	sd	s0,16(sp)
 c001686:	ec06                	sd	ra,24(sp)
 c001688:	8532                	mv	a0,a2
 c00168a:	e432                	sd	a2,8(sp)
 c00168c:	fedff0ef          	jal	ra,c001678 <LZ4_malloc>
 c001690:	842a                	mv	s0,a0
 c001692:	c509                	beqz	a0,c00169c <LZ4_calloc+0x1e>
 c001694:	6622                	ld	a2,8(sp)
 c001696:	4581                	li	a1,0
 c001698:	dd6ff0ef          	jal	ra,c000c6e <memset>
 c00169c:	60e2                	ld	ra,24(sp)
 c00169e:	8522                	mv	a0,s0
 c0016a0:	6442                	ld	s0,16(sp)
 c0016a2:	6105                	addi	sp,sp,32
 c0016a4:	8082                	ret

000000000c0016a6 <LZ4_free>:
 c0016a6:	8082                	ret

000000000c0016a8 <decompress_lz4>:
 c0016a8:	10300793          	li	a5,259
 c0016ac:	715d                	addi	sp,sp,-80
 c0016ae:	07de                	slli	a5,a5,0x17
 c0016b0:	e0a2                	sd	s0,64(sp)
 c0016b2:	f84a                	sd	s2,48(sp)
 c0016b4:	0000e717          	auipc	a4,0xe
 c0016b8:	b6f73e23          	sd	a5,-1156(a4) # c00f230 <comp_alloc_buf>
 c0016bc:	842a                	mv	s0,a0
 c0016be:	001007b7          	lui	a5,0x100
 c0016c2:	892e                	mv	s2,a1
 c0016c4:	85aa                	mv	a1,a0
 c0016c6:	00006517          	auipc	a0,0x6
 c0016ca:	47a50513          	addi	a0,a0,1146 # c007b40 <version_string+0x6e8>
 c0016ce:	e486                	sd	ra,72(sp)
 c0016d0:	e436                	sd	a3,8(sp)
 c0016d2:	0000e717          	auipc	a4,0xe
 c0016d6:	b6f73323          	sd	a5,-1178(a4) # c00f238 <comp_alloc_size>
 c0016da:	fc26                	sd	s1,56(sp)
 c0016dc:	f44e                	sd	s3,40(sp)
 c0016de:	89b2                	mv	s3,a2
 c0016e0:	c53fe0ef          	jal	ra,c000332 <tf_printf>
 c0016e4:	06400593          	li	a1,100
 c0016e8:	0828                	addi	a0,sp,24
 c0016ea:	3b7020ef          	jal	ra,c0042a0 <LZ4F_createDecompressionContext>
 c0016ee:	84aa                	mv	s1,a0
 c0016f0:	1e5020ef          	jal	ra,c0040d4 <LZ4F_isError>
 c0016f4:	2501                	sext.w	a0,a0
 c0016f6:	c105                	beqz	a0,c001716 <decompress_lz4+0x6e>
 c0016f8:	85a6                	mv	a1,s1
 c0016fa:	00006517          	auipc	a0,0x6
 c0016fe:	45e50513          	addi	a0,a0,1118 # c007b58 <version_string+0x700>
 c001702:	c31fe0ef          	jal	ra,c000332 <tf_printf>
 c001706:	557d                	li	a0,-1
 c001708:	60a6                	ld	ra,72(sp)
 c00170a:	6406                	ld	s0,64(sp)
 c00170c:	74e2                	ld	s1,56(sp)
 c00170e:	7942                	ld	s2,48(sp)
 c001710:	79a2                	ld	s3,40(sp)
 c001712:	6161                	addi	sp,sp,80
 c001714:	8082                	ret
 c001716:	6562                	ld	a0,24(sp)
 c001718:	4781                	li	a5,0
 c00171a:	0038                	addi	a4,sp,8
 c00171c:	85a2                	mv	a1,s0
 c00171e:	86ce                	mv	a3,s3
 c001720:	864a                	mv	a2,s2
 c001722:	3af020ef          	jal	ra,c0042d0 <LZ4F_decompress>
 c001726:	6622                	ld	a2,8(sp)
 c001728:	00093583          	ld	a1,0(s2)
 c00172c:	86aa                	mv	a3,a0
 c00172e:	842a                	mv	s0,a0
 c001730:	00006517          	auipc	a0,0x6
 c001734:	44050513          	addi	a0,a0,1088 # c007b70 <version_string+0x718>
 c001738:	bfbfe0ef          	jal	ra,c000332 <tf_printf>
 c00173c:	8526                	mv	a0,s1
 c00173e:	197020ef          	jal	ra,c0040d4 <LZ4F_isError>
 c001742:	0005079b          	sext.w	a5,a0
 c001746:	4501                	li	a0,0
 c001748:	d3e1                	beqz	a5,c001708 <decompress_lz4+0x60>
 c00174a:	85a2                	mv	a1,s0
 c00174c:	00006517          	auipc	a0,0x6
 c001750:	44c50513          	addi	a0,a0,1100 # c007b98 <version_string+0x740>
 c001754:	b77d                	j	c001702 <decompress_lz4+0x5a>

000000000c001756 <decompress>:
 c001756:	7139                	addi	sp,sp,-64
 c001758:	87ba                	mv	a5,a4
 c00175a:	ec4e                	sd	s3,24(sp)
 c00175c:	e852                	sd	s4,16(sp)
 c00175e:	e456                	sd	s5,8(sp)
 c001760:	89b2                	mv	s3,a2
 c001762:	8a36                	mv	s4,a3
 c001764:	8aba                	mv	s5,a4
 c001766:	8736                	mv	a4,a3
 c001768:	86b2                	mv	a3,a2
 c00176a:	6190                	ld	a2,0(a1)
 c00176c:	f426                	sd	s1,40(sp)
 c00176e:	f04a                	sd	s2,32(sp)
 c001770:	84ae                	mv	s1,a1
 c001772:	892a                	mv	s2,a0
 c001774:	85aa                	mv	a1,a0
 c001776:	00006517          	auipc	a0,0x6
 c00177a:	44250513          	addi	a0,a0,1090 # c007bb8 <version_string+0x760>
 c00177e:	fc06                	sd	ra,56(sp)
 c001780:	f822                	sd	s0,48(sp)
 c001782:	bb1fe0ef          	jal	ra,c000332 <tf_printf>
 c001786:	4785                	li	a5,1
 c001788:	02fa8f63          	beq	s5,a5,c0017c6 <decompress+0x70>
 c00178c:	4789                	li	a5,2
 c00178e:	5429                	li	s0,-22
 c001790:	00fa9963          	bne	s5,a5,c0017a2 <decompress+0x4c>
 c001794:	86d2                	mv	a3,s4
 c001796:	864e                	mv	a2,s3
 c001798:	85a6                	mv	a1,s1
 c00179a:	854a                	mv	a0,s2
 c00179c:	f0dff0ef          	jal	ra,c0016a8 <decompress_lz4>
 c0017a0:	842a                	mv	s0,a0
 c0017a2:	608c                	ld	a1,0(s1)
 c0017a4:	8622                	mv	a2,s0
 c0017a6:	00006517          	auipc	a0,0x6
 c0017aa:	43250513          	addi	a0,a0,1074 # c007bd8 <version_string+0x780>
 c0017ae:	b85fe0ef          	jal	ra,c000332 <tf_printf>
 c0017b2:	70e2                	ld	ra,56(sp)
 c0017b4:	8522                	mv	a0,s0
 c0017b6:	7442                	ld	s0,48(sp)
 c0017b8:	74a2                	ld	s1,40(sp)
 c0017ba:	7902                	ld	s2,32(sp)
 c0017bc:	69e2                	ld	s3,24(sp)
 c0017be:	6a42                	ld	s4,16(sp)
 c0017c0:	6aa2                	ld	s5,8(sp)
 c0017c2:	6121                	addi	sp,sp,64
 c0017c4:	8082                	ret
 c0017c6:	86d2                	mv	a3,s4
 c0017c8:	864e                	mv	a2,s3
 c0017ca:	85a6                	mv	a1,s1
 c0017cc:	854a                	mv	a0,s2
 c0017ce:	dc3ff0ef          	jal	ra,c001590 <decompress_lzma>
 c0017d2:	b7f9                	j	c0017a0 <decompress+0x4a>

000000000c0017d4 <LzmaDec_WriteRem>:
 c0017d4:	4d78                	lw	a4,92(a0)
 c0017d6:	11000793          	li	a5,272
 c0017da:	fff7069b          	addiw	a3,a4,-1
 c0017de:	04d7e563          	bltu	a5,a3,c001828 <LzmaDec_WriteRem+0x54>
 c0017e2:	7510                	ld	a2,40(a0)
 c0017e4:	7c07368b          	extu	a3,a4,31,0
 c0017e8:	01853803          	ld	a6,24(a0)
 c0017ec:	8d91                	sub	a1,a1,a2
 c0017ee:	02053e03          	ld	t3,32(a0)
 c0017f2:	04856883          	lwu	a7,72(a0)
 c0017f6:	87ba                	mv	a5,a4
 c0017f8:	00d5f463          	bgeu	a1,a3,c001800 <LzmaDec_WriteRem+0x2c>
 c0017fc:	0005879b          	sext.w	a5,a1
 c001800:	416c                	lw	a1,68(a0)
 c001802:	4134                	lw	a3,64(a0)
 c001804:	e599                	bnez	a1,c001812 <LzmaDec_WriteRem+0x3e>
 c001806:	414c                	lw	a1,4(a0)
 c001808:	40d5833b          	subw	t1,a1,a3
 c00180c:	0067e363          	bltu	a5,t1,c001812 <LzmaDec_WriteRem+0x3e>
 c001810:	c16c                	sw	a1,68(a0)
 c001812:	9ebd                	addw	a3,a3,a5
 c001814:	9f1d                	subw	a4,a4,a5
 c001816:	c134                	sw	a3,64(a0)
 c001818:	cd78                	sw	a4,92(a0)
 c00181a:	86be                	mv	a3,a5
 c00181c:	8732                	mv	a4,a2
 c00181e:	e691                	bnez	a3,c00182a <LzmaDec_WriteRem+0x56>
 c001820:	7c07b78b          	extu	a5,a5,31,0
 c001824:	97b2                	add	a5,a5,a2
 c001826:	f51c                	sd	a5,40(a0)
 c001828:	8082                	ret
 c00182a:	36fd                	addiw	a3,a3,-1
 c00182c:	411705b3          	sub	a1,a4,a7
 c001830:	8372                	mv	t1,t3
 c001832:	01176363          	bltu	a4,a7,c001838 <LzmaDec_WriteRem+0x64>
 c001836:	4301                	li	t1,0
 c001838:	95c2                	add	a1,a1,a6
 c00183a:	8065c58b          	lrbu	a1,a1,t1,0
 c00183e:	00e8558b          	srb	a1,a6,a4,0
 c001842:	0705                	addi	a4,a4,1
 c001844:	bfe9                	j	c00181e <LzmaDec_WriteRem+0x4a>

000000000c001846 <LzmaDec_DecodeReal2>:
 c001846:	7155                	addi	sp,sp,-208
 c001848:	e1a2                	sd	s0,192(sp)
 c00184a:	6405                	lui	s0,0x1
 c00184c:	e586                	sd	ra,200(sp)
 c00184e:	fd26                	sd	s1,184(sp)
 c001850:	f94a                	sd	s2,176(sp)
 c001852:	f54e                	sd	s3,168(sp)
 c001854:	f152                	sd	s4,160(sp)
 c001856:	ed56                	sd	s5,152(sp)
 c001858:	e95a                	sd	s6,144(sp)
 c00185a:	e55e                	sd	s7,136(sp)
 c00185c:	e162                	sd	s8,128(sp)
 c00185e:	fce6                	sd	s9,120(sp)
 c001860:	f8ea                	sd	s10,112(sp)
 c001862:	f4ee                	sd	s11,104(sp)
 c001864:	e82e                	sd	a1,16(sp)
 c001866:	f832                	sd	a2,48(sp)
 c001868:	8004041b          	addiw	s0,s0,-2048
 c00186c:	417c                	lw	a5,68(a0)
 c00186e:	04052e03          	lw	t3,64(a0)
 c001872:	02853803          	ld	a6,40(a0)
 c001876:	ec3e                	sd	a5,24(sp)
 c001878:	eba1                	bnez	a5,c0018c8 <LzmaDec_DecodeReal2+0x82>
 c00187a:	415c                	lw	a5,4(a0)
 c00187c:	6742                	ld	a4,16(sp)
 c00187e:	66c2                	ld	a3,16(sp)
 c001880:	41c787bb          	subw	a5,a5,t3
 c001884:	7c07b78b          	extu	a5,a5,31,0
 c001888:	41070733          	sub	a4,a4,a6
 c00188c:	e436                	sd	a3,8(sp)
 c00188e:	00e7f463          	bgeu	a5,a4,c001896 <LzmaDec_DecodeReal2+0x50>
 c001892:	97c2                	add	a5,a5,a6
 c001894:	e43e                	sd	a5,8(sp)
 c001896:	020e1b63          	bnez	t3,c0018cc <LzmaDec_DecodeReal2+0x86>
 c00189a:	5d58                	lw	a4,60(a0)
 c00189c:	c00007b7          	lui	a5,0xc0000
 c0018a0:	bff78793          	addi	a5,a5,-1025 # ffffffffbffffbff <__BL2_END__+0xffffffffb3ff098f>
 c0018a4:	02e7f463          	bgeu	a5,a4,c0018cc <LzmaDec_DecodeReal2+0x86>
 c0018a8:	4505                	li	a0,1
 c0018aa:	60ae                	ld	ra,200(sp)
 c0018ac:	640e                	ld	s0,192(sp)
 c0018ae:	74ea                	ld	s1,184(sp)
 c0018b0:	794a                	ld	s2,176(sp)
 c0018b2:	79aa                	ld	s3,168(sp)
 c0018b4:	7a0a                	ld	s4,160(sp)
 c0018b6:	6aea                	ld	s5,152(sp)
 c0018b8:	6b4a                	ld	s6,144(sp)
 c0018ba:	6baa                	ld	s7,136(sp)
 c0018bc:	6c0a                	ld	s8,128(sp)
 c0018be:	7ce6                	ld	s9,120(sp)
 c0018c0:	7d46                	ld	s10,112(sp)
 c0018c2:	7da6                	ld	s11,104(sp)
 c0018c4:	6169                	addi	sp,sp,208
 c0018c6:	8082                	ret
 c0018c8:	67c2                	ld	a5,16(sp)
 c0018ca:	e43e                	sd	a5,8(sp)
 c0018cc:	497c                	lw	a5,84(a0)
 c0018ce:	00154703          	lbu	a4,1(a0)
 c0018d2:	690c                	ld	a1,16(a0)
 c0018d4:	f03e                	sd	a5,32(sp)
 c0018d6:	00054783          	lbu	a5,0(a0)
 c0018da:	00254303          	lbu	t1,2(a0)
 c0018de:	74fd                	lui	s1,0xfffff
 c0018e0:	f43e                	sd	a5,40(sp)
 c0018e2:	76a2                	ld	a3,40(sp)
 c0018e4:	10000793          	li	a5,256
 c0018e8:	00e7973b          	sllw	a4,a5,a4
 c0018ec:	02053a83          	ld	s5,32(a0)
 c0018f0:	00d7d7bb          	srlw	a5,a5,a3
 c0018f4:	60048493          	addi	s1,s1,1536 # fffffffffffff600 <__BL2_END__+0xfffffffff3ff0390>
 c0018f8:	56fd                	li	a3,-1
 c0018fa:	40f707bb          	subw	a5,a4,a5
 c0018fe:	006696bb          	sllw	a3,a3,t1
 c001902:	94ae                	add	s1,s1,a1
 c001904:	fc3e                	sd	a5,56(sp)
 c001906:	fff6c693          	not	a3,a3
 c00190a:	e4a6                	sd	s1,72(sp)
 c00190c:	05852883          	lw	a7,88(a0)
 c001910:	a0058493          	addi	s1,a1,-1536
 c001914:	04852f83          	lw	t6,72(a0)
 c001918:	04c52f03          	lw	t5,76(a0)
 c00191c:	05052983          	lw	s3,80(a0)
 c001920:	01853a03          	ld	s4,24(a0)
 c001924:	7918                	ld	a4,48(a0)
 c001926:	5d10                	lw	a2,56(a0)
 c001928:	5d5c                	lw	a5,60(a0)
 c00192a:	2681                	sext.w	a3,a3
 c00192c:	e8a6                	sd	s1,80(sp)
 c00192e:	fffa8493          	addi	s1,s5,-1
 c001932:	e0b6                	sd	a3,64(sp)
 c001934:	4301                	li	t1,0
 c001936:	010006b7          	lui	a3,0x1000
 c00193a:	eca6                	sd	s1,88(sp)
 c00193c:	6486                	ld	s1,64(sp)
 c00193e:	01c4feb3          	and	t4,s1,t3
 c001942:	004e9e9b          	slliw	t4,t4,0x4
 c001946:	011e893b          	addw	s2,t4,a7
 c00194a:	7c09390b          	extu	s2,s2,31,0
 c00194e:	0906                	slli	s2,s2,0x1
 c001950:	e0090b93          	addi	s7,s2,-512
 c001954:	a175cb0b          	lrhu	s6,a1,s7,0
 c001958:	83da                	mv	t2,s6
 c00195a:	00d67b63          	bgeu	a2,a3,c001970 <LzmaDec_DecodeReal2+0x12a>
 c00195e:	9817428b          	lbuia	t0,(a4),1,0
 c001962:	0087979b          	slliw	a5,a5,0x8
 c001966:	0086161b          	slliw	a2,a2,0x8
 c00196a:	00f2e7b3          	or	a5,t0,a5
 c00196e:	2781                	sext.w	a5,a5
 c001970:	00b6529b          	srliw	t0,a2,0xb
 c001974:	027284bb          	mulw	s1,t0,t2
 c001978:	82a6                	mv	t0,s1
 c00197a:	7497f763          	bgeu	a5,s1,c0020c8 <LzmaDec_DecodeReal2+0x882>
 c00197e:	6ee2                	ld	t4,24(sp)
 c001980:	407403bb          	subw	t2,s0,t2
 c001984:	0053d39b          	srliw	t2,t2,0x5
 c001988:	016383bb          	addw	t2,t2,s6
 c00198c:	2175d38b          	srh	t2,a1,s7,0
 c001990:	01ceeeb3          	or	t4,t4,t3
 c001994:	28058613          	addi	a2,a1,640
 c001998:	020e8a63          	beqz	t4,c0019cc <LzmaDec_DecodeReal2+0x186>
 c00199c:	6966                	ld	s2,88(sp)
 c00199e:	fff80393          	addi	t2,a6,-1 # effff <__BSS_SIZE__+0xeaf8f>
 c0019a2:	008e1e9b          	slliw	t4,t3,0x8
 c0019a6:	4109138b          	mveqz	t2,s2,a6
 c0019aa:	807a438b          	lrbu	t2,s4,t2,0
 c0019ae:	01d38ebb          	addw	t4,t2,t4
 c0019b2:	73e2                	ld	t2,56(sp)
 c0019b4:	01d3feb3          	and	t4,t2,t4
 c0019b8:	73a2                	ld	t2,40(sp)
 c0019ba:	007e9ebb          	sllw	t4,t4,t2
 c0019be:	438d                	li	t2,3
 c0019c0:	027e8ebb          	mulw	t4,t4,t2
 c0019c4:	7c0ebe8b          	extu	t4,t4,31,0
 c0019c8:	03d6160b          	addsl	a2,a2,t4,1
 c0019cc:	4e99                	li	t4,6
 c0019ce:	2e05                	addiw	t3,t3,1
 c0019d0:	331ee063          	bltu	t4,a7,c001cf0 <LzmaDec_DecodeReal2+0x4aa>
 c0019d4:	438d                	li	t2,3
 c0019d6:	8ec6                	mv	t4,a7
 c0019d8:	0113f363          	bgeu	t2,a7,c0019de <LzmaDec_DecodeReal2+0x198>
 c0019dc:	4e8d                	li	t4,3
 c0019de:	00265383          	lhu	t2,2(a2) # 1002 <__BSS_SIZE__-0x406e>
 c0019e2:	41d888bb          	subw	a7,a7,t4
 c0019e6:	8e9e                	mv	t4,t2
 c0019e8:	00d4fb63          	bgeu	s1,a3,c0019fe <LzmaDec_DecodeReal2+0x1b8>
 c0019ec:	0082949b          	slliw	s1,t0,0x8
 c0019f0:	9817428b          	lbuia	t0,(a4),1,0
 c0019f4:	0087979b          	slliw	a5,a5,0x8
 c0019f8:	00f2e7b3          	or	a5,t0,a5
 c0019fc:	2781                	sext.w	a5,a5
 c0019fe:	00b4d29b          	srliw	t0,s1,0xb
 c001a02:	03d2893b          	mulw	s2,t0,t4
 c001a06:	2327f663          	bgeu	a5,s2,c001c32 <LzmaDec_DecodeReal2+0x3ec>
 c001a0a:	41d40ebb          	subw	t4,s0,t4
 c001a0e:	005ede9b          	srliw	t4,t4,0x5
 c001a12:	007e83bb          	addw	t2,t4,t2
 c001a16:	3c03b38b          	extu	t2,t2,15,0
 c001a1a:	4e89                	li	t4,2
 c001a1c:	00761123          	sh	t2,2(a2)
 c001a20:	b3d6448b          	lurhu	s1,a2,t4,1
 c001a24:	03d61b8b          	addsl	s7,a2,t4,1
 c001a28:	0004829b          	sext.w	t0,s1
 c001a2c:	00d97b63          	bgeu	s2,a3,c001a42 <LzmaDec_DecodeReal2+0x1fc>
 c001a30:	9817438b          	lbuia	t2,(a4),1,0
 c001a34:	0087979b          	slliw	a5,a5,0x8
 c001a38:	0089191b          	slliw	s2,s2,0x8
 c001a3c:	00f3e7b3          	or	a5,t2,a5
 c001a40:	2781                	sext.w	a5,a5
 c001a42:	00b95b1b          	srliw	s6,s2,0xb
 c001a46:	025b03bb          	mulw	t2,s6,t0
 c001a4a:	001e9c1b          	slliw	s8,t4,0x1
 c001a4e:	0e86                	slli	t4,t4,0x1
 c001a50:	1e77fd63          	bgeu	a5,t2,c001c4a <LzmaDec_DecodeReal2+0x404>
 c001a54:	405402bb          	subw	t0,s0,t0
 c001a58:	0052d29b          	srliw	t0,t0,0x5
 c001a5c:	009284bb          	addw	s1,t0,s1
 c001a60:	3c04b48b          	extu	s1,s1,15,0
 c001a64:	009b9023          	sh	s1,0(s7)
 c001a68:	b3d6490b          	lurhu	s2,a2,t4,1
 c001a6c:	7c0ebc0b          	extu	s8,t4,31,0
 c001a70:	03861c0b          	addsl	s8,a2,s8,1
 c001a74:	0009029b          	sext.w	t0,s2
 c001a78:	00d3fa63          	bgeu	t2,a3,c001a8c <LzmaDec_DecodeReal2+0x246>
 c001a7c:	9817448b          	lbuia	s1,(a4),1,0
 c001a80:	0087979b          	slliw	a5,a5,0x8
 c001a84:	0083939b          	slliw	t2,t2,0x8
 c001a88:	8fc5                	or	a5,a5,s1
 c001a8a:	2781                	sext.w	a5,a5
 c001a8c:	00b3db9b          	srliw	s7,t2,0xb
 c001a90:	025b84bb          	mulw	s1,s7,t0
 c001a94:	001e9b1b          	slliw	s6,t4,0x1
 c001a98:	1c97f663          	bgeu	a5,s1,c001c64 <LzmaDec_DecodeReal2+0x41e>
 c001a9c:	405402bb          	subw	t0,s0,t0
 c001aa0:	0052d29b          	srliw	t0,t0,0x5
 c001aa4:	0122893b          	addw	s2,t0,s2
 c001aa8:	3c09390b          	extu	s2,s2,15,0
 c001aac:	012c1023          	sh	s2,0(s8)
 c001ab0:	b366428b          	lurhu	t0,a2,s6,1
 c001ab4:	7c0b3c0b          	extu	s8,s6,31,0
 c001ab8:	03861c0b          	addsl	s8,a2,s8,1
 c001abc:	00028e9b          	sext.w	t4,t0
 c001ac0:	00d4fb63          	bgeu	s1,a3,c001ad6 <LzmaDec_DecodeReal2+0x290>
 c001ac4:	9817438b          	lbuia	t2,(a4),1,0
 c001ac8:	0087979b          	slliw	a5,a5,0x8
 c001acc:	0084949b          	slliw	s1,s1,0x8
 c001ad0:	00f3e7b3          	or	a5,t2,a5
 c001ad4:	2781                	sext.w	a5,a5
 c001ad6:	00b4db9b          	srliw	s7,s1,0xb
 c001ada:	03db83bb          	mulw	t2,s7,t4
 c001ade:	001b191b          	slliw	s2,s6,0x1
 c001ae2:	1877fc63          	bgeu	a5,t2,c001c7a <LzmaDec_DecodeReal2+0x434>
 c001ae6:	41d40ebb          	subw	t4,s0,t4
 c001aea:	005ede9b          	srliw	t4,t4,0x5
 c001aee:	005e82bb          	addw	t0,t4,t0
 c001af2:	3c02b28b          	extu	t0,t0,15,0
 c001af6:	005c1023          	sh	t0,0(s8)
 c001afa:	b326448b          	lurhu	s1,a2,s2,1
 c001afe:	7c093b8b          	extu	s7,s2,31,0
 c001b02:	03761b8b          	addsl	s7,a2,s7,1
 c001b06:	00048e9b          	sext.w	t4,s1
 c001b0a:	00d3fb63          	bgeu	t2,a3,c001b20 <LzmaDec_DecodeReal2+0x2da>
 c001b0e:	9817428b          	lbuia	t0,(a4),1,0
 c001b12:	0087979b          	slliw	a5,a5,0x8
 c001b16:	0083939b          	slliw	t2,t2,0x8
 c001b1a:	00f2e7b3          	or	a5,t0,a5
 c001b1e:	2781                	sext.w	a5,a5
 c001b20:	00b3db1b          	srliw	s6,t2,0xb
 c001b24:	03db02bb          	mulw	t0,s6,t4
 c001b28:	0019191b          	slliw	s2,s2,0x1
 c001b2c:	1657f363          	bgeu	a5,t0,c001c92 <LzmaDec_DecodeReal2+0x44c>
 c001b30:	41d40ebb          	subw	t4,s0,t4
 c001b34:	005ede9b          	srliw	t4,t4,0x5
 c001b38:	009e84bb          	addw	s1,t4,s1
 c001b3c:	3c04b48b          	extu	s1,s1,15,0
 c001b40:	009b9023          	sh	s1,0(s7)
 c001b44:	b326448b          	lurhu	s1,a2,s2,1
 c001b48:	7c093b8b          	extu	s7,s2,31,0
 c001b4c:	03761b8b          	addsl	s7,a2,s7,1
 c001b50:	00048e9b          	sext.w	t4,s1
 c001b54:	00d2fb63          	bgeu	t0,a3,c001b6a <LzmaDec_DecodeReal2+0x324>
 c001b58:	9817438b          	lbuia	t2,(a4),1,0
 c001b5c:	0087979b          	slliw	a5,a5,0x8
 c001b60:	0082929b          	slliw	t0,t0,0x8
 c001b64:	00f3e7b3          	or	a5,t2,a5
 c001b68:	2781                	sext.w	a5,a5
 c001b6a:	00b2db1b          	srliw	s6,t0,0xb
 c001b6e:	03db03bb          	mulw	t2,s6,t4
 c001b72:	0019191b          	slliw	s2,s2,0x1
 c001b76:	1277fa63          	bgeu	a5,t2,c001caa <LzmaDec_DecodeReal2+0x464>
 c001b7a:	41d40ebb          	subw	t4,s0,t4
 c001b7e:	005ede9b          	srliw	t4,t4,0x5
 c001b82:	009e84bb          	addw	s1,t4,s1
 c001b86:	3c04b48b          	extu	s1,s1,15,0
 c001b8a:	009b9023          	sh	s1,0(s7)
 c001b8e:	b326448b          	lurhu	s1,a2,s2,1
 c001b92:	7c093b8b          	extu	s7,s2,31,0
 c001b96:	03761b8b          	addsl	s7,a2,s7,1
 c001b9a:	00048e9b          	sext.w	t4,s1
 c001b9e:	00d3fb63          	bgeu	t2,a3,c001bb4 <LzmaDec_DecodeReal2+0x36e>
 c001ba2:	9817428b          	lbuia	t0,(a4),1,0
 c001ba6:	0087979b          	slliw	a5,a5,0x8
 c001baa:	0083939b          	slliw	t2,t2,0x8
 c001bae:	00f2e7b3          	or	a5,t0,a5
 c001bb2:	2781                	sext.w	a5,a5
 c001bb4:	00b3db1b          	srliw	s6,t2,0xb
 c001bb8:	03db02bb          	mulw	t0,s6,t4
 c001bbc:	0019191b          	slliw	s2,s2,0x1
 c001bc0:	1057f163          	bgeu	a5,t0,c001cc2 <LzmaDec_DecodeReal2+0x47c>
 c001bc4:	41d40ebb          	subw	t4,s0,t4
 c001bc8:	005ede9b          	srliw	t4,t4,0x5
 c001bcc:	009e84bb          	addw	s1,t4,s1
 c001bd0:	3c04b48b          	extu	s1,s1,15,0
 c001bd4:	009b9023          	sh	s1,0(s7)
 c001bd8:	b3264b8b          	lurhu	s7,a2,s2,1
 c001bdc:	7c093b0b          	extu	s6,s2,31,0
 c001be0:	03661b0b          	addsl	s6,a2,s6,1
 c001be4:	000b8e9b          	sext.w	t4,s7
 c001be8:	00d2fa63          	bgeu	t0,a3,c001bfc <LzmaDec_DecodeReal2+0x3b6>
 c001bec:	9817460b          	lbuia	a2,(a4),1,0
 c001bf0:	0087979b          	slliw	a5,a5,0x8
 c001bf4:	0082929b          	slliw	t0,t0,0x8
 c001bf8:	8fd1                	or	a5,a5,a2
 c001bfa:	2781                	sext.w	a5,a5
 c001bfc:	00b2d39b          	srliw	t2,t0,0xb
 c001c00:	03d3863b          	mulw	a2,t2,t4
 c001c04:	0019149b          	slliw	s1,s2,0x1
 c001c08:	0cc7f963          	bgeu	a5,a2,c001cda <LzmaDec_DecodeReal2+0x494>
 c001c0c:	41d40ebb          	subw	t4,s0,t4
 c001c10:	005ede9b          	srliw	t4,t4,0x5
 c001c14:	017e8ebb          	addw	t4,t4,s7
 c001c18:	01db1023          	sh	t4,0(s6)
 c001c1c:	010a548b          	srb	s1,s4,a6,0
 c001c20:	0805                	addi	a6,a6,1
 c001c22:	64a2                	ld	s1,8(sp)
 c001c24:	64987ee3          	bgeu	a6,s1,c002a80 <LzmaDec_DecodeReal2+0x123a>
 c001c28:	74c2                	ld	s1,48(sp)
 c001c2a:	d09769e3          	bltu	a4,s1,c00193c <LzmaDec_DecodeReal2+0xf6>
 c001c2e:	6530006f          	j	c002a80 <LzmaDec_DecodeReal2+0x123a>
 c001c32:	005ede9b          	srliw	t4,t4,0x5
 c001c36:	41d383bb          	subw	t2,t2,t4
 c001c3a:	412787bb          	subw	a5,a5,s2
 c001c3e:	3c03b38b          	extu	t2,t2,15,0
 c001c42:	4124893b          	subw	s2,s1,s2
 c001c46:	4e8d                	li	t4,3
 c001c48:	bbd1                	j	c001a1c <LzmaDec_DecodeReal2+0x1d6>
 c001c4a:	0052d29b          	srliw	t0,t0,0x5
 c001c4e:	405484bb          	subw	s1,s1,t0
 c001c52:	407787bb          	subw	a5,a5,t2
 c001c56:	3c04b48b          	extu	s1,s1,15,0
 c001c5a:	001c0e9b          	addiw	t4,s8,1
 c001c5e:	407903bb          	subw	t2,s2,t2
 c001c62:	b509                	j	c001a64 <LzmaDec_DecodeReal2+0x21e>
 c001c64:	0052d29b          	srliw	t0,t0,0x5
 c001c68:	4059093b          	subw	s2,s2,t0
 c001c6c:	9f85                	subw	a5,a5,s1
 c001c6e:	3c09390b          	extu	s2,s2,15,0
 c001c72:	2b05                	addiw	s6,s6,1
 c001c74:	409384bb          	subw	s1,t2,s1
 c001c78:	bd15                	j	c001aac <LzmaDec_DecodeReal2+0x266>
 c001c7a:	005ede9b          	srliw	t4,t4,0x5
 c001c7e:	41d282bb          	subw	t0,t0,t4
 c001c82:	407787bb          	subw	a5,a5,t2
 c001c86:	3c02b28b          	extu	t0,t0,15,0
 c001c8a:	2905                	addiw	s2,s2,1
 c001c8c:	407483bb          	subw	t2,s1,t2
 c001c90:	b59d                	j	c001af6 <LzmaDec_DecodeReal2+0x2b0>
 c001c92:	005ede9b          	srliw	t4,t4,0x5
 c001c96:	41d484bb          	subw	s1,s1,t4
 c001c9a:	405787bb          	subw	a5,a5,t0
 c001c9e:	3c04b48b          	extu	s1,s1,15,0
 c001ca2:	2905                	addiw	s2,s2,1
 c001ca4:	405382bb          	subw	t0,t2,t0
 c001ca8:	bd61                	j	c001b40 <LzmaDec_DecodeReal2+0x2fa>
 c001caa:	005ede9b          	srliw	t4,t4,0x5
 c001cae:	41d484bb          	subw	s1,s1,t4
 c001cb2:	407787bb          	subw	a5,a5,t2
 c001cb6:	3c04b48b          	extu	s1,s1,15,0
 c001cba:	2905                	addiw	s2,s2,1
 c001cbc:	407283bb          	subw	t2,t0,t2
 c001cc0:	b5e9                	j	c001b8a <LzmaDec_DecodeReal2+0x344>
 c001cc2:	005ede9b          	srliw	t4,t4,0x5
 c001cc6:	41d484bb          	subw	s1,s1,t4
 c001cca:	405787bb          	subw	a5,a5,t0
 c001cce:	3c04b48b          	extu	s1,s1,15,0
 c001cd2:	2905                	addiw	s2,s2,1
 c001cd4:	405382bb          	subw	t0,t2,t0
 c001cd8:	bdf5                	j	c001bd4 <LzmaDec_DecodeReal2+0x38e>
 c001cda:	005ede9b          	srliw	t4,t4,0x5
 c001cde:	41db8ebb          	subw	t4,s7,t4
 c001ce2:	9f91                	subw	a5,a5,a2
 c001ce4:	01db1023          	sh	t4,0(s6)
 c001ce8:	2485                	addiw	s1,s1,1
 c001cea:	40c2863b          	subw	a2,t0,a2
 c001cee:	b73d                	j	c001c1c <LzmaDec_DecodeReal2+0x3d6>
 c001cf0:	7c0fb90b          	extu	s2,t6,31,0
 c001cf4:	41280eb3          	sub	t4,a6,s2
 c001cf8:	83d6                	mv	t2,s5
 c001cfa:	01286363          	bltu	a6,s2,c001d00 <LzmaDec_DecodeReal2+0x4ba>
 c001cfe:	4381                	li	t2,0
 c001d00:	9ed2                	add	t4,t4,s4
 c001d02:	4925                	li	s2,9
 c001d04:	807ece8b          	lrbu	t4,t4,t2,0
 c001d08:	438d                	li	t2,3
 c001d0a:	01197363          	bgeu	s2,a7,c001d10 <LzmaDec_DecodeReal2+0x4ca>
 c001d0e:	4399                	li	t2,6
 c001d10:	001e9b1b          	slliw	s6,t4,0x1
 c001d14:	100b7b13          	andi	s6,s6,256
 c001d18:	407888bb          	subw	a7,a7,t2
 c001d1c:	101b039b          	addiw	t2,s6,257
 c001d20:	b2764c0b          	lurhu	s8,a2,t2,1
 c001d24:	101b0b93          	addi	s7,s6,257
 c001d28:	03761b8b          	addsl	s7,a2,s7,1
 c001d2c:	000c039b          	sext.w	t2,s8
 c001d30:	00d4fb63          	bgeu	s1,a3,c001d46 <LzmaDec_DecodeReal2+0x500>
 c001d34:	0082949b          	slliw	s1,t0,0x8
 c001d38:	9817428b          	lbuia	t0,(a4),1,0
 c001d3c:	0087979b          	slliw	a5,a5,0x8
 c001d40:	00f2e7b3          	or	a5,t0,a5
 c001d44:	2781                	sext.w	a5,a5
 c001d46:	00b4d29b          	srliw	t0,s1,0xb
 c001d4a:	0272893b          	mulw	s2,t0,t2
 c001d4e:	2b27ff63          	bgeu	a5,s2,c00200c <LzmaDec_DecodeReal2+0x7c6>
 c001d52:	407403bb          	subw	t2,s0,t2
 c001d56:	0053d39b          	srliw	t2,t2,0x5
 c001d5a:	01838c3b          	addw	s8,t2,s8
 c001d5e:	3c0c3c0b          	extu	s8,s8,15,0
 c001d62:	100b4b13          	xori	s6,s6,256
 c001d66:	4289                	li	t0,2
 c001d68:	002e939b          	slliw	t2,t4,0x2
 c001d6c:	007b73b3          	and	t2,s6,t2
 c001d70:	005b04bb          	addw	s1,s6,t0
 c001d74:	018b9023          	sh	s8,0(s7)
 c001d78:	00038c1b          	sext.w	s8,t2
 c001d7c:	007483bb          	addw	t2,s1,t2
 c001d80:	b2764b8b          	lurhu	s7,a2,t2,1
 c001d84:	7c03bd0b          	extu	s10,t2,31,0
 c001d88:	03a61d0b          	addsl	s10,a2,s10,1
 c001d8c:	000b839b          	sext.w	t2,s7
 c001d90:	00d97a63          	bgeu	s2,a3,c001da4 <LzmaDec_DecodeReal2+0x55e>
 c001d94:	9817448b          	lbuia	s1,(a4),1,0
 c001d98:	0087979b          	slliw	a5,a5,0x8
 c001d9c:	0089191b          	slliw	s2,s2,0x8
 c001da0:	8fc5                	or	a5,a5,s1
 c001da2:	2781                	sext.w	a5,a5
 c001da4:	00b95c9b          	srliw	s9,s2,0xb
 c001da8:	027c84bb          	mulw	s1,s9,t2
 c001dac:	00129d9b          	slliw	s11,t0,0x1
 c001db0:	0286                	slli	t0,t0,0x1
 c001db2:	2697f963          	bgeu	a5,s1,c002024 <LzmaDec_DecodeReal2+0x7de>
 c001db6:	407403bb          	subw	t2,s0,t2
 c001dba:	0053d39b          	srliw	t2,t2,0x5
 c001dbe:	01738bbb          	addw	s7,t2,s7
 c001dc2:	3c0bbb8b          	extu	s7,s7,15,0
 c001dc6:	018b4c33          	xor	s8,s6,s8
 c001dca:	003e939b          	slliw	t2,t4,0x3
 c001dce:	007c73b3          	and	t2,s8,t2
 c001dd2:	005c093b          	addw	s2,s8,t0
 c001dd6:	017d1023          	sh	s7,0(s10)
 c001dda:	00038b1b          	sext.w	s6,t2
 c001dde:	007903bb          	addw	t2,s2,t2
 c001de2:	b2764c8b          	lurhu	s9,a2,t2,1
 c001de6:	7c03bd8b          	extu	s11,t2,31,0
 c001dea:	03b61d8b          	addsl	s11,a2,s11,1
 c001dee:	000c839b          	sext.w	t2,s9
 c001df2:	00d4fb63          	bgeu	s1,a3,c001e08 <LzmaDec_DecodeReal2+0x5c2>
 c001df6:	9817490b          	lbuia	s2,(a4),1,0
 c001dfa:	0087979b          	slliw	a5,a5,0x8
 c001dfe:	0084949b          	slliw	s1,s1,0x8
 c001e02:	00f967b3          	or	a5,s2,a5
 c001e06:	2781                	sext.w	a5,a5
 c001e08:	00b4dd1b          	srliw	s10,s1,0xb
 c001e0c:	027d093b          	mulw	s2,s10,t2
 c001e10:	00129b9b          	slliw	s7,t0,0x1
 c001e14:	2327f463          	bgeu	a5,s2,c00203c <LzmaDec_DecodeReal2+0x7f6>
 c001e18:	407403bb          	subw	t2,s0,t2
 c001e1c:	0053d39b          	srliw	t2,t2,0x5
 c001e20:	01938cbb          	addw	s9,t2,s9
 c001e24:	3c0cbc8b          	extu	s9,s9,15,0
 c001e28:	016c4b33          	xor	s6,s8,s6
 c001e2c:	004e929b          	slliw	t0,t4,0x4
 c001e30:	005b72b3          	and	t0,s6,t0
 c001e34:	017b03bb          	addw	t2,s6,s7
 c001e38:	019d9023          	sh	s9,0(s11)
 c001e3c:	00028c1b          	sext.w	s8,t0
 c001e40:	005382bb          	addw	t0,t2,t0
 c001e44:	b256438b          	lurhu	t2,a2,t0,1
 c001e48:	7c02bd0b          	extu	s10,t0,31,0
 c001e4c:	03a61d0b          	addsl	s10,a2,s10,1
 c001e50:	0003829b          	sext.w	t0,t2
 c001e54:	00d97a63          	bgeu	s2,a3,c001e68 <LzmaDec_DecodeReal2+0x622>
 c001e58:	9817448b          	lbuia	s1,(a4),1,0
 c001e5c:	0087979b          	slliw	a5,a5,0x8
 c001e60:	0089191b          	slliw	s2,s2,0x8
 c001e64:	8fc5                	or	a5,a5,s1
 c001e66:	2781                	sext.w	a5,a5
 c001e68:	00b95c9b          	srliw	s9,s2,0xb
 c001e6c:	025c84bb          	mulw	s1,s9,t0
 c001e70:	001b9b9b          	slliw	s7,s7,0x1
 c001e74:	1e97f063          	bgeu	a5,s1,c002054 <LzmaDec_DecodeReal2+0x80e>
 c001e78:	405402bb          	subw	t0,s0,t0
 c001e7c:	0052d29b          	srliw	t0,t0,0x5
 c001e80:	007283bb          	addw	t2,t0,t2
 c001e84:	3c03b38b          	extu	t2,t2,15,0
 c001e88:	018b4c33          	xor	s8,s6,s8
 c001e8c:	005e929b          	slliw	t0,t4,0x5
 c001e90:	007d1023          	sh	t2,0(s10)
 c001e94:	005c72b3          	and	t0,s8,t0
 c001e98:	017c03bb          	addw	t2,s8,s7
 c001e9c:	00028b1b          	sext.w	s6,t0
 c001ea0:	005382bb          	addw	t0,t2,t0
 c001ea4:	b256490b          	lurhu	s2,a2,t0,1
 c001ea8:	7c02bd0b          	extu	s10,t0,31,0
 c001eac:	03a61d0b          	addsl	s10,a2,s10,1
 c001eb0:	0009029b          	sext.w	t0,s2
 c001eb4:	00d4fb63          	bgeu	s1,a3,c001eca <LzmaDec_DecodeReal2+0x684>
 c001eb8:	9817438b          	lbuia	t2,(a4),1,0
 c001ebc:	0087979b          	slliw	a5,a5,0x8
 c001ec0:	0084949b          	slliw	s1,s1,0x8
 c001ec4:	00f3e7b3          	or	a5,t2,a5
 c001ec8:	2781                	sext.w	a5,a5
 c001eca:	00b4dc9b          	srliw	s9,s1,0xb
 c001ece:	025c83bb          	mulw	t2,s9,t0
 c001ed2:	001b9b9b          	slliw	s7,s7,0x1
 c001ed6:	1877fa63          	bgeu	a5,t2,c00206a <LzmaDec_DecodeReal2+0x824>
 c001eda:	405402bb          	subw	t0,s0,t0
 c001ede:	0052d29b          	srliw	t0,t0,0x5
 c001ee2:	0122893b          	addw	s2,t0,s2
 c001ee6:	3c09390b          	extu	s2,s2,15,0
 c001eea:	016c4b33          	xor	s6,s8,s6
 c001eee:	006e929b          	slliw	t0,t4,0x6
 c001ef2:	005b72b3          	and	t0,s6,t0
 c001ef6:	017b04bb          	addw	s1,s6,s7
 c001efa:	012d1023          	sh	s2,0(s10)
 c001efe:	00028c1b          	sext.w	s8,t0
 c001f02:	005482bb          	addw	t0,s1,t0
 c001f06:	b256448b          	lurhu	s1,a2,t0,1
 c001f0a:	7c02bd0b          	extu	s10,t0,31,0
 c001f0e:	03a61d0b          	addsl	s10,a2,s10,1
 c001f12:	0004829b          	sext.w	t0,s1
 c001f16:	00d3fb63          	bgeu	t2,a3,c001f2c <LzmaDec_DecodeReal2+0x6e6>
 c001f1a:	9817490b          	lbuia	s2,(a4),1,0
 c001f1e:	0087979b          	slliw	a5,a5,0x8
 c001f22:	0083939b          	slliw	t2,t2,0x8
 c001f26:	00f967b3          	or	a5,s2,a5
 c001f2a:	2781                	sext.w	a5,a5
 c001f2c:	00b3dc9b          	srliw	s9,t2,0xb
 c001f30:	025c893b          	mulw	s2,s9,t0
 c001f34:	001b9b9b          	slliw	s7,s7,0x1
 c001f38:	1527f563          	bgeu	a5,s2,c002082 <LzmaDec_DecodeReal2+0x83c>
 c001f3c:	405402bb          	subw	t0,s0,t0
 c001f40:	0052d29b          	srliw	t0,t0,0x5
 c001f44:	009284bb          	addw	s1,t0,s1
 c001f48:	3c04b48b          	extu	s1,s1,15,0
 c001f4c:	018b4c33          	xor	s8,s6,s8
 c001f50:	007e929b          	slliw	t0,t4,0x7
 c001f54:	005c72b3          	and	t0,s8,t0
 c001f58:	017c03bb          	addw	t2,s8,s7
 c001f5c:	009d1023          	sh	s1,0(s10)
 c001f60:	0002849b          	sext.w	s1,t0
 c001f64:	005382bb          	addw	t0,t2,t0
 c001f68:	b2564b0b          	lurhu	s6,a2,t0,1
 c001f6c:	7c02bd8b          	extu	s11,t0,31,0
 c001f70:	03b61d8b          	addsl	s11,a2,s11,1
 c001f74:	000b029b          	sext.w	t0,s6
 c001f78:	00d97b63          	bgeu	s2,a3,c001f8e <LzmaDec_DecodeReal2+0x748>
 c001f7c:	9817438b          	lbuia	t2,(a4),1,0
 c001f80:	0087979b          	slliw	a5,a5,0x8
 c001f84:	0089191b          	slliw	s2,s2,0x8
 c001f88:	00f3e7b3          	or	a5,t2,a5
 c001f8c:	2781                	sext.w	a5,a5
 c001f8e:	00b95d1b          	srliw	s10,s2,0xb
 c001f92:	025d03bb          	mulw	t2,s10,t0
 c001f96:	001b9c9b          	slliw	s9,s7,0x1
 c001f9a:	1077f063          	bgeu	a5,t2,c00209a <LzmaDec_DecodeReal2+0x854>
 c001f9e:	405402bb          	subw	t0,s0,t0
 c001fa2:	0052d29b          	srliw	t0,t0,0x5
 c001fa6:	01628b3b          	addw	s6,t0,s6
 c001faa:	3c0b3b0b          	extu	s6,s6,15,0
 c001fae:	009c44b3          	xor	s1,s8,s1
 c001fb2:	008e9e9b          	slliw	t4,t4,0x8
 c001fb6:	01d4feb3          	and	t4,s1,t4
 c001fba:	019484bb          	addw	s1,s1,s9
 c001fbe:	01d48ebb          	addw	t4,s1,t4
 c001fc2:	016d9023          	sh	s6,0(s11)
 c001fc6:	b3d64b0b          	lurhu	s6,a2,t4,1
 c001fca:	7c0eb90b          	extu	s2,t4,31,0
 c001fce:	0326190b          	addsl	s2,a2,s2,1
 c001fd2:	000b0e9b          	sext.w	t4,s6
 c001fd6:	00d3fa63          	bgeu	t2,a3,c001fea <LzmaDec_DecodeReal2+0x7a4>
 c001fda:	9817460b          	lbuia	a2,(a4),1,0
 c001fde:	0087979b          	slliw	a5,a5,0x8
 c001fe2:	0083939b          	slliw	t2,t2,0x8
 c001fe6:	8fd1                	or	a5,a5,a2
 c001fe8:	2781                	sext.w	a5,a5
 c001fea:	00b3d29b          	srliw	t0,t2,0xb
 c001fee:	03d2863b          	mulw	a2,t0,t4
 c001ff2:	001c949b          	slliw	s1,s9,0x1
 c001ff6:	0ac7fe63          	bgeu	a5,a2,c0020b2 <LzmaDec_DecodeReal2+0x86c>
 c001ffa:	41d40ebb          	subw	t4,s0,t4
 c001ffe:	005ede9b          	srliw	t4,t4,0x5
 c002002:	016e8ebb          	addw	t4,t4,s6
 c002006:	01d91023          	sh	t4,0(s2)
 c00200a:	b909                	j	c001c1c <LzmaDec_DecodeReal2+0x3d6>
 c00200c:	0053d39b          	srliw	t2,t2,0x5
 c002010:	407c0c3b          	subw	s8,s8,t2
 c002014:	412787bb          	subw	a5,a5,s2
 c002018:	3c0c3c0b          	extu	s8,s8,15,0
 c00201c:	4124893b          	subw	s2,s1,s2
 c002020:	428d                	li	t0,3
 c002022:	b399                	j	c001d68 <LzmaDec_DecodeReal2+0x522>
 c002024:	0053d39b          	srliw	t2,t2,0x5
 c002028:	407b8bbb          	subw	s7,s7,t2
 c00202c:	9f85                	subw	a5,a5,s1
 c00202e:	3c0bbb8b          	extu	s7,s7,15,0
 c002032:	001d829b          	addiw	t0,s11,1
 c002036:	409904bb          	subw	s1,s2,s1
 c00203a:	bb41                	j	c001dca <LzmaDec_DecodeReal2+0x584>
 c00203c:	0053d39b          	srliw	t2,t2,0x5
 c002040:	407c8cbb          	subw	s9,s9,t2
 c002044:	412787bb          	subw	a5,a5,s2
 c002048:	3c0cbc8b          	extu	s9,s9,15,0
 c00204c:	2b85                	addiw	s7,s7,1
 c00204e:	4124893b          	subw	s2,s1,s2
 c002052:	bbe9                	j	c001e2c <LzmaDec_DecodeReal2+0x5e6>
 c002054:	0052d29b          	srliw	t0,t0,0x5
 c002058:	405383bb          	subw	t2,t2,t0
 c00205c:	9f85                	subw	a5,a5,s1
 c00205e:	3c03b38b          	extu	t2,t2,15,0
 c002062:	2b85                	addiw	s7,s7,1
 c002064:	409904bb          	subw	s1,s2,s1
 c002068:	b515                	j	c001e8c <LzmaDec_DecodeReal2+0x646>
 c00206a:	0052d29b          	srliw	t0,t0,0x5
 c00206e:	4059093b          	subw	s2,s2,t0
 c002072:	407787bb          	subw	a5,a5,t2
 c002076:	3c09390b          	extu	s2,s2,15,0
 c00207a:	2b85                	addiw	s7,s7,1
 c00207c:	407483bb          	subw	t2,s1,t2
 c002080:	b5bd                	j	c001eee <LzmaDec_DecodeReal2+0x6a8>
 c002082:	0052d29b          	srliw	t0,t0,0x5
 c002086:	405484bb          	subw	s1,s1,t0
 c00208a:	412787bb          	subw	a5,a5,s2
 c00208e:	3c04b48b          	extu	s1,s1,15,0
 c002092:	2b85                	addiw	s7,s7,1
 c002094:	4123893b          	subw	s2,t2,s2
 c002098:	bd65                	j	c001f50 <LzmaDec_DecodeReal2+0x70a>
 c00209a:	0052d29b          	srliw	t0,t0,0x5
 c00209e:	405b0b3b          	subw	s6,s6,t0
 c0020a2:	407787bb          	subw	a5,a5,t2
 c0020a6:	3c0b3b0b          	extu	s6,s6,15,0
 c0020aa:	2c85                	addiw	s9,s9,1
 c0020ac:	407903bb          	subw	t2,s2,t2
 c0020b0:	b709                	j	c001fb2 <LzmaDec_DecodeReal2+0x76c>
 c0020b2:	005ede9b          	srliw	t4,t4,0x5
 c0020b6:	41db0ebb          	subw	t4,s6,t4
 c0020ba:	9f91                	subw	a5,a5,a2
 c0020bc:	01d91023          	sh	t4,0(s2)
 c0020c0:	2485                	addiw	s1,s1,1
 c0020c2:	40c3863b          	subw	a2,t2,a2
 c0020c6:	be99                	j	c001c1c <LzmaDec_DecodeReal2+0x3d6>
 c0020c8:	0053d39b          	srliw	t2,t2,0x5
 c0020cc:	407b03bb          	subw	t2,s6,t2
 c0020d0:	2175d38b          	srh	t2,a1,s7,0
 c0020d4:	7c08bb8b          	extu	s7,a7,31,0
 c0020d8:	0bc1                	addi	s7,s7,16
 c0020da:	a375cc0b          	lrhu	s8,a1,s7,1
 c0020de:	409604bb          	subw	s1,a2,s1
 c0020e2:	405787bb          	subw	a5,a5,t0
 c0020e6:	001b9b13          	slli	s6,s7,0x1
 c0020ea:	83e2                	mv	t2,s8
 c0020ec:	00d4fc63          	bgeu	s1,a3,c002104 <LzmaDec_DecodeReal2+0x8be>
 c0020f0:	0087929b          	slliw	t0,a5,0x8
 c0020f4:	9817478b          	lbuia	a5,(a4),1,0
 c0020f8:	0084949b          	slliw	s1,s1,0x8
 c0020fc:	0057e2b3          	or	t0,a5,t0
 c002100:	0002879b          	sext.w	a5,t0
 c002104:	00b4d29b          	srliw	t0,s1,0xb
 c002108:	0272863b          	mulw	a2,t0,t2
 c00210c:	38c7f463          	bgeu	a5,a2,c002494 <LzmaDec_DecodeReal2+0xc4e>
 c002110:	407403bb          	subw	t2,s0,t2
 c002114:	0053d39b          	srliw	t2,t2,0x5
 c002118:	62c6                	ld	t0,80(sp)
 c00211a:	018383bb          	addw	t2,t2,s8
 c00211e:	2375d38b          	srh	t2,a1,s7,1
 c002122:	28b1                	addiw	a7,a7,12
 c002124:	8b7e                	mv	s6,t6
 c002126:	0002d383          	lhu	t2,0(t0)
 c00212a:	8f9e                	mv	t6,t2
 c00212c:	00d67b63          	bgeu	a2,a3,c002142 <LzmaDec_DecodeReal2+0x8fc>
 c002130:	9817430b          	lbuia	t1,(a4),1,0
 c002134:	0087979b          	slliw	a5,a5,0x8
 c002138:	0086161b          	slliw	a2,a2,0x8
 c00213c:	00f367b3          	or	a5,t1,a5
 c002140:	2781                	sext.w	a5,a5
 c002142:	00b6531b          	srliw	t1,a2,0xb
 c002146:	03f304bb          	mulw	s1,t1,t6
 c00214a:	8326                	mv	t1,s1
 c00214c:	5297fe63          	bgeu	a5,s1,c002688 <LzmaDec_DecodeReal2+0xe42>
 c002150:	41f40fbb          	subw	t6,s0,t6
 c002154:	005fdf9b          	srliw	t6,t6,0x5
 c002158:	7c0ebe8b          	extu	t4,t4,31,0
 c00215c:	007f8fbb          	addw	t6,t6,t2
 c002160:	01f29023          	sh	t6,0(t0)
 c002164:	03d2928b          	addsl	t0,t0,t4,1
 c002168:	0022de83          	lhu	t4,2(t0)
 c00216c:	8676                	mv	a2,t4
 c00216e:	00d4fb63          	bgeu	s1,a3,c002184 <LzmaDec_DecodeReal2+0x93e>
 c002172:	9817430b          	lbuia	t1,(a4),1,0
 c002176:	0087979b          	slliw	a5,a5,0x8
 c00217a:	0084949b          	slliw	s1,s1,0x8
 c00217e:	00f367b3          	or	a5,t1,a5
 c002182:	2781                	sext.w	a5,a5
 c002184:	00b4d31b          	srliw	t1,s1,0xb
 c002188:	02c30fbb          	mulw	t6,t1,a2
 c00218c:	4bf7fa63          	bgeu	a5,t6,c002640 <LzmaDec_DecodeReal2+0xdfa>
 c002190:	40c4063b          	subw	a2,s0,a2
 c002194:	0056561b          	srliw	a2,a2,0x5
 c002198:	01d60ebb          	addw	t4,a2,t4
 c00219c:	3c0ebe8b          	extu	t4,t4,15,0
 c0021a0:	4309                	li	t1,2
 c0021a2:	01d29123          	sh	t4,2(t0)
 c0021a6:	b262c38b          	lurhu	t2,t0,t1,1
 c0021aa:	7c03390b          	extu	s2,t1,31,0
 c0021ae:	0003861b          	sext.w	a2,t2
 c0021b2:	00dffb63          	bgeu	t6,a3,c0021c8 <LzmaDec_DecodeReal2+0x982>
 c0021b6:	98174e8b          	lbuia	t4,(a4),1,0
 c0021ba:	0087979b          	slliw	a5,a5,0x8
 c0021be:	008f9f9b          	slliw	t6,t6,0x8
 c0021c2:	00fee7b3          	or	a5,t4,a5
 c0021c6:	2781                	sext.w	a5,a5
 c0021c8:	00bfd49b          	srliw	s1,t6,0xb
 c0021cc:	02c48ebb          	mulw	t4,s1,a2
 c0021d0:	00131b9b          	slliw	s7,t1,0x1
 c0021d4:	0306                	slli	t1,t1,0x1
 c0021d6:	49d7f163          	bgeu	a5,t4,c002658 <LzmaDec_DecodeReal2+0xe12>
 c0021da:	40c4063b          	subw	a2,s0,a2
 c0021de:	0056561b          	srliw	a2,a2,0x5
 c0021e2:	007603bb          	addw	t2,a2,t2
 c0021e6:	3c03b38b          	extu	t2,t2,15,0
 c0021ea:	2322d38b          	srh	t2,t0,s2,1
 c0021ee:	b262c38b          	lurhu	t2,t0,t1,1
 c0021f2:	7c033b8b          	extu	s7,t1,31,0
 c0021f6:	00038f9b          	sext.w	t6,t2
 c0021fa:	00defa63          	bgeu	t4,a3,c00220e <LzmaDec_DecodeReal2+0x9c8>
 c0021fe:	9817460b          	lbuia	a2,(a4),1,0
 c002202:	0087979b          	slliw	a5,a5,0x8
 c002206:	008e9e9b          	slliw	t4,t4,0x8
 c00220a:	8fd1                	or	a5,a5,a2
 c00220c:	2781                	sext.w	a5,a5
 c00220e:	00bed91b          	srliw	s2,t4,0xb
 c002212:	03f9063b          	mulw	a2,s2,t6
 c002216:	0013131b          	slliw	t1,t1,0x1
 c00221a:	44c7fc63          	bgeu	a5,a2,c002672 <LzmaDec_DecodeReal2+0xe2c>
 c00221e:	41f40fbb          	subw	t6,s0,t6
 c002222:	005fdf9b          	srliw	t6,t6,0x5
 c002226:	007f83bb          	addw	t2,t6,t2
 c00222a:	3c03b38b          	extu	t2,t2,15,0
 c00222e:	2372d38b          	srh	t2,t0,s7,1
 c002232:	3361                	addiw	t1,t1,-8
 c002234:	44ad                	li	s1,11
 c002236:	1314f0e3          	bgeu	s1,a7,c002b56 <LzmaDec_DecodeReal2+0x1310>
 c00223a:	448d                	li	s1,3
 c00223c:	8f9a                	mv	t6,t1
 c00223e:	0064f363          	bgeu	s1,t1,c002244 <LzmaDec_DecodeReal2+0x9fe>
 c002242:	4f8d                	li	t6,3
 c002244:	006f9f9b          	slliw	t6,t6,0x6
 c002248:	040f8f9b          	addiw	t6,t6,64
 c00224c:	7c0fbf8b          	extu	t6,t6,31,0
 c002250:	03f59f8b          	addsl	t6,a1,t6,1
 c002254:	002fd383          	lhu	t2,2(t6)
 c002258:	8e9e                	mv	t4,t2
 c00225a:	00d67b63          	bgeu	a2,a3,c002270 <LzmaDec_DecodeReal2+0xa2a>
 c00225e:	9817428b          	lbuia	t0,(a4),1,0
 c002262:	0087979b          	slliw	a5,a5,0x8
 c002266:	0086161b          	slliw	a2,a2,0x8
 c00226a:	00f2e7b3          	or	a5,t0,a5
 c00226e:	2781                	sext.w	a5,a5
 c002270:	00b6549b          	srliw	s1,a2,0xb
 c002274:	03d482bb          	mulw	t0,s1,t4
 c002278:	5e57ff63          	bgeu	a5,t0,c002876 <LzmaDec_DecodeReal2+0x1030>
 c00227c:	41d40ebb          	subw	t4,s0,t4
 c002280:	005ede9b          	srliw	t4,t4,0x5
 c002284:	007e83bb          	addw	t2,t4,t2
 c002288:	3c03b38b          	extu	t2,t2,15,0
 c00228c:	4609                	li	a2,2
 c00228e:	007f9123          	sh	t2,2(t6)
 c002292:	b2cfc48b          	lurhu	s1,t6,a2,1
 c002296:	7c063b8b          	extu	s7,a2,31,0
 c00229a:	00048e9b          	sext.w	t4,s1
 c00229e:	00d2fb63          	bgeu	t0,a3,c0022b4 <LzmaDec_DecodeReal2+0xa6e>
 c0022a2:	9817438b          	lbuia	t2,(a4),1,0
 c0022a6:	0087979b          	slliw	a5,a5,0x8
 c0022aa:	0082929b          	slliw	t0,t0,0x8
 c0022ae:	00f3e7b3          	or	a5,t2,a5
 c0022b2:	2781                	sext.w	a5,a5
 c0022b4:	00b2d91b          	srliw	s2,t0,0xb
 c0022b8:	03d903bb          	mulw	t2,s2,t4
 c0022bc:	00161c1b          	slliw	s8,a2,0x1
 c0022c0:	0606                	slli	a2,a2,0x1
 c0022c2:	5c77f663          	bgeu	a5,t2,c00288e <LzmaDec_DecodeReal2+0x1048>
 c0022c6:	41d40ebb          	subw	t4,s0,t4
 c0022ca:	005ede9b          	srliw	t4,t4,0x5
 c0022ce:	009e84bb          	addw	s1,t4,s1
 c0022d2:	3c04b48b          	extu	s1,s1,15,0
 c0022d6:	237fd48b          	srh	s1,t6,s7,1
 c0022da:	b2cfc48b          	lurhu	s1,t6,a2,1
 c0022de:	7c063c0b          	extu	s8,a2,31,0
 c0022e2:	00048e9b          	sext.w	t4,s1
 c0022e6:	00d3fb63          	bgeu	t2,a3,c0022fc <LzmaDec_DecodeReal2+0xab6>
 c0022ea:	9817428b          	lbuia	t0,(a4),1,0
 c0022ee:	0087979b          	slliw	a5,a5,0x8
 c0022f2:	0083939b          	slliw	t2,t2,0x8
 c0022f6:	00f2e7b3          	or	a5,t0,a5
 c0022fa:	2781                	sext.w	a5,a5
 c0022fc:	00b3db9b          	srliw	s7,t2,0xb
 c002300:	03db82bb          	mulw	t0,s7,t4
 c002304:	0016191b          	slliw	s2,a2,0x1
 c002308:	5a57f063          	bgeu	a5,t0,c0028a8 <LzmaDec_DecodeReal2+0x1062>
 c00230c:	41d40ebb          	subw	t4,s0,t4
 c002310:	005ede9b          	srliw	t4,t4,0x5
 c002314:	009e84bb          	addw	s1,t4,s1
 c002318:	3c04b48b          	extu	s1,s1,15,0
 c00231c:	238fd48b          	srh	s1,t6,s8,1
 c002320:	b32fc38b          	lurhu	t2,t6,s2,1
 c002324:	7c093c0b          	extu	s8,s2,31,0
 c002328:	0003861b          	sext.w	a2,t2
 c00232c:	00d2fb63          	bgeu	t0,a3,c002342 <LzmaDec_DecodeReal2+0xafc>
 c002330:	98174e8b          	lbuia	t4,(a4),1,0
 c002334:	0087979b          	slliw	a5,a5,0x8
 c002338:	0082929b          	slliw	t0,t0,0x8
 c00233c:	00fee7b3          	or	a5,t4,a5
 c002340:	2781                	sext.w	a5,a5
 c002342:	00b2db9b          	srliw	s7,t0,0xb
 c002346:	02cb8ebb          	mulw	t4,s7,a2
 c00234a:	0019149b          	slliw	s1,s2,0x1
 c00234e:	57d7f963          	bgeu	a5,t4,c0028c0 <LzmaDec_DecodeReal2+0x107a>
 c002352:	40c4063b          	subw	a2,s0,a2
 c002356:	0056561b          	srliw	a2,a2,0x5
 c00235a:	007603bb          	addw	t2,a2,t2
 c00235e:	3c03b38b          	extu	t2,t2,15,0
 c002362:	238fd38b          	srh	t2,t6,s8,1
 c002366:	b29fc28b          	lurhu	t0,t6,s1,1
 c00236a:	7c04bc0b          	extu	s8,s1,31,0
 c00236e:	0002861b          	sext.w	a2,t0
 c002372:	00defb63          	bgeu	t4,a3,c002388 <LzmaDec_DecodeReal2+0xb42>
 c002376:	9817438b          	lbuia	t2,(a4),1,0
 c00237a:	0087979b          	slliw	a5,a5,0x8
 c00237e:	008e9e9b          	slliw	t4,t4,0x8
 c002382:	00f3e7b3          	or	a5,t2,a5
 c002386:	2781                	sext.w	a5,a5
 c002388:	00bedb9b          	srliw	s7,t4,0xb
 c00238c:	02cb83bb          	mulw	t2,s7,a2
 c002390:	0014991b          	slliw	s2,s1,0x1
 c002394:	5477f263          	bgeu	a5,t2,c0028d8 <LzmaDec_DecodeReal2+0x1092>
 c002398:	40c4063b          	subw	a2,s0,a2
 c00239c:	0056561b          	srliw	a2,a2,0x5
 c0023a0:	005602bb          	addw	t0,a2,t0
 c0023a4:	3c02b28b          	extu	t0,t0,15,0
 c0023a8:	238fd28b          	srh	t0,t6,s8,1
 c0023ac:	b32fc48b          	lurhu	s1,t6,s2,1
 c0023b0:	7c093c0b          	extu	s8,s2,31,0
 c0023b4:	0004829b          	sext.w	t0,s1
 c0023b8:	00d3fa63          	bgeu	t2,a3,c0023cc <LzmaDec_DecodeReal2+0xb86>
 c0023bc:	9817460b          	lbuia	a2,(a4),1,0
 c0023c0:	0087979b          	slliw	a5,a5,0x8
 c0023c4:	0083939b          	slliw	t2,t2,0x8
 c0023c8:	8fd1                	or	a5,a5,a2
 c0023ca:	2781                	sext.w	a5,a5
 c0023cc:	00b3db9b          	srliw	s7,t2,0xb
 c0023d0:	025b863b          	mulw	a2,s7,t0
 c0023d4:	00191e9b          	slliw	t4,s2,0x1
 c0023d8:	50c7fc63          	bgeu	a5,a2,c0028f0 <LzmaDec_DecodeReal2+0x10aa>
 c0023dc:	405402bb          	subw	t0,s0,t0
 c0023e0:	0052d29b          	srliw	t0,t0,0x5
 c0023e4:	009284bb          	addw	s1,t0,s1
 c0023e8:	3c04b48b          	extu	s1,s1,15,0
 c0023ec:	fc0e8e9b          	addiw	t4,t4,-64
 c0023f0:	238fd48b          	srh	s1,t6,s8,1
 c0023f4:	83f6                	mv	t2,t4
 c0023f6:	448d                	li	s1,3
 c0023f8:	0674ff63          	bgeu	s1,t2,c002476 <LzmaDec_DecodeReal2+0xc30>
 c0023fc:	001eff93          	andi	t6,t4,1
 c002400:	44b5                	li	s1,13
 c002402:	001ed29b          	srliw	t0,t4,0x1
 c002406:	002fef93          	ori	t6,t6,2
 c00240a:	5074ed63          	bltu	s1,t2,c002924 <LzmaDec_DecodeReal2+0x10de>
 c00240e:	32fd                	addiw	t0,t0,-1
 c002410:	005f9fbb          	sllw	t6,t6,t0
 c002414:	2f85                	addiw	t6,t6,1
 c002416:	4c05                	li	s8,1
 c002418:	74fd                	lui	s1,0xfffff
 c00241a:	30048493          	addi	s1,s1,768 # fffffffffffff300 <__BL2_END__+0xfffffffff3ff0090>
 c00241e:	7c0fbb8b          	extu	s7,t6,31,0
 c002422:	03749b8b          	addsl	s7,s1,s7,1
 c002426:	a175c48b          	lrhu	s1,a1,s7,0
 c00242a:	83a6                	mv	t2,s1
 c00242c:	00d67b63          	bgeu	a2,a3,c002442 <LzmaDec_DecodeReal2+0xbfc>
 c002430:	98174e8b          	lbuia	t4,(a4),1,0
 c002434:	0087979b          	slliw	a5,a5,0x8
 c002438:	0086161b          	slliw	a2,a2,0x8
 c00243c:	00fee7b3          	or	a5,t4,a5
 c002440:	2781                	sext.w	a5,a5
 c002442:	00b6591b          	srliw	s2,a2,0xb
 c002446:	02790d3b          	mulw	s10,s2,t2
 c00244a:	001c1e9b          	slliw	t4,s8,0x1
 c00244e:	4ba7fe63          	bgeu	a5,s10,c00290a <LzmaDec_DecodeReal2+0x10c4>
 c002452:	407403bb          	subw	t2,s0,t2
 c002456:	0053d39b          	srliw	t2,t2,0x5
 c00245a:	009384bb          	addw	s1,t2,s1
 c00245e:	3c04b48b          	extu	s1,s1,15,0
 c002462:	018f8fbb          	addw	t6,t6,s8
 c002466:	866a                	mv	a2,s10
 c002468:	2175d48b          	srh	s1,a1,s7,0
 c00246c:	32fd                	addiw	t0,t0,-1
 c00246e:	48029c63          	bnez	t0,c002906 <LzmaDec_DecodeReal2+0x10c0>
 c002472:	41df83bb          	subw	t2,t6,t4
 c002476:	44c9                	li	s1,18
 c002478:	00138f9b          	addiw	t6,t2,1
 c00247c:	6d14fb63          	bgeu	s1,a7,c002b52 <LzmaDec_DecodeReal2+0x130c>
 c002480:	48a9                	li	a7,10
 c002482:	6ee2                	ld	t4,24(sp)
 c002484:	41de1e8b          	mveqz	t4,t3,t4
 c002488:	73d3e863          	bltu	t2,t4,c002bb8 <LzmaDec_DecodeReal2+0x1372>
 c00248c:	03053423          	sd	a6,40(a0)
 c002490:	c18ff06f          	j	c0018a8 <LzmaDec_DecodeReal2+0x62>
 c002494:	0053d39b          	srliw	t2,t2,0x5
 c002498:	407c03bb          	subw	t2,s8,t2
 c00249c:	2375d38b          	srh	t2,a1,s7,1
 c0024a0:	018b0c13          	addi	s8,s6,24
 c0024a4:	a185cb8b          	lrhu	s7,a1,s8,0
 c0024a8:	40c48cbb          	subw	s9,s1,a2
 c0024ac:	9f91                	subw	a5,a5,a2
 c0024ae:	83de                	mv	t2,s7
 c0024b0:	00dcfc63          	bgeu	s9,a3,c0024c8 <LzmaDec_DecodeReal2+0xc82>
 c0024b4:	0087929b          	slliw	t0,a5,0x8
 c0024b8:	9817478b          	lbuia	a5,(a4),1,0
 c0024bc:	008c9c9b          	slliw	s9,s9,0x8
 c0024c0:	0057e2b3          	or	t0,a5,t0
 c0024c4:	0002879b          	sext.w	a5,t0
 c0024c8:	00bcd61b          	srliw	a2,s9,0xb
 c0024cc:	027602bb          	mulw	t0,a2,t2
 c0024d0:	8616                	mv	a2,t0
 c0024d2:	0a57f463          	bgeu	a5,t0,c00257a <LzmaDec_DecodeReal2+0xd34>
 c0024d6:	407403bb          	subw	t2,s0,t2
 c0024da:	0053d39b          	srliw	t2,t2,0x5
 c0024de:	74fd                	lui	s1,0xfffff
 c0024e0:	017383bb          	addw	t2,t2,s7
 c0024e4:	40048493          	addi	s1,s1,1024 # fffffffffffff400 <__BL2_END__+0xfffffffff3ff0190>
 c0024e8:	2185d38b          	srh	t2,a1,s8,0
 c0024ec:	9926                	add	s2,s2,s1
 c0024ee:	a125c48b          	lrhu	s1,a1,s2,0
 c0024f2:	83a6                	mv	t2,s1
 c0024f4:	00d2fa63          	bgeu	t0,a3,c002508 <LzmaDec_DecodeReal2+0xcc2>
 c0024f8:	9817460b          	lbuia	a2,(a4),1,0
 c0024fc:	0087979b          	slliw	a5,a5,0x8
 c002500:	0082929b          	slliw	t0,t0,0x8
 c002504:	8fd1                	or	a5,a5,a2
 c002506:	2781                	sext.w	a5,a5
 c002508:	00b2db1b          	srliw	s6,t0,0xb
 c00250c:	027b063b          	mulw	a2,s6,t2
 c002510:	8b32                	mv	s6,a2
 c002512:	02c7ff63          	bgeu	a5,a2,c002550 <LzmaDec_DecodeReal2+0xd0a>
 c002516:	407403bb          	subw	t2,s0,t2
 c00251a:	0053d39b          	srliw	t2,t2,0x5
 c00251e:	009383bb          	addw	t2,t2,s1
 c002522:	2125d38b          	srh	t2,a1,s2,0
 c002526:	7c0fb38b          	extu	t2,t6,31,0
 c00252a:	40780eb3          	sub	t4,a6,t2
 c00252e:	82d6                	mv	t0,s5
 c002530:	00786363          	bltu	a6,t2,c002536 <LzmaDec_DecodeReal2+0xcf0>
 c002534:	4281                	li	t0,0
 c002536:	9ed2                	add	t4,t4,s4
 c002538:	805ece8b          	lrbu	t4,t4,t0,0
 c00253c:	2e05                	addiw	t3,t3,1
 c00253e:	010a5e8b          	srb	t4,s4,a6,0
 c002542:	4e99                	li	t4,6
 c002544:	0805                	addi	a6,a6,1
 c002546:	6b1ef063          	bgeu	t4,a7,c002be6 <LzmaDec_DecodeReal2+0x13a0>
 c00254a:	48ad                	li	a7,11
 c00254c:	ed6ff06f          	j	c001c22 <LzmaDec_DecodeReal2+0x3dc>
 c002550:	0053d39b          	srliw	t2,t2,0x5
 c002554:	837a                	mv	t1,t5
 c002556:	407483bb          	subw	t2,s1,t2
 c00255a:	8f7e                	mv	t5,t6
 c00255c:	40c2863b          	subw	a2,t0,a2
 c002560:	416787bb          	subw	a5,a5,s6
 c002564:	2125d38b          	srh	t2,a1,s2,0
 c002568:	8f9a                	mv	t6,t1
 c00256a:	4319                	li	t1,6
 c00256c:	0d137863          	bgeu	t1,a7,c00263c <LzmaDec_DecodeReal2+0xdf6>
 c002570:	48ad                	li	a7,11
 c002572:	8b7a                	mv	s6,t5
 c002574:	62a6                	ld	t0,72(sp)
 c002576:	8f7e                	mv	t5,t6
 c002578:	b67d                	j	c002126 <LzmaDec_DecodeReal2+0x8e0>
 c00257a:	0053d39b          	srliw	t2,t2,0x5
 c00257e:	407b83bb          	subw	t2,s7,t2
 c002582:	2185d38b          	srh	t2,a1,s8,0
 c002586:	030b0493          	addi	s1,s6,48
 c00258a:	a095c38b          	lrhu	t2,a1,s1,0
 c00258e:	405c82bb          	subw	t0,s9,t0
 c002592:	9f91                	subw	a5,a5,a2
 c002594:	831e                	mv	t1,t2
 c002596:	00d2fb63          	bgeu	t0,a3,c0025ac <LzmaDec_DecodeReal2+0xd66>
 c00259a:	0087961b          	slliw	a2,a5,0x8
 c00259e:	9817478b          	lbuia	a5,(a4),1,0
 c0025a2:	0082929b          	slliw	t0,t0,0x8
 c0025a6:	8e5d                	or	a2,a2,a5
 c0025a8:	0006079b          	sext.w	a5,a2
 c0025ac:	00b2d91b          	srliw	s2,t0,0xb
 c0025b0:	0269063b          	mulw	a2,s2,t1
 c0025b4:	00c7fb63          	bgeu	a5,a2,c0025ca <LzmaDec_DecodeReal2+0xd84>
 c0025b8:	4064033b          	subw	t1,s0,t1
 c0025bc:	0053531b          	srliw	t1,t1,0x5
 c0025c0:	0073033b          	addw	t1,t1,t2
 c0025c4:	2095d30b          	srh	t1,a1,s1,0
 c0025c8:	b74d                	j	c00256a <LzmaDec_DecodeReal2+0xd24>
 c0025ca:	0053531b          	srliw	t1,t1,0x5
 c0025ce:	4063833b          	subw	t1,t2,t1
 c0025d2:	2095d30b          	srh	t1,a1,s1,0
 c0025d6:	048b0b13          	addi	s6,s6,72
 c0025da:	a165c38b          	lrhu	t2,a1,s6,0
 c0025de:	40c28bbb          	subw	s7,t0,a2
 c0025e2:	9f91                	subw	a5,a5,a2
 c0025e4:	831e                	mv	t1,t2
 c0025e6:	00dbfc63          	bgeu	s7,a3,c0025fe <LzmaDec_DecodeReal2+0xdb8>
 c0025ea:	0087991b          	slliw	s2,a5,0x8
 c0025ee:	9817478b          	lbuia	a5,(a4),1,0
 c0025f2:	008b9b9b          	slliw	s7,s7,0x8
 c0025f6:	0127e933          	or	s2,a5,s2
 c0025fa:	0009079b          	sext.w	a5,s2
 c0025fe:	00bbd29b          	srliw	t0,s7,0xb
 c002602:	0262863b          	mulw	a2,t0,t1
 c002606:	00c7fe63          	bgeu	a5,a2,c002622 <LzmaDec_DecodeReal2+0xddc>
 c00260a:	4064033b          	subw	t1,s0,t1
 c00260e:	0053531b          	srliw	t1,t1,0x5
 c002612:	0073033b          	addw	t1,t1,t2
 c002616:	2165d30b          	srh	t1,a1,s6,0
 c00261a:	837a                	mv	t1,t5
 c00261c:	8f4e                	mv	t5,s3
 c00261e:	899a                	mv	s3,t1
 c002620:	b7a9                	j	c00256a <LzmaDec_DecodeReal2+0xd24>
 c002622:	0053531b          	srliw	t1,t1,0x5
 c002626:	4063833b          	subw	t1,t2,t1
 c00262a:	9f91                	subw	a5,a5,a2
 c00262c:	2165d30b          	srh	t1,a1,s6,0
 c002630:	40cb863b          	subw	a2,s7,a2
 c002634:	837a                	mv	t1,t5
 c002636:	7f02                	ld	t5,32(sp)
 c002638:	f04e                	sd	s3,32(sp)
 c00263a:	b7d5                	j	c00261e <LzmaDec_DecodeReal2+0xdd8>
 c00263c:	48a1                	li	a7,8
 c00263e:	bf15                	j	c002572 <LzmaDec_DecodeReal2+0xd2c>
 c002640:	0056561b          	srliw	a2,a2,0x5
 c002644:	40ce8ebb          	subw	t4,t4,a2
 c002648:	41f787bb          	subw	a5,a5,t6
 c00264c:	3c0ebe8b          	extu	t4,t4,15,0
 c002650:	41f48fbb          	subw	t6,s1,t6
 c002654:	430d                	li	t1,3
 c002656:	b6b1                	j	c0021a2 <LzmaDec_DecodeReal2+0x95c>
 c002658:	0056561b          	srliw	a2,a2,0x5
 c00265c:	40c383bb          	subw	t2,t2,a2
 c002660:	41d787bb          	subw	a5,a5,t4
 c002664:	3c03b38b          	extu	t2,t2,15,0
 c002668:	001b831b          	addiw	t1,s7,1
 c00266c:	41df8ebb          	subw	t4,t6,t4
 c002670:	bead                	j	c0021ea <LzmaDec_DecodeReal2+0x9a4>
 c002672:	005fdf9b          	srliw	t6,t6,0x5
 c002676:	41f383bb          	subw	t2,t2,t6
 c00267a:	9f91                	subw	a5,a5,a2
 c00267c:	3c03b38b          	extu	t2,t2,15,0
 c002680:	2305                	addiw	t1,t1,1
 c002682:	40ce863b          	subw	a2,t4,a2
 c002686:	b665                	j	c00222e <LzmaDec_DecodeReal2+0x9e8>
 c002688:	005fdf9b          	srliw	t6,t6,0x5
 c00268c:	41f38fbb          	subw	t6,t2,t6
 c002690:	0102d383          	lhu	t2,16(t0)
 c002694:	01f29023          	sh	t6,0(t0)
 c002698:	9e05                	subw	a2,a2,s1
 c00269a:	406787bb          	subw	a5,a5,t1
 c00269e:	8f9e                	mv	t6,t2
 c0026a0:	00d67c63          	bgeu	a2,a3,c0026b8 <LzmaDec_DecodeReal2+0xe72>
 c0026a4:	0087931b          	slliw	t1,a5,0x8
 c0026a8:	9817478b          	lbuia	a5,(a4),1,0
 c0026ac:	0086161b          	slliw	a2,a2,0x8
 c0026b0:	0067e333          	or	t1,a5,t1
 c0026b4:	0003079b          	sext.w	a5,t1
 c0026b8:	00b6531b          	srliw	t1,a2,0xb
 c0026bc:	03f304bb          	mulw	s1,t1,t6
 c0026c0:	1297f763          	bgeu	a5,s1,c0027ee <LzmaDec_DecodeReal2+0xfa8>
 c0026c4:	41f40fbb          	subw	t6,s0,t6
 c0026c8:	005fdf9b          	srliw	t6,t6,0x5
 c0026cc:	7c0ebe8b          	extu	t4,t4,31,0
 c0026d0:	007f8fbb          	addw	t6,t6,t2
 c0026d4:	0ea1                	addi	t4,t4,8
 c0026d6:	01f29823          	sh	t6,16(t0)
 c0026da:	03d2928b          	addsl	t0,t0,t4,1
 c0026de:	0022df83          	lhu	t6,2(t0)
 c0026e2:	867e                	mv	a2,t6
 c0026e4:	00d4fb63          	bgeu	s1,a3,c0026fa <LzmaDec_DecodeReal2+0xeb4>
 c0026e8:	9817430b          	lbuia	t1,(a4),1,0
 c0026ec:	0087979b          	slliw	a5,a5,0x8
 c0026f0:	0084949b          	slliw	s1,s1,0x8
 c0026f4:	00f367b3          	or	a5,t1,a5
 c0026f8:	2781                	sext.w	a5,a5
 c0026fa:	00b4d31b          	srliw	t1,s1,0xb
 c0026fe:	02c30ebb          	mulw	t4,t1,a2
 c002702:	0bd7f263          	bgeu	a5,t4,c0027a6 <LzmaDec_DecodeReal2+0xf60>
 c002706:	40c4063b          	subw	a2,s0,a2
 c00270a:	0056561b          	srliw	a2,a2,0x5
 c00270e:	01f60fbb          	addw	t6,a2,t6
 c002712:	3c0fbf8b          	extu	t6,t6,15,0
 c002716:	4309                	li	t1,2
 c002718:	01f29123          	sh	t6,2(t0)
 c00271c:	b262c38b          	lurhu	t2,t0,t1,1
 c002720:	7c03390b          	extu	s2,t1,31,0
 c002724:	0003861b          	sext.w	a2,t2
 c002728:	00defb63          	bgeu	t4,a3,c00273e <LzmaDec_DecodeReal2+0xef8>
 c00272c:	98174f8b          	lbuia	t6,(a4),1,0
 c002730:	0087979b          	slliw	a5,a5,0x8
 c002734:	008e9e9b          	slliw	t4,t4,0x8
 c002738:	00ffe7b3          	or	a5,t6,a5
 c00273c:	2781                	sext.w	a5,a5
 c00273e:	00bed49b          	srliw	s1,t4,0xb
 c002742:	02c48fbb          	mulw	t6,s1,a2
 c002746:	00131b9b          	slliw	s7,t1,0x1
 c00274a:	0306                	slli	t1,t1,0x1
 c00274c:	07f7f963          	bgeu	a5,t6,c0027be <LzmaDec_DecodeReal2+0xf78>
 c002750:	40c4063b          	subw	a2,s0,a2
 c002754:	0056561b          	srliw	a2,a2,0x5
 c002758:	007603bb          	addw	t2,a2,t2
 c00275c:	3c03b38b          	extu	t2,t2,15,0
 c002760:	2322d38b          	srh	t2,t0,s2,1
 c002764:	b262c48b          	lurhu	s1,t0,t1,1
 c002768:	7c03390b          	extu	s2,t1,31,0
 c00276c:	00048e9b          	sext.w	t4,s1
 c002770:	00dffa63          	bgeu	t6,a3,c002784 <LzmaDec_DecodeReal2+0xf3e>
 c002774:	9817460b          	lbuia	a2,(a4),1,0
 c002778:	0087979b          	slliw	a5,a5,0x8
 c00277c:	008f9f9b          	slliw	t6,t6,0x8
 c002780:	8fd1                	or	a5,a5,a2
 c002782:	2781                	sext.w	a5,a5
 c002784:	00bfd39b          	srliw	t2,t6,0xb
 c002788:	03d3863b          	mulw	a2,t2,t4
 c00278c:	0013131b          	slliw	t1,t1,0x1
 c002790:	04c7f463          	bgeu	a5,a2,c0027d8 <LzmaDec_DecodeReal2+0xf92>
 c002794:	41d40ebb          	subw	t4,s0,t4
 c002798:	005ede9b          	srliw	t4,t4,0x5
 c00279c:	009e8ebb          	addw	t4,t4,s1
 c0027a0:	2322de8b          	srh	t4,t0,s2,1
 c0027a4:	bc41                	j	c002234 <LzmaDec_DecodeReal2+0x9ee>
 c0027a6:	0056561b          	srliw	a2,a2,0x5
 c0027aa:	40cf8fbb          	subw	t6,t6,a2
 c0027ae:	41d787bb          	subw	a5,a5,t4
 c0027b2:	3c0fbf8b          	extu	t6,t6,15,0
 c0027b6:	41d48ebb          	subw	t4,s1,t4
 c0027ba:	430d                	li	t1,3
 c0027bc:	bfb1                	j	c002718 <LzmaDec_DecodeReal2+0xed2>
 c0027be:	0056561b          	srliw	a2,a2,0x5
 c0027c2:	40c383bb          	subw	t2,t2,a2
 c0027c6:	41f787bb          	subw	a5,a5,t6
 c0027ca:	3c03b38b          	extu	t2,t2,15,0
 c0027ce:	001b831b          	addiw	t1,s7,1
 c0027d2:	41fe8fbb          	subw	t6,t4,t6
 c0027d6:	b769                	j	c002760 <LzmaDec_DecodeReal2+0xf1a>
 c0027d8:	005ede9b          	srliw	t4,t4,0x5
 c0027dc:	41d48ebb          	subw	t4,s1,t4
 c0027e0:	9f91                	subw	a5,a5,a2
 c0027e2:	2322de8b          	srh	t4,t0,s2,1
 c0027e6:	2305                	addiw	t1,t1,1
 c0027e8:	40cf863b          	subw	a2,t6,a2
 c0027ec:	b4a1                	j	c002234 <LzmaDec_DecodeReal2+0x9ee>
 c0027ee:	005fdf9b          	srliw	t6,t6,0x5
 c0027f2:	41f38fbb          	subw	t6,t2,t6
 c0027f6:	9e05                	subw	a2,a2,s1
 c0027f8:	9f85                	subw	a5,a5,s1
 c0027fa:	01f29823          	sh	t6,16(t0)
 c0027fe:	4305                	li	t1,1
 c002800:	0ff00b93          	li	s7,255
 c002804:	7c033e8b          	extu	t4,t1,31,0
 c002808:	0e86                	slli	t4,t4,0x1
 c00280a:	200e8e93          	addi	t4,t4,512
 c00280e:	a1d2cf8b          	lrhu	t6,t0,t4,0
 c002812:	01d28c33          	add	s8,t0,t4
 c002816:	8efe                	mv	t4,t6
 c002818:	00d67b63          	bgeu	a2,a3,c00282e <LzmaDec_DecodeReal2+0xfe8>
 c00281c:	9817438b          	lbuia	t2,(a4),1,0
 c002820:	0087979b          	slliw	a5,a5,0x8
 c002824:	0086161b          	slliw	a2,a2,0x8
 c002828:	00f3e7b3          	or	a5,t2,a5
 c00282c:	2781                	sext.w	a5,a5
 c00282e:	00b6539b          	srliw	t2,a2,0xb
 c002832:	03d3893b          	mulw	s2,t2,t4
 c002836:	0013131b          	slliw	t1,t1,0x1
 c00283a:	0327f263          	bgeu	a5,s2,c00285e <LzmaDec_DecodeReal2+0x1018>
 c00283e:	41d40ebb          	subw	t4,s0,t4
 c002842:	005ede9b          	srliw	t4,t4,0x5
 c002846:	01fe8fbb          	addw	t6,t4,t6
 c00284a:	3c0fbf8b          	extu	t6,t6,15,0
 c00284e:	864a                	mv	a2,s2
 c002850:	01fc1023          	sh	t6,0(s8)
 c002854:	fa6bf8e3          	bgeu	s7,t1,c002804 <LzmaDec_DecodeReal2+0xfbe>
 c002858:	f103031b          	addiw	t1,t1,-240
 c00285c:	bae1                	j	c002234 <LzmaDec_DecodeReal2+0x9ee>
 c00285e:	005ede9b          	srliw	t4,t4,0x5
 c002862:	41df8fbb          	subw	t6,t6,t4
 c002866:	4126063b          	subw	a2,a2,s2
 c00286a:	412787bb          	subw	a5,a5,s2
 c00286e:	3c0fbf8b          	extu	t6,t6,15,0
 c002872:	2305                	addiw	t1,t1,1
 c002874:	bff1                	j	c002850 <LzmaDec_DecodeReal2+0x100a>
 c002876:	005ede9b          	srliw	t4,t4,0x5
 c00287a:	41d383bb          	subw	t2,t2,t4
 c00287e:	405787bb          	subw	a5,a5,t0
 c002882:	3c03b38b          	extu	t2,t2,15,0
 c002886:	405602bb          	subw	t0,a2,t0
 c00288a:	460d                	li	a2,3
 c00288c:	b409                	j	c00228e <LzmaDec_DecodeReal2+0xa48>
 c00288e:	005ede9b          	srliw	t4,t4,0x5
 c002892:	41d484bb          	subw	s1,s1,t4
 c002896:	407787bb          	subw	a5,a5,t2
 c00289a:	3c04b48b          	extu	s1,s1,15,0
 c00289e:	001c061b          	addiw	a2,s8,1
 c0028a2:	407283bb          	subw	t2,t0,t2
 c0028a6:	bc05                	j	c0022d6 <LzmaDec_DecodeReal2+0xa90>
 c0028a8:	005ede9b          	srliw	t4,t4,0x5
 c0028ac:	41d484bb          	subw	s1,s1,t4
 c0028b0:	405787bb          	subw	a5,a5,t0
 c0028b4:	3c04b48b          	extu	s1,s1,15,0
 c0028b8:	2905                	addiw	s2,s2,1
 c0028ba:	405382bb          	subw	t0,t2,t0
 c0028be:	bcb9                	j	c00231c <LzmaDec_DecodeReal2+0xad6>
 c0028c0:	0056561b          	srliw	a2,a2,0x5
 c0028c4:	40c383bb          	subw	t2,t2,a2
 c0028c8:	41d787bb          	subw	a5,a5,t4
 c0028cc:	3c03b38b          	extu	t2,t2,15,0
 c0028d0:	2485                	addiw	s1,s1,1
 c0028d2:	41d28ebb          	subw	t4,t0,t4
 c0028d6:	b471                	j	c002362 <LzmaDec_DecodeReal2+0xb1c>
 c0028d8:	0056561b          	srliw	a2,a2,0x5
 c0028dc:	40c282bb          	subw	t0,t0,a2
 c0028e0:	407787bb          	subw	a5,a5,t2
 c0028e4:	3c02b28b          	extu	t0,t0,15,0
 c0028e8:	2905                	addiw	s2,s2,1
 c0028ea:	407e83bb          	subw	t2,t4,t2
 c0028ee:	bc6d                	j	c0023a8 <LzmaDec_DecodeReal2+0xb62>
 c0028f0:	0052d29b          	srliw	t0,t0,0x5
 c0028f4:	405484bb          	subw	s1,s1,t0
 c0028f8:	9f91                	subw	a5,a5,a2
 c0028fa:	3c04b48b          	extu	s1,s1,15,0
 c0028fe:	2e85                	addiw	t4,t4,1
 c002900:	40c3863b          	subw	a2,t2,a2
 c002904:	b4e5                	j	c0023ec <LzmaDec_DecodeReal2+0xba6>
 c002906:	8c76                	mv	s8,t4
 c002908:	be01                	j	c002418 <LzmaDec_DecodeReal2+0xbd2>
 c00290a:	0053d39b          	srliw	t2,t2,0x5
 c00290e:	407484bb          	subw	s1,s1,t2
 c002912:	41a6063b          	subw	a2,a2,s10
 c002916:	41a787bb          	subw	a5,a5,s10
 c00291a:	3c04b48b          	extu	s1,s1,15,0
 c00291e:	01fe8fbb          	addw	t6,t4,t6
 c002922:	b699                	j	c002468 <LzmaDec_DecodeReal2+0xc22>
 c002924:	32ed                	addiw	t0,t0,-5
 c002926:	00d67b63          	bgeu	a2,a3,c00293c <LzmaDec_DecodeReal2+0x10f6>
 c00292a:	98174e8b          	lbuia	t4,(a4),1,0
 c00292e:	0087979b          	slliw	a5,a5,0x8
 c002932:	0086161b          	slliw	a2,a2,0x8
 c002936:	00fee7b3          	or	a5,t4,a5
 c00293a:	2781                	sext.w	a5,a5
 c00293c:	0016539b          	srliw	t2,a2,0x1
 c002940:	407787bb          	subw	a5,a5,t2
 c002944:	41f7d49b          	sraiw	s1,a5,0x1f
 c002948:	001f9f9b          	slliw	t6,t6,0x1
 c00294c:	861e                	mv	a2,t2
 c00294e:	2f85                	addiw	t6,t6,1
 c002950:	0093f3b3          	and	t2,t2,s1
 c002954:	32fd                	addiw	t0,t0,-1
 c002956:	01f48fbb          	addw	t6,s1,t6
 c00295a:	007787bb          	addw	a5,a5,t2
 c00295e:	fc0294e3          	bnez	t0,c002926 <LzmaDec_DecodeReal2+0x10e0>
 c002962:	0025d283          	lhu	t0,2(a1)
 c002966:	004f9f9b          	slliw	t6,t6,0x4
 c00296a:	8e96                	mv	t4,t0
 c00296c:	00d67b63          	bgeu	a2,a3,c002982 <LzmaDec_DecodeReal2+0x113c>
 c002970:	9817438b          	lbuia	t2,(a4),1,0
 c002974:	0087979b          	slliw	a5,a5,0x8
 c002978:	0086161b          	slliw	a2,a2,0x8
 c00297c:	00f3e7b3          	or	a5,t2,a5
 c002980:	2781                	sext.w	a5,a5
 c002982:	00b6549b          	srliw	s1,a2,0xb
 c002986:	03d483bb          	mulw	t2,s1,t4
 c00298a:	1677f763          	bgeu	a5,t2,c002af8 <LzmaDec_DecodeReal2+0x12b2>
 c00298e:	41d40ebb          	subw	t4,s0,t4
 c002992:	005ede9b          	srliw	t4,t4,0x5
 c002996:	005e82bb          	addw	t0,t4,t0
 c00299a:	3c02b28b          	extu	t0,t0,15,0
 c00299e:	4e89                	li	t4,2
 c0029a0:	00559123          	sh	t0,2(a1)
 c0029a4:	b3d5c48b          	lurhu	s1,a1,t4,1
 c0029a8:	7c0ebb8b          	extu	s7,t4,31,0
 c0029ac:	0004861b          	sext.w	a2,s1
 c0029b0:	00d3fb63          	bgeu	t2,a3,c0029c6 <LzmaDec_DecodeReal2+0x1180>
 c0029b4:	9817428b          	lbuia	t0,(a4),1,0
 c0029b8:	0087979b          	slliw	a5,a5,0x8
 c0029bc:	0083939b          	slliw	t2,t2,0x8
 c0029c0:	00f2e7b3          	or	a5,t0,a5
 c0029c4:	2781                	sext.w	a5,a5
 c0029c6:	00b3d91b          	srliw	s2,t2,0xb
 c0029ca:	02c902bb          	mulw	t0,s2,a2
 c0029ce:	1457f163          	bgeu	a5,t0,c002b10 <LzmaDec_DecodeReal2+0x12ca>
 c0029d2:	40c4063b          	subw	a2,s0,a2
 c0029d6:	0056561b          	srliw	a2,a2,0x5
 c0029da:	9cb1                	addw	s1,s1,a2
 c0029dc:	3c04b48b          	extu	s1,s1,15,0
 c0029e0:	0e89                	addi	t4,t4,2
 c0029e2:	2375d48b          	srh	s1,a1,s7,1
 c0029e6:	b3d5cb8b          	lurhu	s7,a1,t4,1
 c0029ea:	7c0eb90b          	extu	s2,t4,31,0
 c0029ee:	000b861b          	sext.w	a2,s7
 c0029f2:	00d2fb63          	bgeu	t0,a3,c002a08 <LzmaDec_DecodeReal2+0x11c2>
 c0029f6:	9817438b          	lbuia	t2,(a4),1,0
 c0029fa:	0087979b          	slliw	a5,a5,0x8
 c0029fe:	0082929b          	slliw	t0,t0,0x8
 c002a02:	00f3e7b3          	or	a5,t2,a5
 c002a06:	2781                	sext.w	a5,a5
 c002a08:	00b2d49b          	srliw	s1,t0,0xb
 c002a0c:	02c483bb          	mulw	t2,s1,a2
 c002a10:	1077fb63          	bgeu	a5,t2,c002b26 <LzmaDec_DecodeReal2+0x12e0>
 c002a14:	40c4063b          	subw	a2,s0,a2
 c002a18:	0056561b          	srliw	a2,a2,0x5
 c002a1c:	01760bbb          	addw	s7,a2,s7
 c002a20:	3c0bbb8b          	extu	s7,s7,15,0
 c002a24:	2e91                	addiw	t4,t4,4
 c002a26:	2325db8b          	srh	s7,a1,s2,1
 c002a2a:	b3d5c48b          	lurhu	s1,a1,t4,1
 c002a2e:	7c0ebb8b          	extu	s7,t4,31,0
 c002a32:	0004829b          	sext.w	t0,s1
 c002a36:	00d3fa63          	bgeu	t2,a3,c002a4a <LzmaDec_DecodeReal2+0x1204>
 c002a3a:	9817460b          	lbuia	a2,(a4),1,0
 c002a3e:	0087979b          	slliw	a5,a5,0x8
 c002a42:	0083939b          	slliw	t2,t2,0x8
 c002a46:	8fd1                	or	a5,a5,a2
 c002a48:	2781                	sext.w	a5,a5
 c002a4a:	00b3d91b          	srliw	s2,t2,0xb
 c002a4e:	0259063b          	mulw	a2,s2,t0
 c002a52:	0ec7f663          	bgeu	a5,a2,c002b3e <LzmaDec_DecodeReal2+0x12f8>
 c002a56:	405402bb          	subw	t0,s0,t0
 c002a5a:	0052d29b          	srliw	t0,t0,0x5
 c002a5e:	009284bb          	addw	s1,t0,s1
 c002a62:	3c04b48b          	extu	s1,s1,15,0
 c002a66:	3ee1                	addiw	t4,t4,-8
 c002a68:	2375d48b          	srh	s1,a1,s7,1
 c002a6c:	01feefb3          	or	t6,t4,t6
 c002a70:	54fd                	li	s1,-1
 c002a72:	83fe                	mv	t2,t6
 c002a74:	a09f91e3          	bne	t6,s1,c002476 <LzmaDec_DecodeReal2+0xc30>
 c002a78:	38d1                	addiw	a7,a7,-12
 c002a7a:	8fda                	mv	t6,s6
 c002a7c:	11200313          	li	t1,274
 c002a80:	010006b7          	lui	a3,0x1000
 c002a84:	00d67a63          	bgeu	a2,a3,c002a98 <LzmaDec_DecodeReal2+0x1252>
 c002a88:	0087969b          	slliw	a3,a5,0x8
 c002a8c:	9817478b          	lbuia	a5,(a4),1,0
 c002a90:	0086161b          	slliw	a2,a2,0x8
 c002a94:	8fd5                	or	a5,a5,a3
 c002a96:	2781                	sext.w	a5,a5
 c002a98:	dd5c                	sw	a5,60(a0)
 c002a9a:	7782                	ld	a5,32(sp)
 c002a9c:	f918                	sd	a4,48(a0)
 c002a9e:	dd10                	sw	a2,56(a0)
 c002aa0:	c97c                	sw	a5,84(a0)
 c002aa2:	417c                	lw	a5,68(a0)
 c002aa4:	04652e23          	sw	t1,92(a0)
 c002aa8:	03053423          	sd	a6,40(a0)
 c002aac:	05c52023          	sw	t3,64(a0)
 c002ab0:	05f52423          	sw	t6,72(a0)
 c002ab4:	05e52623          	sw	t5,76(a0)
 c002ab8:	05352823          	sw	s3,80(a0)
 c002abc:	05152c23          	sw	a7,88(a0)
 c002ac0:	e789                	bnez	a5,c002aca <LzmaDec_DecodeReal2+0x1284>
 c002ac2:	415c                	lw	a5,4(a0)
 c002ac4:	00fe6363          	bltu	t3,a5,c002aca <LzmaDec_DecodeReal2+0x1284>
 c002ac8:	c17c                	sw	a5,68(a0)
 c002aca:	65c2                	ld	a1,16(sp)
 c002acc:	e42a                	sd	a0,8(sp)
 c002ace:	d07fe0ef          	jal	ra,c0017d4 <LzmaDec_WriteRem>
 c002ad2:	6522                	ld	a0,8(sp)
 c002ad4:	6742                	ld	a4,16(sp)
 c002ad6:	751c                	ld	a5,40(a0)
 c002ad8:	00e7fd63          	bgeu	a5,a4,c002af2 <LzmaDec_DecodeReal2+0x12ac>
 c002adc:	791c                	ld	a5,48(a0)
 c002ade:	7742                	ld	a4,48(sp)
 c002ae0:	00e7f963          	bgeu	a5,a4,c002af2 <LzmaDec_DecodeReal2+0x12ac>
 c002ae4:	4d78                	lw	a4,92(a0)
 c002ae6:	11100793          	li	a5,273
 c002aea:	00e7e463          	bltu	a5,a4,c002af2 <LzmaDec_DecodeReal2+0x12ac>
 c002aee:	d7ffe06f          	j	c00186c <LzmaDec_DecodeReal2+0x26>
 c002af2:	4501                	li	a0,0
 c002af4:	db7fe06f          	j	c0018aa <LzmaDec_DecodeReal2+0x64>
 c002af8:	005ede9b          	srliw	t4,t4,0x5
 c002afc:	41d282bb          	subw	t0,t0,t4
 c002b00:	407787bb          	subw	a5,a5,t2
 c002b04:	3c02b28b          	extu	t0,t0,15,0
 c002b08:	407603bb          	subw	t2,a2,t2
 c002b0c:	4e8d                	li	t4,3
 c002b0e:	bd49                	j	c0029a0 <LzmaDec_DecodeReal2+0x115a>
 c002b10:	0056561b          	srliw	a2,a2,0x5
 c002b14:	9c91                	subw	s1,s1,a2
 c002b16:	405787bb          	subw	a5,a5,t0
 c002b1a:	3c04b48b          	extu	s1,s1,15,0
 c002b1e:	0e91                	addi	t4,t4,4
 c002b20:	405382bb          	subw	t0,t2,t0
 c002b24:	bd7d                	j	c0029e2 <LzmaDec_DecodeReal2+0x119c>
 c002b26:	0056561b          	srliw	a2,a2,0x5
 c002b2a:	40cb8bbb          	subw	s7,s7,a2
 c002b2e:	407787bb          	subw	a5,a5,t2
 c002b32:	3c0bbb8b          	extu	s7,s7,15,0
 c002b36:	2ea1                	addiw	t4,t4,8
 c002b38:	407283bb          	subw	t2,t0,t2
 c002b3c:	b5ed                	j	c002a26 <LzmaDec_DecodeReal2+0x11e0>
 c002b3e:	0052d29b          	srliw	t0,t0,0x5
 c002b42:	405484bb          	subw	s1,s1,t0
 c002b46:	9f91                	subw	a5,a5,a2
 c002b48:	3c04b48b          	extu	s1,s1,15,0
 c002b4c:	40c3863b          	subw	a2,t2,a2
 c002b50:	bf21                	j	c002a68 <LzmaDec_DecodeReal2+0x1222>
 c002b52:	489d                	li	a7,7
 c002b54:	b23d                	j	c002482 <LzmaDec_DecodeReal2+0xc3c>
 c002b56:	8fda                	mv	t6,s6
 c002b58:	64a2                	ld	s1,8(sp)
 c002b5a:	00230e9b          	addiw	t4,t1,2
 c002b5e:	8376                	mv	t1,t4
 c002b60:	410483b3          	sub	t2,s1,a6
 c002b64:	930484e3          	beq	s1,a6,c00248c <LzmaDec_DecodeReal2+0xc46>
 c002b68:	7c0eb28b          	extu	t0,t4,31,0
 c002b6c:	0053f463          	bgeu	t2,t0,c002b74 <LzmaDec_DecodeReal2+0x132e>
 c002b70:	00038e9b          	sext.w	t4,t2
 c002b74:	7c0fb48b          	extu	s1,t6,31,0
 c002b78:	409803b3          	sub	t2,a6,s1
 c002b7c:	82d6                	mv	t0,s5
 c002b7e:	00986363          	bltu	a6,s1,c002b84 <LzmaDec_DecodeReal2+0x133e>
 c002b82:	4281                	li	t0,0
 c002b84:	9396                	add	t2,t2,t0
 c002b86:	7c0eb48b          	extu	s1,t4,31,0
 c002b8a:	407a8933          	sub	s2,s5,t2
 c002b8e:	01de0e3b          	addw	t3,t3,t4
 c002b92:	41d3033b          	subw	t1,t1,t4
 c002b96:	010a02b3          	add	t0,s4,a6
 c002b9a:	02996363          	bltu	s2,s1,c002bc0 <LzmaDec_DecodeReal2+0x137a>
 c002b9e:	410383b3          	sub	t2,t2,a6
 c002ba2:	00928eb3          	add	t4,t0,s1
 c002ba6:	9826                	add	a6,a6,s1
 c002ba8:	8072c48b          	lrbu	s1,t0,t2,0
 c002bac:	1812d48b          	sbia	s1,(t0),1,0
 c002bb0:	fe5e9ce3          	bne	t4,t0,c002ba8 <LzmaDec_DecodeReal2+0x1362>
 c002bb4:	86eff06f          	j	c001c22 <LzmaDec_DecodeReal2+0x3dc>
 c002bb8:	f04e                	sd	s3,32(sp)
 c002bba:	89fa                	mv	s3,t5
 c002bbc:	8f5a                	mv	t5,s6
 c002bbe:	bf69                	j	c002b58 <LzmaDec_DecodeReal2+0x1312>
 c002bc0:	84f6                	mv	s1,t4
 c002bc2:	807a490b          	lrbu	s2,s4,t2,0
 c002bc6:	0385                	addi	t2,t2,1
 c002bc8:	01228023          	sb	s2,0(t0)
 c002bcc:	007a9363          	bne	s5,t2,c002bd2 <LzmaDec_DecodeReal2+0x138c>
 c002bd0:	4381                	li	t2,0
 c002bd2:	34fd                	addiw	s1,s1,-1
 c002bd4:	0285                	addi	t0,t0,1
 c002bd6:	f4f5                	bnez	s1,c002bc2 <LzmaDec_DecodeReal2+0x137c>
 c002bd8:	3efd                	addiw	t4,t4,-1
 c002bda:	0805                	addi	a6,a6,1
 c002bdc:	7c0ebe8b          	extu	t4,t4,31,0
 c002be0:	9876                	add	a6,a6,t4
 c002be2:	840ff06f          	j	c001c22 <LzmaDec_DecodeReal2+0x3dc>
 c002be6:	48a5                	li	a7,9
 c002be8:	83aff06f          	j	c001c22 <LzmaDec_DecodeReal2+0x3dc>

000000000c002bec <LzmaDec_TryDummy>:
 c002bec:	00254703          	lbu	a4,2(a0)
 c002bf0:	04052f03          	lw	t5,64(a0)
 c002bf4:	4805                	li	a6,1
 c002bf6:	00e8183b          	sllw	a6,a6,a4
 c002bfa:	05852e83          	lw	t4,88(a0)
 c002bfe:	387d                	addiw	a6,a6,-1
 c002c00:	010f7833          	and	a6,t5,a6
 c002c04:	01053883          	ld	a7,16(a0)
 c002c08:	0048181b          	slliw	a6,a6,0x4
 c002c0c:	010e8e3b          	addw	t3,t4,a6
 c002c10:	5d14                	lw	a3,56(a0)
 c002c12:	7c0e3e0b          	extu	t3,t3,31,0
 c002c16:	03c89e0b          	addsl	t3,a7,t3,1
 c002c1a:	01000737          	lui	a4,0x1000
 c002c1e:	5d5c                	lw	a5,60(a0)
 c002c20:	e00e5f83          	lhu	t6,-512(t3)
 c002c24:	832a                	mv	t1,a0
 c002c26:	962e                	add	a2,a2,a1
 c002c28:	00e6fd63          	bgeu	a3,a4,c002c42 <LzmaDec_TryDummy+0x56>
 c002c2c:	4501                	li	a0,0
 c002c2e:	0cc5f663          	bgeu	a1,a2,c002cfa <LzmaDec_TryDummy+0x10e>
 c002c32:	0087971b          	slliw	a4,a5,0x8
 c002c36:	9815c78b          	lbuia	a5,(a1),1,0
 c002c3a:	0086969b          	slliw	a3,a3,0x8
 c002c3e:	8fd9                	or	a5,a5,a4
 c002c40:	2781                	sext.w	a5,a5
 c002c42:	00b6d71b          	srliw	a4,a3,0xb
 c002c46:	03f7073b          	mulw	a4,a4,t6
 c002c4a:	14e7f163          	bgeu	a5,a4,c002d8c <LzmaDec_TryDummy+0x1a0>
 c002c4e:	04033683          	ld	a3,64(t1)
 c002c52:	28088893          	addi	a7,a7,640
 c002c56:	caa1                	beqz	a3,c002ca6 <LzmaDec_TryDummy+0xba>
 c002c58:	00134683          	lbu	a3,1(t1)
 c002c5c:	4805                	li	a6,1
 c002c5e:	00034e03          	lbu	t3,0(t1)
 c002c62:	00d8183b          	sllw	a6,a6,a3
 c002c66:	387d                	addiw	a6,a6,-1
 c002c68:	010f76b3          	and	a3,t5,a6
 c002c6c:	01c6983b          	sllw	a6,a3,t3
 c002c70:	02833683          	ld	a3,40(t1)
 c002c74:	01833f03          	ld	t5,24(t1)
 c002c78:	fff68513          	addi	a0,a3,-1 # ffffff <__BSS_SIZE__+0xffaf8f>
 c002c7c:	e681                	bnez	a3,c002c84 <LzmaDec_TryDummy+0x98>
 c002c7e:	02033503          	ld	a0,32(t1)
 c002c82:	157d                	addi	a0,a0,-1
 c002c84:	80af468b          	lrbu	a3,t5,a0,0
 c002c88:	4521                	li	a0,8
 c002c8a:	41c5053b          	subw	a0,a0,t3
 c002c8e:	40a6d6bb          	sraw	a3,a3,a0
 c002c92:	010686bb          	addw	a3,a3,a6
 c002c96:	30000513          	li	a0,768
 c002c9a:	02a686bb          	mulw	a3,a3,a0
 c002c9e:	7c06b68b          	extu	a3,a3,31,0
 c002ca2:	02d8988b          	addsl	a7,a7,a3,1
 c002ca6:	4699                	li	a3,6
 c002ca8:	05d6ec63          	bltu	a3,t4,c002d00 <LzmaDec_TryDummy+0x114>
 c002cac:	4685                	li	a3,1
 c002cae:	01000eb7          	lui	t4,0x1000
 c002cb2:	0ff00e13          	li	t3,255
 c002cb6:	b2d8c80b          	lurhu	a6,a7,a3,1
 c002cba:	01d77c63          	bgeu	a4,t4,c002cd2 <LzmaDec_TryDummy+0xe6>
 c002cbe:	2ec5fa63          	bgeu	a1,a2,c002fb2 <LzmaDec_TryDummy+0x3c6>
 c002cc2:	0087951b          	slliw	a0,a5,0x8
 c002cc6:	9815c78b          	lbuia	a5,(a1),1,0
 c002cca:	0087171b          	slliw	a4,a4,0x8
 c002cce:	8fc9                	or	a5,a5,a0
 c002cd0:	2781                	sext.w	a5,a5
 c002cd2:	00b7551b          	srliw	a0,a4,0xb
 c002cd6:	0305083b          	mulw	a6,a0,a6
 c002cda:	0016969b          	slliw	a3,a3,0x1
 c002cde:	0107ef63          	bltu	a5,a6,c002cfc <LzmaDec_TryDummy+0x110>
 c002ce2:	4107073b          	subw	a4,a4,a6
 c002ce6:	410787bb          	subw	a5,a5,a6
 c002cea:	2685                	addiw	a3,a3,1
 c002cec:	fcde75e3          	bgeu	t3,a3,c002cb6 <LzmaDec_TryDummy+0xca>
 c002cf0:	4505                	li	a0,1
 c002cf2:	010007b7          	lui	a5,0x1000
 c002cf6:	2af76c63          	bltu	a4,a5,c002fae <LzmaDec_TryDummy+0x3c2>
 c002cfa:	8082                	ret
 c002cfc:	8742                	mv	a4,a6
 c002cfe:	b7fd                	j	c002cec <LzmaDec_TryDummy+0x100>
 c002d00:	02833e03          	ld	t3,40(t1)
 c002d04:	04836803          	lwu	a6,72(t1)
 c002d08:	01833683          	ld	a3,24(t1)
 c002d0c:	4501                	li	a0,0
 c002d0e:	410e0eb3          	sub	t4,t3,a6
 c002d12:	010e7463          	bgeu	t3,a6,c002d1a <LzmaDec_TryDummy+0x12e>
 c002d16:	02033503          	ld	a0,32(t1)
 c002d1a:	96f6                	add	a3,a3,t4
 c002d1c:	80a6ce0b          	lrbu	t3,a3,a0,0
 c002d20:	010002b7          	lui	t0,0x1000
 c002d24:	4685                	li	a3,1
 c002d26:	10000513          	li	a0,256
 c002d2a:	0ff00f93          	li	t6,255
 c002d2e:	001e181b          	slliw	a6,t3,0x1
 c002d32:	00d5033b          	addw	t1,a0,a3
 c002d36:	8e42                	mv	t3,a6
 c002d38:	01057833          	and	a6,a0,a6
 c002d3c:	00080e9b          	sext.w	t4,a6
 c002d40:	0103083b          	addw	a6,t1,a6
 c002d44:	b308c30b          	lurhu	t1,a7,a6,1
 c002d48:	00577d63          	bgeu	a4,t0,c002d62 <LzmaDec_TryDummy+0x176>
 c002d4c:	26c5f363          	bgeu	a1,a2,c002fb2 <LzmaDec_TryDummy+0x3c6>
 c002d50:	0087981b          	slliw	a6,a5,0x8
 c002d54:	9815c78b          	lbuia	a5,(a1),1,0
 c002d58:	0087171b          	slliw	a4,a4,0x8
 c002d5c:	0107e7b3          	or	a5,a5,a6
 c002d60:	2781                	sext.w	a5,a5
 c002d62:	00b7581b          	srliw	a6,a4,0xb
 c002d66:	02680f3b          	mulw	t5,a6,t1
 c002d6a:	0016969b          	slliw	a3,a3,0x1
 c002d6e:	01e7f863          	bgeu	a5,t5,c002d7e <LzmaDec_TryDummy+0x192>
 c002d72:	01d54533          	xor	a0,a0,t4
 c002d76:	877a                	mv	a4,t5
 c002d78:	fadffbe3          	bgeu	t6,a3,c002d2e <LzmaDec_TryDummy+0x142>
 c002d7c:	bf95                	j	c002cf0 <LzmaDec_TryDummy+0x104>
 c002d7e:	41e7073b          	subw	a4,a4,t5
 c002d82:	41e787bb          	subw	a5,a5,t5
 c002d86:	2685                	addiw	a3,a3,1
 c002d88:	8576                	mv	a0,t4
 c002d8a:	b7fd                	j	c002d78 <LzmaDec_TryDummy+0x18c>
 c002d8c:	7c0eb50b          	extu	a0,t4,31,0
 c002d90:	0541                	addi	a0,a0,16
 c002d92:	a2a8cf0b          	lrhu	t5,a7,a0,1
 c002d96:	00151e93          	slli	t4,a0,0x1
 c002d9a:	40e6833b          	subw	t1,a3,a4
 c002d9e:	01000537          	lui	a0,0x1000
 c002da2:	9f99                	subw	a5,a5,a4
 c002da4:	00a37d63          	bgeu	t1,a0,c002dbe <LzmaDec_TryDummy+0x1d2>
 c002da8:	4501                	li	a0,0
 c002daa:	f4c5f8e3          	bgeu	a1,a2,c002cfa <LzmaDec_TryDummy+0x10e>
 c002dae:	9815c70b          	lbuia	a4,(a1),1,0
 c002db2:	0087979b          	slliw	a5,a5,0x8
 c002db6:	0083131b          	slliw	t1,t1,0x8
 c002dba:	8fd9                	or	a5,a5,a4
 c002dbc:	2781                	sext.w	a5,a5
 c002dbe:	00b3571b          	srliw	a4,t1,0xb
 c002dc2:	03e706bb          	mulw	a3,a4,t5
 c002dc6:	16d7f763          	bgeu	a5,a3,c002f34 <LzmaDec_TryDummy+0x348>
 c002dca:	a0088313          	addi	t1,a7,-1536
 c002dce:	4509                	li	a0,2
 c002dd0:	4f01                	li	t5,0
 c002dd2:	01000e37          	lui	t3,0x1000
 c002dd6:	00035703          	lhu	a4,0(t1)
 c002dda:	01c6fd63          	bgeu	a3,t3,c002df4 <LzmaDec_TryDummy+0x208>
 c002dde:	1cc5fa63          	bgeu	a1,a2,c002fb2 <LzmaDec_TryDummy+0x3c6>
 c002de2:	00879e1b          	slliw	t3,a5,0x8
 c002de6:	9815c78b          	lbuia	a5,(a1),1,0
 c002dea:	0086969b          	slliw	a3,a3,0x8
 c002dee:	01c7e7b3          	or	a5,a5,t3
 c002df2:	2781                	sext.w	a5,a5
 c002df4:	00b6de1b          	srliw	t3,a3,0xb
 c002df8:	02ee073b          	mulw	a4,t3,a4
 c002dfc:	24e7f463          	bgeu	a5,a4,c003044 <LzmaDec_TryDummy+0x458>
 c002e00:	7c08380b          	extu	a6,a6,31,0
 c002e04:	0303130b          	addsl	t1,t1,a6,1
 c002e08:	4801                	li	a6,0
 c002e0a:	46a1                	li	a3,8
 c002e0c:	4e05                	li	t3,1
 c002e0e:	010003b7          	lui	t2,0x1000
 c002e12:	b3c34f8b          	lurhu	t6,t1,t3,1
 c002e16:	00777d63          	bgeu	a4,t2,c002e30 <LzmaDec_TryDummy+0x244>
 c002e1a:	18c5fc63          	bgeu	a1,a2,c002fb2 <LzmaDec_TryDummy+0x3c6>
 c002e1e:	00879e9b          	slliw	t4,a5,0x8
 c002e22:	9815c78b          	lbuia	a5,(a1),1,0
 c002e26:	0087171b          	slliw	a4,a4,0x8
 c002e2a:	01d7e7b3          	or	a5,a5,t4
 c002e2e:	2781                	sext.w	a5,a5
 c002e30:	00b75e9b          	srliw	t4,a4,0xb
 c002e34:	03fe8fbb          	mulw	t6,t4,t6
 c002e38:	001e1e1b          	slliw	t3,t3,0x1
 c002e3c:	25f7ef63          	bltu	a5,t6,c00309a <LzmaDec_TryDummy+0x4ae>
 c002e40:	41f7073b          	subw	a4,a4,t6
 c002e44:	41f787bb          	subw	a5,a5,t6
 c002e48:	2e05                	addiw	t3,t3,1
 c002e4a:	fcde64e3          	bltu	t3,a3,c002e12 <LzmaDec_TryDummy+0x226>
 c002e4e:	430d                	li	t1,3
 c002e50:	ebe361e3          	bltu	t1,t5,c002cf2 <LzmaDec_TryDummy+0x106>
 c002e54:	40d806bb          	subw	a3,a6,a3
 c002e58:	01c6883b          	addw	a6,a3,t3
 c002e5c:	86c2                	mv	a3,a6
 c002e5e:	01037363          	bgeu	t1,a6,c002e64 <LzmaDec_TryDummy+0x278>
 c002e62:	468d                	li	a3,3
 c002e64:	0066981b          	slliw	a6,a3,0x6
 c002e68:	0408081b          	addiw	a6,a6,64
 c002e6c:	7c08380b          	extu	a6,a6,31,0
 c002e70:	4685                	li	a3,1
 c002e72:	01000fb7          	lui	t6,0x1000
 c002e76:	03f00f13          	li	t5,63
 c002e7a:	7c06b30b          	extu	t1,a3,31,0
 c002e7e:	9342                	add	t1,t1,a6
 c002e80:	a268ce0b          	lrhu	t3,a7,t1,1
 c002e84:	01f77d63          	bgeu	a4,t6,c002e9e <LzmaDec_TryDummy+0x2b2>
 c002e88:	12c5f563          	bgeu	a1,a2,c002fb2 <LzmaDec_TryDummy+0x3c6>
 c002e8c:	0087931b          	slliw	t1,a5,0x8
 c002e90:	9815c78b          	lbuia	a5,(a1),1,0
 c002e94:	0087171b          	slliw	a4,a4,0x8
 c002e98:	0067e7b3          	or	a5,a5,t1
 c002e9c:	2781                	sext.w	a5,a5
 c002e9e:	00b7531b          	srliw	t1,a4,0xb
 c002ea2:	03c30e3b          	mulw	t3,t1,t3
 c002ea6:	0016969b          	slliw	a3,a3,0x1
 c002eaa:	1fc7ea63          	bltu	a5,t3,c00309e <LzmaDec_TryDummy+0x4b2>
 c002eae:	41c7073b          	subw	a4,a4,t3
 c002eb2:	41c787bb          	subw	a5,a5,t3
 c002eb6:	2685                	addiw	a3,a3,1
 c002eb8:	fcdf71e3          	bgeu	t5,a3,c002e7a <LzmaDec_TryDummy+0x28e>
 c002ebc:	fc06869b          	addiw	a3,a3,-64
 c002ec0:	8336                	mv	t1,a3
 c002ec2:	480d                	li	a6,3
 c002ec4:	e26877e3          	bgeu	a6,t1,c002cf2 <LzmaDec_TryDummy+0x106>
 c002ec8:	4e35                	li	t3,13
 c002eca:	0016d81b          	srliw	a6,a3,0x1
 c002ece:	1c6e6a63          	bltu	t3,t1,c0030a2 <LzmaDec_TryDummy+0x4b6>
 c002ed2:	8a85                	andi	a3,a3,1
 c002ed4:	387d                	addiw	a6,a6,-1
 c002ed6:	0026e693          	ori	a3,a3,2
 c002eda:	010696bb          	sllw	a3,a3,a6
 c002ede:	737d                	lui	t1,0xfffff
 c002ee0:	7c06b68b          	extu	a3,a3,31,0
 c002ee4:	30030313          	addi	t1,t1,768 # fffffffffffff300 <__BL2_END__+0xfffffffff3ff0090>
 c002ee8:	02d3168b          	addsl	a3,t1,a3,1
 c002eec:	98b6                	add	a7,a7,a3
 c002eee:	4e05                	li	t3,1
 c002ef0:	4685                	li	a3,1
 c002ef2:	010002b7          	lui	t0,0x1000
 c002ef6:	b2d8ce8b          	lurhu	t4,a7,a3,1
 c002efa:	00577d63          	bgeu	a4,t0,c002f14 <LzmaDec_TryDummy+0x328>
 c002efe:	0ac5fa63          	bgeu	a1,a2,c002fb2 <LzmaDec_TryDummy+0x3c6>
 c002f02:	0087931b          	slliw	t1,a5,0x8
 c002f06:	9815c78b          	lbuia	a5,(a1),1,0
 c002f0a:	0087171b          	slliw	a4,a4,0x8
 c002f0e:	0067e7b3          	or	a5,a5,t1
 c002f12:	2781                	sext.w	a5,a5
 c002f14:	00b7531b          	srliw	t1,a4,0xb
 c002f18:	03d30f3b          	mulw	t5,t1,t4
 c002f1c:	001e1f9b          	slliw	t6,t3,0x1
 c002f20:	1de7f063          	bgeu	a5,t5,c0030e0 <LzmaDec_TryDummy+0x4f4>
 c002f24:	01c686bb          	addw	a3,a3,t3
 c002f28:	877a                	mv	a4,t5
 c002f2a:	387d                	addiw	a6,a6,-1
 c002f2c:	dc0803e3          	beqz	a6,c002cf2 <LzmaDec_TryDummy+0x106>
 c002f30:	8e7e                	mv	t3,t6
 c002f32:	b7d1                	j	c002ef6 <LzmaDec_TryDummy+0x30a>
 c002f34:	40d3053b          	subw	a0,t1,a3
 c002f38:	9ec6                	add	t4,t4,a7
 c002f3a:	01000f37          	lui	t5,0x1000
 c002f3e:	40d7873b          	subw	a4,a5,a3
 c002f42:	832a                	mv	t1,a0
 c002f44:	018ed683          	lhu	a3,24(t4) # 1000018 <__BSS_SIZE__+0xffafa8>
 c002f48:	01e57e63          	bgeu	a0,t5,c002f64 <LzmaDec_TryDummy+0x378>
 c002f4c:	4501                	li	a0,0
 c002f4e:	dac5f6e3          	bgeu	a1,a2,c002cfa <LzmaDec_TryDummy+0x10e>
 c002f52:	0087179b          	slliw	a5,a4,0x8
 c002f56:	9815c70b          	lbuia	a4,(a1),1,0
 c002f5a:	0083151b          	slliw	a0,t1,0x8
 c002f5e:	8fd9                	or	a5,a5,a4
 c002f60:	0007871b          	sext.w	a4,a5
 c002f64:	00b5531b          	srliw	t1,a0,0xb
 c002f68:	02d306bb          	mulw	a3,t1,a3
 c002f6c:	8336                	mv	t1,a3
 c002f6e:	04d77f63          	bgeu	a4,a3,c002fcc <LzmaDec_TryDummy+0x3e0>
 c002f72:	800e0e13          	addi	t3,t3,-2048 # fff800 <__BSS_SIZE__+0xffa790>
 c002f76:	010007b7          	lui	a5,0x1000
 c002f7a:	c00e5e03          	lhu	t3,-1024(t3)
 c002f7e:	00f6fd63          	bgeu	a3,a5,c002f98 <LzmaDec_TryDummy+0x3ac>
 c002f82:	4501                	li	a0,0
 c002f84:	d6c5fbe3          	bgeu	a1,a2,c002cfa <LzmaDec_TryDummy+0x10e>
 c002f88:	0087179b          	slliw	a5,a4,0x8
 c002f8c:	9815c70b          	lbuia	a4,(a1),1,0
 c002f90:	0086969b          	slliw	a3,a3,0x8
 c002f94:	8f5d                	or	a4,a4,a5
 c002f96:	2701                	sext.w	a4,a4
 c002f98:	00b6d79b          	srliw	a5,a3,0xb
 c002f9c:	03c7833b          	mulw	t1,a5,t3
 c002fa0:	00677b63          	bgeu	a4,t1,c002fb6 <LzmaDec_TryDummy+0x3ca>
 c002fa4:	010007b7          	lui	a5,0x1000
 c002fa8:	450d                	li	a0,3
 c002faa:	d4f378e3          	bgeu	t1,a5,c002cfa <LzmaDec_TryDummy+0x10e>
 c002fae:	d4c5e6e3          	bltu	a1,a2,c002cfa <LzmaDec_TryDummy+0x10e>
 c002fb2:	4501                	li	a0,0
 c002fb4:	b399                	j	c002cfa <LzmaDec_TryDummy+0x10e>
 c002fb6:	406686bb          	subw	a3,a3,t1
 c002fba:	406707bb          	subw	a5,a4,t1
 c002fbe:	737d                	lui	t1,0xfffff
 c002fc0:	60030313          	addi	t1,t1,1536 # fffffffffffff600 <__BL2_END__+0xfffffffff3ff0390>
 c002fc4:	9346                	add	t1,t1,a7
 c002fc6:	450d                	li	a0,3
 c002fc8:	4f31                	li	t5,12
 c002fca:	b521                	j	c002dd2 <LzmaDec_TryDummy+0x1e6>
 c002fcc:	9d15                	subw	a0,a0,a3
 c002fce:	01000e37          	lui	t3,0x1000
 c002fd2:	406707bb          	subw	a5,a4,t1
 c002fd6:	86aa                	mv	a3,a0
 c002fd8:	030ed303          	lhu	t1,48(t4)
 c002fdc:	01c57e63          	bgeu	a0,t3,c002ff8 <LzmaDec_TryDummy+0x40c>
 c002fe0:	4501                	li	a0,0
 c002fe2:	d0c5fce3          	bgeu	a1,a2,c002cfa <LzmaDec_TryDummy+0x10e>
 c002fe6:	0087971b          	slliw	a4,a5,0x8
 c002fea:	9815c78b          	lbuia	a5,(a1),1,0
 c002fee:	0086951b          	slliw	a0,a3,0x8
 c002ff2:	8f5d                	or	a4,a4,a5
 c002ff4:	0007079b          	sext.w	a5,a4
 c002ff8:	00b5571b          	srliw	a4,a0,0xb
 c002ffc:	026706bb          	mulw	a3,a4,t1
 c003000:	8736                	mv	a4,a3
 c003002:	fad7eee3          	bltu	a5,a3,c002fbe <LzmaDec_TryDummy+0x3d2>
 c003006:	9d15                	subw	a0,a0,a3
 c003008:	01000e37          	lui	t3,0x1000
 c00300c:	048ed303          	lhu	t1,72(t4)
 c003010:	86aa                	mv	a3,a0
 c003012:	9f99                	subw	a5,a5,a4
 c003014:	01c57e63          	bgeu	a0,t3,c003030 <LzmaDec_TryDummy+0x444>
 c003018:	4501                	li	a0,0
 c00301a:	cec5f0e3          	bgeu	a1,a2,c002cfa <LzmaDec_TryDummy+0x10e>
 c00301e:	0087971b          	slliw	a4,a5,0x8
 c003022:	9815c78b          	lbuia	a5,(a1),1,0
 c003026:	0086951b          	slliw	a0,a3,0x8
 c00302a:	8f5d                	or	a4,a4,a5
 c00302c:	0007079b          	sext.w	a5,a4
 c003030:	00b5571b          	srliw	a4,a0,0xb
 c003034:	026706bb          	mulw	a3,a4,t1
 c003038:	f8d7e3e3          	bltu	a5,a3,c002fbe <LzmaDec_TryDummy+0x3d2>
 c00303c:	9f95                	subw	a5,a5,a3
 c00303e:	40d506bb          	subw	a3,a0,a3
 c003042:	bfb5                	j	c002fbe <LzmaDec_TryDummy+0x3d2>
 c003044:	40e68ebb          	subw	t4,a3,a4
 c003048:	01000fb7          	lui	t6,0x1000
 c00304c:	9f99                	subw	a5,a5,a4
 c00304e:	01035703          	lhu	a4,16(t1)
 c003052:	01fefe63          	bgeu	t4,t6,c00306e <LzmaDec_TryDummy+0x482>
 c003056:	f4c5fee3          	bgeu	a1,a2,c002fb2 <LzmaDec_TryDummy+0x3c6>
 c00305a:	00879e1b          	slliw	t3,a5,0x8
 c00305e:	9815c78b          	lbuia	a5,(a1),1,0
 c003062:	008e9e9b          	slliw	t4,t4,0x8
 c003066:	01c7ee33          	or	t3,a5,t3
 c00306a:	000e079b          	sext.w	a5,t3
 c00306e:	00bed69b          	srliw	a3,t4,0xb
 c003072:	02e6873b          	mulw	a4,a3,a4
 c003076:	00e7f963          	bgeu	a5,a4,c003088 <LzmaDec_TryDummy+0x49c>
 c00307a:	7c08368b          	extu	a3,a6,31,0
 c00307e:	06a1                	addi	a3,a3,8
 c003080:	02d3130b          	addsl	t1,t1,a3,1
 c003084:	4821                	li	a6,8
 c003086:	b351                	j	c002e0a <LzmaDec_TryDummy+0x21e>
 c003088:	9f99                	subw	a5,a5,a4
 c00308a:	20030313          	addi	t1,t1,512
 c00308e:	40ee873b          	subw	a4,t4,a4
 c003092:	4841                	li	a6,16
 c003094:	10000693          	li	a3,256
 c003098:	bb95                	j	c002e0c <LzmaDec_TryDummy+0x220>
 c00309a:	877e                	mv	a4,t6
 c00309c:	b37d                	j	c002e4a <LzmaDec_TryDummy+0x25e>
 c00309e:	8772                	mv	a4,t3
 c0030a0:	bd21                	j	c002eb8 <LzmaDec_TryDummy+0x2cc>
 c0030a2:	386d                	addiw	a6,a6,-5
 c0030a4:	01000e37          	lui	t3,0x1000
 c0030a8:	01c77c63          	bgeu	a4,t3,c0030c0 <LzmaDec_TryDummy+0x4d4>
 c0030ac:	f0c5f3e3          	bgeu	a1,a2,c002fb2 <LzmaDec_TryDummy+0x3c6>
 c0030b0:	0087969b          	slliw	a3,a5,0x8
 c0030b4:	9815c78b          	lbuia	a5,(a1),1,0
 c0030b8:	0087171b          	slliw	a4,a4,0x8
 c0030bc:	8fd5                	or	a5,a5,a3
 c0030be:	2781                	sext.w	a5,a5
 c0030c0:	0017531b          	srliw	t1,a4,0x1
 c0030c4:	406786bb          	subw	a3,a5,t1
 c0030c8:	01f6d69b          	srliw	a3,a3,0x1f
 c0030cc:	36fd                	addiw	a3,a3,-1
 c0030ce:	0066f6b3          	and	a3,a3,t1
 c0030d2:	387d                	addiw	a6,a6,-1
 c0030d4:	871a                	mv	a4,t1
 c0030d6:	9f95                	subw	a5,a5,a3
 c0030d8:	fc0818e3          	bnez	a6,c0030a8 <LzmaDec_TryDummy+0x4bc>
 c0030dc:	4811                	li	a6,4
 c0030de:	bd01                	j	c002eee <LzmaDec_TryDummy+0x302>
 c0030e0:	41e7073b          	subw	a4,a4,t5
 c0030e4:	41e787bb          	subw	a5,a5,t5
 c0030e8:	00df86bb          	addw	a3,t6,a3
 c0030ec:	bd3d                	j	c002f2a <LzmaDec_TryDummy+0x33e>

000000000c0030ee <LzmaDec_Init>:
 c0030ee:	11400793          	li	a5,276
 c0030f2:	02053423          	sd	zero,40(a0) # 1000028 <__BSS_SIZE__+0xffafb8>
 c0030f6:	06052223          	sw	zero,100(a0)
 c0030fa:	04053023          	sd	zero,64(a0)
 c0030fe:	cd7c                	sw	a5,92(a0)
 c003100:	8082                	ret

000000000c003102 <LzmaDec_DecodeToDic>:
 c003102:	7175                	addi	sp,sp,-144
 c003104:	e122                	sd	s0,128(sp)
 c003106:	f8ca                	sd	s2,112(sp)
 c003108:	f4ce                	sd	s3,104(sp)
 c00310a:	f0d2                	sd	s4,96(sp)
 c00310c:	f86a                	sd	s10,48(sp)
 c00310e:	f46e                	sd	s11,40(sp)
 c003110:	e506                	sd	ra,136(sp)
 c003112:	fca6                	sd	s1,120(sp)
 c003114:	ecd6                	sd	s5,88(sp)
 c003116:	e8da                	sd	s6,80(sp)
 c003118:	e4de                	sd	s7,72(sp)
 c00311a:	e0e2                	sd	s8,64(sp)
 c00311c:	fc66                	sd	s9,56(sp)
 c00311e:	0006bd83          	ld	s11,0(a3)
 c003122:	0006b023          	sd	zero,0(a3)
 c003126:	0007a023          	sw	zero,0(a5) # 1000000 <__BSS_SIZE__+0xffaf90>
 c00312a:	e43a                	sd	a4,8(sp)
 c00312c:	4d78                	lw	a4,92(a0)
 c00312e:	89be                	mv	s3,a5
 c003130:	11200793          	li	a5,274
 c003134:	8932                	mv	s2,a2
 c003136:	842a                	mv	s0,a0
 c003138:	8a2e                	mv	s4,a1
 c00313a:	8d36                	mv	s10,a3
 c00313c:	4611                	li	a2,4
 c00313e:	04e7e263          	bltu	a5,a4,c003182 <LzmaDec_DecodeToDic+0x80>
 c003142:	85d2                	mv	a1,s4
 c003144:	8522                	mv	a0,s0
 c003146:	e8efe0ef          	jal	ra,c0017d4 <LzmaDec_WriteRem>
 c00314a:	4b4d                	li	s6,19
 c00314c:	06840a93          	addi	s5,s0,104 # 1068 <__BSS_SIZE__-0x4008>
 c003150:	4c7c                	lw	a5,92(s0)
 c003152:	11200713          	li	a4,274
 c003156:	0ce79663          	bne	a5,a4,c003222 <LzmaDec_DecodeToDic+0x120>
 c00315a:	5c5c                	lw	a5,60(s0)
 c00315c:	eb9d                	bnez	a5,c003192 <LzmaDec_DecodeToDic+0x90>
 c00315e:	4785                	li	a5,1
 c003160:	a8a1                	j	c0031b8 <LzmaDec_DecodeToDic+0xb6>
 c003162:	0017859b          	addiw	a1,a5,1
 c003166:	d06c                	sw	a1,100(s0)
 c003168:	9819458b          	lbuia	a1,(s2),1,0
 c00316c:	7c07b78b          	extu	a5,a5,31,0
 c003170:	97a2                	add	a5,a5,s0
 c003172:	06b78423          	sb	a1,104(a5)
 c003176:	000d3783          	ld	a5,0(s10)
 c00317a:	1dfd                	addi	s11,s11,-1
 c00317c:	0785                	addi	a5,a5,1
 c00317e:	00fd3023          	sd	a5,0(s10)
 c003182:	507c                	lw	a5,100(s0)
 c003184:	020d8863          	beqz	s11,c0031b4 <LzmaDec_DecodeToDic+0xb2>
 c003188:	fcf67de3          	bgeu	a2,a5,c003162 <LzmaDec_DecodeToDic+0x60>
 c00318c:	06844603          	lbu	a2,104(s0)
 c003190:	ca05                	beqz	a2,c0031c0 <LzmaDec_DecodeToDic+0xbe>
 c003192:	4485                	li	s1,1
 c003194:	60aa                	ld	ra,136(sp)
 c003196:	640a                	ld	s0,128(sp)
 c003198:	7946                	ld	s2,112(sp)
 c00319a:	79a6                	ld	s3,104(sp)
 c00319c:	7a06                	ld	s4,96(sp)
 c00319e:	6ae6                	ld	s5,88(sp)
 c0031a0:	6b46                	ld	s6,80(sp)
 c0031a2:	6ba6                	ld	s7,72(sp)
 c0031a4:	6c06                	ld	s8,64(sp)
 c0031a6:	7ce2                	ld	s9,56(sp)
 c0031a8:	7d42                	ld	s10,48(sp)
 c0031aa:	7da2                	ld	s11,40(sp)
 c0031ac:	8526                	mv	a0,s1
 c0031ae:	74e6                	ld	s1,120(sp)
 c0031b0:	6149                	addi	sp,sp,144
 c0031b2:	8082                	ret
 c0031b4:	ffe1                	bnez	a5,c00318c <LzmaDec_DecodeToDic+0x8a>
 c0031b6:	478d                	li	a5,3
 c0031b8:	00f9a023          	sw	a5,0(s3)
 c0031bc:	4481                	li	s1,0
 c0031be:	bfd9                	j	c003194 <LzmaDec_DecodeToDic+0x92>
 c0031c0:	4611                	li	a2,4
 c0031c2:	fef67ae3          	bgeu	a2,a5,c0031b6 <LzmaDec_DecodeToDic+0xb4>
 c0031c6:	06942783          	lw	a5,105(s0)
 c0031ca:	06042223          	sw	zero,100(s0)
 c0031ce:	9007978b          	revw	a5,a5
 c0031d2:	dc5c                	sw	a5,60(s0)
 c0031d4:	57fd                	li	a5,-1
 c0031d6:	dc1c                	sw	a5,56(s0)
 c0031d8:	11300793          	li	a5,275
 c0031dc:	02f70c63          	beq	a4,a5,c003214 <LzmaDec_DecodeToDic+0x112>
 c0031e0:	00044783          	lbu	a5,0(s0)
 c0031e4:	00144703          	lbu	a4,1(s0)
 c0031e8:	6410                	ld	a2,8(s0)
 c0031ea:	40000593          	li	a1,1024
 c0031ee:	9f3d                	addw	a4,a4,a5
 c0031f0:	30000793          	li	a5,768
 c0031f4:	00e797bb          	sllw	a5,a5,a4
 c0031f8:	7c07879b          	addiw	a5,a5,1984
 c0031fc:	7c07b78b          	extu	a5,a5,31,0
 c003200:	4701                	li	a4,0
 c003202:	00f76c63          	bltu	a4,a5,c00321a <LzmaDec_DecodeToDic+0x118>
 c003206:	4785                	li	a5,1
 c003208:	1782                	slli	a5,a5,0x20
 c00320a:	0785                	addi	a5,a5,1
 c00320c:	e43c                	sd	a5,72(s0)
 c00320e:	e83c                	sd	a5,80(s0)
 c003210:	04042c23          	sw	zero,88(s0)
 c003214:	04042e23          	sw	zero,92(s0)
 c003218:	b72d                	j	c003142 <LzmaDec_DecodeToDic+0x40>
 c00321a:	22e6558b          	srh	a1,a2,a4,1
 c00321e:	0705                	addi	a4,a4,1
 c003220:	b7cd                	j	c003202 <LzmaDec_DecodeToDic+0x100>
 c003222:	7418                	ld	a4,40(s0)
 c003224:	01476b63          	bltu	a4,s4,c00323a <LzmaDec_DecodeToDic+0x138>
 c003228:	12079f63          	bnez	a5,c003366 <LzmaDec_DecodeToDic+0x264>
 c00322c:	5c5c                	lw	a5,60(s0)
 c00322e:	14079363          	bnez	a5,c003374 <LzmaDec_DecodeToDic+0x272>
 c003232:	4791                	li	a5,4
 c003234:	b751                	j	c0031b8 <LzmaDec_DecodeToDic+0xb6>
 c003236:	4789                	li	a5,2
 c003238:	b741                	j	c0031b8 <LzmaDec_DecodeToDic+0xb6>
 c00323a:	4c81                	li	s9,0
 c00323c:	06442b83          	lw	s7,100(s0)
 c003240:	0c0b9263          	bnez	s7,c003304 <LzmaDec_DecodeToDic+0x202>
 c003244:	01bb7463          	bgeu	s6,s11,c00324c <LzmaDec_DecodeToDic+0x14a>
 c003248:	040c8263          	beqz	s9,c00328c <LzmaDec_DecodeToDic+0x18a>
 c00324c:	866e                	mv	a2,s11
 c00324e:	85ca                	mv	a1,s2
 c003250:	8522                	mv	a0,s0
 c003252:	99bff0ef          	jal	ra,c002bec <LzmaDec_TryDummy>
 c003256:	0005049b          	sext.w	s1,a0
 c00325a:	e095                	bnez	s1,c00327e <LzmaDec_DecodeToDic+0x17c>
 c00325c:	866e                	mv	a2,s11
 c00325e:	85ca                	mv	a1,s2
 c003260:	06840513          	addi	a0,s0,104
 c003264:	a65fd0ef          	jal	ra,c000cc8 <memcpy>
 c003268:	000d3783          	ld	a5,0(s10)
 c00326c:	07b42223          	sw	s11,100(s0)
 c003270:	9dbe                	add	s11,s11,a5
 c003272:	01bd3023          	sd	s11,0(s10)
 c003276:	478d                	li	a5,3
 c003278:	00f9a023          	sw	a5,0(s3)
 c00327c:	bf21                	j	c003194 <LzmaDec_DecodeToDic+0x92>
 c00327e:	000c8563          	beqz	s9,c003288 <LzmaDec_DecodeToDic+0x186>
 c003282:	4789                	li	a5,2
 c003284:	0ef49463          	bne	s1,a5,c00336c <LzmaDec_DecodeToDic+0x26a>
 c003288:	864a                	mv	a2,s2
 c00328a:	a021                	j	c003292 <LzmaDec_DecodeToDic+0x190>
 c00328c:	fecd8613          	addi	a2,s11,-20
 c003290:	964a                	add	a2,a2,s2
 c003292:	03243823          	sd	s2,48(s0)
 c003296:	85d2                	mv	a1,s4
 c003298:	8522                	mv	a0,s0
 c00329a:	dacfe0ef          	jal	ra,c001846 <LzmaDec_DecodeReal2>
 c00329e:	ee051ae3          	bnez	a0,c003192 <LzmaDec_DecodeToDic+0x90>
 c0032a2:	7818                	ld	a4,48(s0)
 c0032a4:	000d3783          	ld	a5,0(s10)
 c0032a8:	41270933          	sub	s2,a4,s2
 c0032ac:	97ca                	add	a5,a5,s2
 c0032ae:	00fd3023          	sd	a5,0(s10)
 c0032b2:	412d8db3          	sub	s11,s11,s2
 c0032b6:	893a                	mv	s2,a4
 c0032b8:	bd61                	j	c003150 <LzmaDec_DecodeToDic+0x4e>
 c0032ba:	8109478b          	lrbu	a5,s2,a6,0
 c0032be:	0106578b          	srb	a5,a2,a6,0
 c0032c2:	0805                	addi	a6,a6,1
 c0032c4:	0008079b          	sext.w	a5,a6
 c0032c8:	e83e                	sd	a5,16(sp)
 c0032ca:	01780c3b          	addw	s8,a6,s7
 c0032ce:	018b6463          	bltu	s6,s8,c0032d6 <LzmaDec_DecodeToDic+0x1d4>
 c0032d2:	ffb814e3          	bne	a6,s11,c0032ba <LzmaDec_DecodeToDic+0x1b8>
 c0032d6:	07842223          	sw	s8,100(s0)
 c0032da:	018b7463          	bgeu	s6,s8,c0032e2 <LzmaDec_DecodeToDic+0x1e0>
 c0032de:	020c8f63          	beqz	s9,c00331c <LzmaDec_DecodeToDic+0x21a>
 c0032e2:	7c0c360b          	extu	a2,s8,31,0
 c0032e6:	85d6                	mv	a1,s5
 c0032e8:	8522                	mv	a0,s0
 c0032ea:	ec42                	sd	a6,24(sp)
 c0032ec:	901ff0ef          	jal	ra,c002bec <LzmaDec_TryDummy>
 c0032f0:	0005049b          	sext.w	s1,a0
 c0032f4:	6862                	ld	a6,24(sp)
 c0032f6:	ec91                	bnez	s1,c003312 <LzmaDec_DecodeToDic+0x210>
 c0032f8:	000d3783          	ld	a5,0(s10)
 c0032fc:	983e                	add	a6,a6,a5
 c0032fe:	010d3023          	sd	a6,0(s10)
 c003302:	bf95                	j	c003276 <LzmaDec_DecodeToDic+0x174>
 c003304:	7c0bb60b          	extu	a2,s7,31,0
 c003308:	06860613          	addi	a2,a2,104
 c00330c:	4801                	li	a6,0
 c00330e:	9622                	add	a2,a2,s0
 c003310:	bf55                	j	c0032c4 <LzmaDec_DecodeToDic+0x1c2>
 c003312:	000c8563          	beqz	s9,c00331c <LzmaDec_DecodeToDic+0x21a>
 c003316:	4789                	li	a5,2
 c003318:	04f49a63          	bne	s1,a5,c00336c <LzmaDec_DecodeToDic+0x26a>
 c00331c:	03543823          	sd	s5,48(s0)
 c003320:	8656                	mv	a2,s5
 c003322:	85d2                	mv	a1,s4
 c003324:	8522                	mv	a0,s0
 c003326:	d20fe0ef          	jal	ra,c001846 <LzmaDec_DecodeReal2>
 c00332a:	e60514e3          	bnez	a0,c003192 <LzmaDec_DecodeToDic+0x90>
 c00332e:	781c                	ld	a5,48(s0)
 c003330:	415787bb          	subw	a5,a5,s5
 c003334:	02fc6763          	bltu	s8,a5,c003362 <LzmaDec_DecodeToDic+0x260>
 c003338:	66c2                	ld	a3,16(sp)
 c00333a:	40fc073b          	subw	a4,s8,a5
 c00333e:	02e6e263          	bltu	a3,a4,c003362 <LzmaDec_DecodeToDic+0x260>
 c003342:	000d3703          	ld	a4,0(s10)
 c003346:	417787bb          	subw	a5,a5,s7
 c00334a:	7c07b78b          	extu	a5,a5,31,0
 c00334e:	973e                	add	a4,a4,a5
 c003350:	00ed3023          	sd	a4,0(s10)
 c003354:	40fd8db3          	sub	s11,s11,a5
 c003358:	00f90733          	add	a4,s2,a5
 c00335c:	06042223          	sw	zero,100(s0)
 c003360:	bf99                	j	c0032b6 <LzmaDec_DecodeToDic+0x1b4>
 c003362:	44ad                	li	s1,11
 c003364:	bd05                	j	c003194 <LzmaDec_DecodeToDic+0x92>
 c003366:	67a2                	ld	a5,8(sp)
 c003368:	ec0787e3          	beqz	a5,c003236 <LzmaDec_DecodeToDic+0x134>
 c00336c:	4789                	li	a5,2
 c00336e:	00f9a023          	sw	a5,0(s3)
 c003372:	b505                	j	c003192 <LzmaDec_DecodeToDic+0x90>
 c003374:	67a2                	ld	a5,8(sp)
 c003376:	ec0780e3          	beqz	a5,c003236 <LzmaDec_DecodeToDic+0x134>
 c00337a:	4c85                	li	s9,1
 c00337c:	b5c1                	j	c00323c <LzmaDec_DecodeToDic+0x13a>

000000000c00337e <LzmaDec_FreeProbs>:
 c00337e:	1141                	addi	sp,sp,-16
 c003380:	e022                	sd	s0,0(sp)
 c003382:	842a                	mv	s0,a0
 c003384:	659c                	ld	a5,8(a1)
 c003386:	852e                	mv	a0,a1
 c003388:	640c                	ld	a1,8(s0)
 c00338a:	e406                	sd	ra,8(sp)
 c00338c:	9782                	jalr	a5
 c00338e:	60a2                	ld	ra,8(sp)
 c003390:	00043423          	sd	zero,8(s0)
 c003394:	6402                	ld	s0,0(sp)
 c003396:	0141                	addi	sp,sp,16
 c003398:	8082                	ret

000000000c00339a <LzmaDec_AllocateProbs2.isra.0>:
 c00339a:	1101                	addi	sp,sp,-32
 c00339c:	e426                	sd	s1,8(sp)
 c00339e:	9db1                	addw	a1,a1,a2
 c0033a0:	30000493          	li	s1,768
 c0033a4:	6518                	ld	a4,8(a0)
 c0033a6:	00b494bb          	sllw	s1,s1,a1
 c0033aa:	e822                	sd	s0,16(sp)
 c0033ac:	7c04879b          	addiw	a5,s1,1984
 c0033b0:	ec06                	sd	ra,24(sp)
 c0033b2:	e04a                	sd	s2,0(sp)
 c0033b4:	842a                	mv	s0,a0
 c0033b6:	84be                	mv	s1,a5
 c0033b8:	c709                	beqz	a4,c0033c2 <LzmaDec_AllocateProbs2.isra.0+0x28>
 c0033ba:	5138                	lw	a4,96(a0)
 c0033bc:	4501                	li	a0,0
 c0033be:	02f70963          	beq	a4,a5,c0033f0 <LzmaDec_AllocateProbs2.isra.0+0x56>
 c0033c2:	85b6                	mv	a1,a3
 c0033c4:	8522                	mv	a0,s0
 c0033c6:	8936                	mv	s2,a3
 c0033c8:	fb7ff0ef          	jal	ra,c00337e <LzmaDec_FreeProbs>
 c0033cc:	00093783          	ld	a5,0(s2)
 c0033d0:	7c04b58b          	extu	a1,s1,31,0
 c0033d4:	0586                	slli	a1,a1,0x1
 c0033d6:	854a                	mv	a0,s2
 c0033d8:	9782                	jalr	a5
 c0033da:	87aa                	mv	a5,a0
 c0033dc:	e408                	sd	a0,8(s0)
 c0033de:	4509                	li	a0,2
 c0033e0:	cb81                	beqz	a5,c0033f0 <LzmaDec_AllocateProbs2.isra.0+0x56>
 c0033e2:	6505                	lui	a0,0x1
 c0033e4:	d0050513          	addi	a0,a0,-768 # d00 <__BSS_SIZE__-0x4370>
 c0033e8:	97aa                	add	a5,a5,a0
 c0033ea:	e81c                	sd	a5,16(s0)
 c0033ec:	d024                	sw	s1,96(s0)
 c0033ee:	4501                	li	a0,0
 c0033f0:	60e2                	ld	ra,24(sp)
 c0033f2:	6442                	ld	s0,16(sp)
 c0033f4:	64a2                	ld	s1,8(sp)
 c0033f6:	6902                	ld	s2,0(sp)
 c0033f8:	6105                	addi	sp,sp,32
 c0033fa:	8082                	ret

000000000c0033fc <LzmaProps_Decode>:
 c0033fc:	4791                	li	a5,4
 c0033fe:	00c7e463          	bltu	a5,a2,c003406 <LzmaProps_Decode+0xa>
 c003402:	4511                	li	a0,4
 c003404:	8082                	ret
 c003406:	0015a703          	lw	a4,1(a1)
 c00340a:	6685                	lui	a3,0x1
 c00340c:	87ba                	mv	a5,a4
 c00340e:	00d77363          	bgeu	a4,a3,c003414 <LzmaProps_Decode+0x18>
 c003412:	6785                	lui	a5,0x1
 c003414:	c15c                	sw	a5,4(a0)
 c003416:	0005c783          	lbu	a5,0(a1)
 c00341a:	0e000713          	li	a4,224
 c00341e:	fef762e3          	bltu	a4,a5,c003402 <LzmaProps_Decode+0x6>
 c003422:	4725                	li	a4,9
 c003424:	02e7f6bb          	remuw	a3,a5,a4
 c003428:	02e7d7bb          	divuw	a5,a5,a4
 c00342c:	4715                	li	a4,5
 c00342e:	00d50023          	sb	a3,0(a0)
 c003432:	02e7d6bb          	divuw	a3,a5,a4
 c003436:	02e7f7bb          	remuw	a5,a5,a4
 c00343a:	00d50123          	sb	a3,2(a0)
 c00343e:	00f500a3          	sb	a5,1(a0)
 c003442:	4501                	li	a0,0
 c003444:	8082                	ret

000000000c003446 <LzmaDec_AllocateProbs>:
 c003446:	7179                	addi	sp,sp,-48
 c003448:	f022                	sd	s0,32(sp)
 c00344a:	842a                	mv	s0,a0
 c00344c:	0828                	addi	a0,sp,24
 c00344e:	f406                	sd	ra,40(sp)
 c003450:	e436                	sd	a3,8(sp)
 c003452:	fabff0ef          	jal	ra,c0033fc <LzmaProps_Decode>
 c003456:	ed01                	bnez	a0,c00346e <LzmaDec_AllocateProbs+0x28>
 c003458:	66a2                	ld	a3,8(sp)
 c00345a:	01914603          	lbu	a2,25(sp)
 c00345e:	01814583          	lbu	a1,24(sp)
 c003462:	8522                	mv	a0,s0
 c003464:	f37ff0ef          	jal	ra,c00339a <LzmaDec_AllocateProbs2.isra.0>
 c003468:	e119                	bnez	a0,c00346e <LzmaDec_AllocateProbs+0x28>
 c00346a:	67e2                	ld	a5,24(sp)
 c00346c:	e01c                	sd	a5,0(s0)
 c00346e:	70a2                	ld	ra,40(sp)
 c003470:	7402                	ld	s0,32(sp)
 c003472:	6145                	addi	sp,sp,48
 c003474:	8082                	ret

000000000c003476 <LzmaDecode>:
 c003476:	7155                	addi	sp,sp,-208
 c003478:	e1a2                	sd	s0,192(sp)
 c00347a:	f152                	sd	s4,160(sp)
 c00347c:	ed56                	sd	s5,152(sp)
 c00347e:	e586                	sd	ra,200(sp)
 c003480:	fd26                	sd	s1,184(sp)
 c003482:	f94a                	sd	s2,176(sp)
 c003484:	f54e                	sd	s3,168(sp)
 c003486:	e95a                	sd	s6,144(sp)
 c003488:	e55e                	sd	s7,136(sp)
 c00348a:	e162                	sd	s8,128(sp)
 c00348c:	0005ba03          	ld	s4,0(a1)
 c003490:	0006ba83          	ld	s5,0(a3) # 1000 <__BSS_SIZE__-0x4070>
 c003494:	0006b023          	sd	zero,0(a3)
 c003498:	0005b023          	sd	zero,0(a1)
 c00349c:	833a                	mv	t1,a4
 c00349e:	0008a023          	sw	zero,0(a7)
 c0034a2:	4711                	li	a4,4
 c0034a4:	4419                	li	s0,6
 c0034a6:	07577063          	bgeu	a4,s5,c003506 <LzmaDecode+0x90>
 c0034aa:	84b6                	mv	s1,a3
 c0034ac:	66ce                	ld	a3,208(sp)
 c0034ae:	8bb2                	mv	s7,a2
 c0034b0:	8c2e                	mv	s8,a1
 c0034b2:	89aa                	mv	s3,a0
 c0034b4:	863e                	mv	a2,a5
 c0034b6:	859a                	mv	a1,t1
 c0034b8:	850a                	mv	a0,sp
 c0034ba:	8946                	mv	s2,a7
 c0034bc:	8b42                	mv	s6,a6
 c0034be:	ec02                	sd	zero,24(sp)
 c0034c0:	e402                	sd	zero,8(sp)
 c0034c2:	f85ff0ef          	jal	ra,c003446 <LzmaDec_AllocateProbs>
 c0034c6:	842a                	mv	s0,a0
 c0034c8:	ed1d                	bnez	a0,c003506 <LzmaDecode+0x90>
 c0034ca:	850a                	mv	a0,sp
 c0034cc:	ec4e                	sd	s3,24(sp)
 c0034ce:	f052                	sd	s4,32(sp)
 c0034d0:	c1fff0ef          	jal	ra,c0030ee <LzmaDec_Init>
 c0034d4:	87ca                	mv	a5,s2
 c0034d6:	0154b023          	sd	s5,0(s1)
 c0034da:	875a                	mv	a4,s6
 c0034dc:	86a6                	mv	a3,s1
 c0034de:	865e                	mv	a2,s7
 c0034e0:	85d2                	mv	a1,s4
 c0034e2:	850a                	mv	a0,sp
 c0034e4:	c1fff0ef          	jal	ra,c003102 <LzmaDec_DecodeToDic>
 c0034e8:	77a2                	ld	a5,40(sp)
 c0034ea:	842a                	mv	s0,a0
 c0034ec:	00fc3023          	sd	a5,0(s8)
 c0034f0:	e519                	bnez	a0,c0034fe <LzmaDecode+0x88>
 c0034f2:	00092703          	lw	a4,0(s2)
 c0034f6:	478d                	li	a5,3
 c0034f8:	00f71363          	bne	a4,a5,c0034fe <LzmaDecode+0x88>
 c0034fc:	4419                	li	s0,6
 c0034fe:	65ce                	ld	a1,208(sp)
 c003500:	850a                	mv	a0,sp
 c003502:	e7dff0ef          	jal	ra,c00337e <LzmaDec_FreeProbs>
 c003506:	60ae                	ld	ra,200(sp)
 c003508:	8522                	mv	a0,s0
 c00350a:	640e                	ld	s0,192(sp)
 c00350c:	74ea                	ld	s1,184(sp)
 c00350e:	794a                	ld	s2,176(sp)
 c003510:	79aa                	ld	s3,168(sp)
 c003512:	7a0a                	ld	s4,160(sp)
 c003514:	6aea                	ld	s5,152(sp)
 c003516:	6b4a                	ld	s6,144(sp)
 c003518:	6baa                	ld	s7,136(sp)
 c00351a:	6c0a                	ld	s8,128(sp)
 c00351c:	6169                	addi	sp,sp,208
 c00351e:	8082                	ret

000000000c003520 <LZ4F_readLE32>:
 c003520:	00154783          	lbu	a5,1(a0)
 c003524:	00254703          	lbu	a4,2(a0)
 c003528:	00054683          	lbu	a3,0(a0)
 c00352c:	00354503          	lbu	a0,3(a0)
 c003530:	0107171b          	slliw	a4,a4,0x10
 c003534:	0087979b          	slliw	a5,a5,0x8
 c003538:	9fb9                	addw	a5,a5,a4
 c00353a:	9fb5                	addw	a5,a5,a3
 c00353c:	0185151b          	slliw	a0,a0,0x18
 c003540:	9d3d                	addw	a0,a0,a5
 c003542:	8082                	ret

000000000c003544 <LZ4_decompress_safe_withSmallPrefix>:
 c003544:	40e58733          	sub	a4,a1,a4
 c003548:	26050763          	beqz	a0,c0037b6 <LZ4_decompress_safe_withSmallPrefix+0x272>
 c00354c:	00c50e33          	add	t3,a0,a2
 c003550:	7119                	addi	sp,sp,-128
 c003552:	ff0e0793          	addi	a5,t3,-16 # fffff0 <__BSS_SIZE__+0xffaf80>
 c003556:	ecce                	sd	s3,88(sp)
 c003558:	00d58eb3          	add	t4,a1,a3
 c00355c:	fc86                	sd	ra,120(sp)
 c00355e:	f8a2                	sd	s0,112(sp)
 c003560:	f4a6                	sd	s1,104(sp)
 c003562:	f0ca                	sd	s2,96(sp)
 c003564:	e8d2                	sd	s4,80(sp)
 c003566:	e4d6                	sd	s5,72(sp)
 c003568:	e0da                	sd	s6,64(sp)
 c00356a:	fc5e                	sd	s7,56(sp)
 c00356c:	f862                	sd	s8,48(sp)
 c00356e:	f466                	sd	s9,40(sp)
 c003570:	f06a                	sd	s10,32(sp)
 c003572:	ec6e                	sd	s11,24(sp)
 c003574:	e43e                	sd	a5,8(sp)
 c003576:	832a                	mv	t1,a0
 c003578:	fe0e8993          	addi	s3,t4,-32
 c00357c:	ea95                	bnez	a3,c0035b0 <LZ4_decompress_safe_withSmallPrefix+0x6c>
 c00357e:	4785                	li	a5,1
 c003580:	557d                	li	a0,-1
 c003582:	00f61863          	bne	a2,a5,c003592 <LZ4_decompress_safe_withSmallPrefix+0x4e>
 c003586:	00034503          	lbu	a0,0(t1)
 c00358a:	00a03533          	snez	a0,a0
 c00358e:	0005250b          	ext	a0,a0,0,0
 c003592:	70e6                	ld	ra,120(sp)
 c003594:	7446                	ld	s0,112(sp)
 c003596:	74a6                	ld	s1,104(sp)
 c003598:	7906                	ld	s2,96(sp)
 c00359a:	69e6                	ld	s3,88(sp)
 c00359c:	6a46                	ld	s4,80(sp)
 c00359e:	6aa6                	ld	s5,72(sp)
 c0035a0:	6b06                	ld	s6,64(sp)
 c0035a2:	7be2                	ld	s7,56(sp)
 c0035a4:	7c42                	ld	s8,48(sp)
 c0035a6:	7ca2                	ld	s9,40(sp)
 c0035a8:	7d02                	ld	s10,32(sp)
 c0035aa:	6de2                	ld	s11,24(sp)
 c0035ac:	6109                	addi	sp,sp,128
 c0035ae:	8082                	ret
 c0035b0:	557d                	li	a0,-1
 c0035b2:	d265                	beqz	a2,c003592 <LZ4_decompress_safe_withSmallPrefix+0x4e>
 c0035b4:	879a                	mv	a5,t1
 c0035b6:	882e                	mv	a6,a1
 c0035b8:	4fbd                	li	t6,15
 c0035ba:	429d                	li	t0,7
 c0035bc:	ff4e8393          	addi	t2,t4,-12
 c0035c0:	4a41                	li	s4,16
 c0035c2:	ff9e8f13          	addi	t5,t4,-7
 c0035c6:	ffbe8a93          	addi	s5,t4,-5
 c0035ca:	00004b17          	auipc	s6,0x4
 c0035ce:	6beb0b13          	addi	s6,s6,1726 # c007c88 <inc32table>
 c0035d2:	00004b97          	auipc	s7,0x4
 c0035d6:	696b8b93          	addi	s7,s7,1686 # c007c68 <dec64table>
 c0035da:	ffce0c13          	addi	s8,t3,-4
 c0035de:	0ff00493          	li	s1,255
 c0035e2:	ff8e0c93          	addi	s9,t3,-8
 c0035e6:	ff1e0913          	addi	s2,t3,-15
 c0035ea:	5d7d                	li	s10,-1
 c0035ec:	9817c50b          	lbuia	a0,(a5),1,0
 c0035f0:	00455693          	srli	a3,a0,0x4
 c0035f4:	0045561b          	srliw	a2,a0,0x4
 c0035f8:	07f68063          	beq	a3,t6,c003658 <LZ4_decompress_safe_withSmallPrefix+0x114>
 c0035fc:	0109b8b3          	sltu	a7,s3,a6
 c003600:	0018c893          	xori	a7,a7,1
 c003604:	0ff8f893          	andi	a7,a7,255
 c003608:	00c80433          	add	s0,a6,a2
 c00360c:	00c786b3          	add	a3,a5,a2
 c003610:	06088d63          	beqz	a7,c00368a <LZ4_decompress_safe_withSmallPrefix+0x146>
 c003614:	68a2                	ld	a7,8(sp)
 c003616:	0717fa63          	bgeu	a5,a7,c00368a <LZ4_decompress_safe_withSmallPrefix+0x146>
 c00361a:	6390                	ld	a2,0(a5)
 c00361c:	893d                	andi	a0,a0,15
 c00361e:	00c83023          	sd	a2,0(a6)
 c003622:	679c                	ld	a5,8(a5)
 c003624:	862a                	mv	a2,a0
 c003626:	00f83423          	sd	a5,8(a6)
 c00362a:	87b6                	mv	a5,a3
 c00362c:	b827c88b          	lhuia	a7,(a5),2,0
 c003630:	411406b3          	sub	a3,s0,a7
 c003634:	0bf50763          	beq	a0,t6,c0036e2 <LZ4_decompress_safe_withSmallPrefix+0x19e>
 c003638:	0d12f563          	bgeu	t0,a7,c003702 <LZ4_decompress_safe_withSmallPrefix+0x1be>
 c00363c:	0ce6e363          	bltu	a3,a4,c003702 <LZ4_decompress_safe_withSmallPrefix+0x1be>
 c003640:	6290                	ld	a2,0(a3)
 c003642:	0511                	addi	a0,a0,4
 c003644:	00a40833          	add	a6,s0,a0
 c003648:	e010                	sd	a2,0(s0)
 c00364a:	6690                	ld	a2,8(a3)
 c00364c:	e410                	sd	a2,8(s0)
 c00364e:	0106d683          	lhu	a3,16(a3)
 c003652:	00d41823          	sh	a3,16(s0)
 c003656:	bf59                	j	c0035ec <LZ4_decompress_safe_withSmallPrefix+0xa8>
 c003658:	0527fd63          	bgeu	a5,s2,c0036b2 <LZ4_decompress_safe_withSmallPrefix+0x16e>
 c00365c:	4601                	li	a2,0
 c00365e:	9817c88b          	lbuia	a7,(a5),1,0
 c003662:	00c8863b          	addw	a2,a7,a2
 c003666:	0527f963          	bgeu	a5,s2,c0036b8 <LZ4_decompress_safe_withSmallPrefix+0x174>
 c00366a:	fe988ae3          	beq	a7,s1,c00365e <LZ4_decompress_safe_withSmallPrefix+0x11a>
 c00366e:	4681                	li	a3,0
 c003670:	7c06360b          	extu	a2,a2,31,0
 c003674:	063d                	addi	a2,a2,15
 c003676:	13a68a63          	beq	a3,s10,c0037aa <LZ4_decompress_safe_withSmallPrefix+0x266>
 c00367a:	010606b3          	add	a3,a2,a6
 c00367e:	1306e663          	bltu	a3,a6,c0037aa <LZ4_decompress_safe_withSmallPrefix+0x266>
 c003682:	00f606b3          	add	a3,a2,a5
 c003686:	12f6e263          	bltu	a3,a5,c0037aa <LZ4_decompress_safe_withSmallPrefix+0x266>
 c00368a:	00c80433          	add	s0,a6,a2
 c00368e:	00c788b3          	add	a7,a5,a2
 c003692:	0083e463          	bltu	t2,s0,c00369a <LZ4_decompress_safe_withSmallPrefix+0x156>
 c003696:	031cf363          	bgeu	s9,a7,c0036bc <LZ4_decompress_safe_withSmallPrefix+0x178>
 c00369a:	111e1863          	bne	t3,a7,c0037aa <LZ4_decompress_safe_withSmallPrefix+0x266>
 c00369e:	108ee663          	bltu	t4,s0,c0037aa <LZ4_decompress_safe_withSmallPrefix+0x266>
 c0036a2:	84ae                	mv	s1,a1
 c0036a4:	8542                	mv	a0,a6
 c0036a6:	85be                	mv	a1,a5
 c0036a8:	e80fd0ef          	jal	ra,c000d28 <memmove>
 c0036ac:	4094053b          	subw	a0,s0,s1
 c0036b0:	b5cd                	j	c003592 <LZ4_decompress_safe_withSmallPrefix+0x4e>
 c0036b2:	56fd                	li	a3,-1
 c0036b4:	4601                	li	a2,0
 c0036b6:	bf6d                	j	c003670 <LZ4_decompress_safe_withSmallPrefix+0x12c>
 c0036b8:	56f9                	li	a3,-2
 c0036ba:	bf5d                	j	c003670 <LZ4_decompress_safe_withSmallPrefix+0x12c>
 c0036bc:	4681                	li	a3,0
 c0036be:	60d7c60b          	lrd	a2,a5,a3,0
 c0036c2:	60d8560b          	srd	a2,a6,a3,0
 c0036c6:	06a1                	addi	a3,a3,8
 c0036c8:	00d80633          	add	a2,a6,a3
 c0036cc:	fe8669e3          	bltu	a2,s0,c0036be <LZ4_decompress_safe_withSmallPrefix+0x17a>
 c0036d0:	87c6                	mv	a5,a7
 c0036d2:	b827c88b          	lhuia	a7,(a5),2,0
 c0036d6:	00f57613          	andi	a2,a0,15
 c0036da:	411406b3          	sub	a3,s0,a7
 c0036de:	03f61263          	bne	a2,t6,c003702 <LZ4_decompress_safe_withSmallPrefix+0x1be>
 c0036e2:	4601                	li	a2,0
 c0036e4:	9817c80b          	lbuia	a6,(a5),1,0
 c0036e8:	00c8063b          	addw	a2,a6,a2
 c0036ec:	0b87ff63          	bgeu	a5,s8,c0037aa <LZ4_decompress_safe_withSmallPrefix+0x266>
 c0036f0:	fe980ae3          	beq	a6,s1,c0036e4 <LZ4_decompress_safe_withSmallPrefix+0x1a0>
 c0036f4:	7c06360b          	extu	a2,a2,31,0
 c0036f8:	063d                	addi	a2,a2,15
 c0036fa:	00860533          	add	a0,a2,s0
 c0036fe:	0a856663          	bltu	a0,s0,c0037aa <LZ4_decompress_safe_withSmallPrefix+0x266>
 c003702:	0611                	addi	a2,a2,4
 c003704:	0ae6e363          	bltu	a3,a4,c0037aa <LZ4_decompress_safe_withSmallPrefix+0x266>
 c003708:	00c40833          	add	a6,s0,a2
 c00370c:	0712e463          	bltu	t0,a7,c003774 <LZ4_decompress_safe_withSmallPrefix+0x230>
 c003710:	00042023          	sw	zero,0(s0)
 c003714:	0006c503          	lbu	a0,0(a3)
 c003718:	00a40023          	sb	a0,0(s0)
 c00371c:	0016c503          	lbu	a0,1(a3)
 c003720:	00a400a3          	sb	a0,1(s0)
 c003724:	0026c503          	lbu	a0,2(a3)
 c003728:	00a40123          	sb	a0,2(s0)
 c00372c:	0036c503          	lbu	a0,3(a3)
 c003730:	00a401a3          	sb	a0,3(s0)
 c003734:	c51b450b          	lrwu	a0,s6,a7,2
 c003738:	00a68db3          	add	s11,a3,a0
 c00373c:	40a6c68b          	lrw	a3,a3,a0,0
 c003740:	c054                	sw	a3,4(s0)
 c003742:	451bc68b          	lrw	a3,s7,a7,2
 c003746:	40dd86b3          	sub	a3,s11,a3
 c00374a:	0503f363          	bgeu	t2,a6,c003790 <LZ4_decompress_safe_withSmallPrefix+0x24c>
 c00374e:	050aee63          	bltu	s5,a6,c0037aa <LZ4_decompress_safe_withSmallPrefix+0x266>
 c003752:	0421                	addi	s0,s0,8
 c003754:	01e47e63          	bgeu	s0,t5,c003770 <LZ4_decompress_safe_withSmallPrefix+0x22c>
 c003758:	8536                	mv	a0,a3
 c00375a:	8622                	mv	a2,s0
 c00375c:	7885488b          	ldia	a7,(a0),8,0
 c003760:	7886588b          	sdia	a7,(a2),8,0
 c003764:	ffe66ce3          	bltu	a2,t5,c00375c <LZ4_decompress_safe_withSmallPrefix+0x218>
 c003768:	408f0433          	sub	s0,t5,s0
 c00376c:	96a2                	add	a3,a3,s0
 c00376e:	847a                	mv	s0,t5
 c003770:	4601                	li	a2,0
 c003772:	a811                	j	c003786 <LZ4_decompress_safe_withSmallPrefix+0x242>
 c003774:	7886c50b          	ldia	a0,(a3),8,0
 c003778:	e008                	sd	a0,0(s0)
 c00377a:	bfc1                	j	c00374a <LZ4_decompress_safe_withSmallPrefix+0x206>
 c00377c:	80c6c50b          	lrbu	a0,a3,a2,0
 c003780:	00c4550b          	srb	a0,s0,a2,0
 c003784:	0605                	addi	a2,a2,1
 c003786:	00c40533          	add	a0,s0,a2
 c00378a:	ff0569e3          	bltu	a0,a6,c00377c <LZ4_decompress_safe_withSmallPrefix+0x238>
 c00378e:	bdb9                	j	c0035ec <LZ4_decompress_safe_withSmallPrefix+0xa8>
 c003790:	6288                	ld	a0,0(a3)
 c003792:	e408                	sd	a0,8(s0)
 c003794:	e4ca7ce3          	bgeu	s4,a2,c0035ec <LZ4_decompress_safe_withSmallPrefix+0xa8>
 c003798:	0441                	addi	s0,s0,16
 c00379a:	06a1                	addi	a3,a3,8
 c00379c:	7886c60b          	ldia	a2,(a3),8,0
 c0037a0:	7884560b          	sdia	a2,(s0),8,0
 c0037a4:	ff046ce3          	bltu	s0,a6,c00379c <LZ4_decompress_safe_withSmallPrefix+0x258>
 c0037a8:	b591                	j	c0035ec <LZ4_decompress_safe_withSmallPrefix+0xa8>
 c0037aa:	40678533          	sub	a0,a5,t1
 c0037ae:	fff54513          	not	a0,a0
 c0037b2:	2501                	sext.w	a0,a0
 c0037b4:	bbf9                	j	c003592 <LZ4_decompress_safe_withSmallPrefix+0x4e>
 c0037b6:	557d                	li	a0,-1
 c0037b8:	8082                	ret

000000000c0037ba <LZ4F_updateDict>:
 c0037ba:	06853803          	ld	a6,104(a0)
 c0037be:	7179                	addi	sp,sp,-48
 c0037c0:	f022                	sd	s0,32(sp)
 c0037c2:	f406                	sd	ra,40(sp)
 c0037c4:	ec26                	sd	s1,24(sp)
 c0037c6:	e84a                	sd	s2,16(sp)
 c0037c8:	e44e                	sd	s3,8(sp)
 c0037ca:	842a                	mv	s0,a0
 c0037cc:	00081363          	bnez	a6,c0037d2 <LZ4F_updateDict+0x18>
 c0037d0:	f12c                	sd	a1,96(a0)
 c0037d2:	7028                	ld	a0,96(s0)
 c0037d4:	010507b3          	add	a5,a0,a6
 c0037d8:	00f59663          	bne	a1,a5,c0037e4 <LZ4F_updateDict+0x2a>
 c0037dc:	00c807b3          	add	a5,a6,a2
 c0037e0:	f43c                	sd	a5,104(s0)
 c0037e2:	a811                	j	c0037f6 <LZ4F_updateDict+0x3c>
 c0037e4:	40d588b3          	sub	a7,a1,a3
 c0037e8:	98b2                	add	a7,a7,a2
 c0037ea:	67c1                	lui	a5,0x10
 c0037ec:	00f8ec63          	bltu	a7,a5,c003804 <LZ4F_updateDict+0x4a>
 c0037f0:	f034                	sd	a3,96(s0)
 c0037f2:	07143423          	sd	a7,104(s0)
 c0037f6:	70a2                	ld	ra,40(sp)
 c0037f8:	7402                	ld	s0,32(sp)
 c0037fa:	64e2                	ld	s1,24(sp)
 c0037fc:	6942                	ld	s2,16(sp)
 c0037fe:	69a2                	ld	s3,8(sp)
 c003800:	6145                	addi	sp,sp,48
 c003802:	8082                	ret
 c003804:	6c34                	ld	a3,88(s0)
 c003806:	84b2                	mv	s1,a2
 c003808:	89ae                	mv	s3,a1
 c00380a:	c739                	beqz	a4,c003858 <LZ4F_updateDict+0x9e>
 c00380c:	00d51563          	bne	a0,a3,c003816 <LZ4F_updateDict+0x5c>
 c003810:	00c807b3          	add	a5,a6,a2
 c003814:	b7f1                	j	c0037e0 <LZ4F_updateDict+0x26>
 c003816:	07043903          	ld	s2,112(s0)
 c00381a:	604c                	ld	a1,128(s0)
 c00381c:	7c38                	ld	a4,120(s0)
 c00381e:	40d90933          	sub	s2,s2,a3
 c003822:	40b805b3          	sub	a1,a6,a1
 c003826:	4601                	li	a2,0
 c003828:	00e7e863          	bltu	a5,a4,c003838 <LZ4F_updateDict+0x7e>
 c00382c:	40e78633          	sub	a2,a5,a4
 c003830:	00c937b3          	sltu	a5,s2,a2
 c003834:	42f9160b          	mvnez	a2,s2,a5
 c003838:	40c907b3          	sub	a5,s2,a2
 c00383c:	8d91                	sub	a1,a1,a2
 c00383e:	95aa                	add	a1,a1,a0
 c003840:	00f68533          	add	a0,a3,a5
 c003844:	c84fd0ef          	jal	ra,c000cc8 <memcpy>
 c003848:	6050                	ld	a2,128(s0)
 c00384a:	6c3c                	ld	a5,88(s0)
 c00384c:	94b2                	add	s1,s1,a2
 c00384e:	9926                	add	s2,s2,s1
 c003850:	f03c                	sd	a5,96(s0)
 c003852:	07243423          	sd	s2,104(s0)
 c003856:	b745                	j	c0037f6 <LZ4F_updateDict+0x3c>
 c003858:	02d51e63          	bne	a0,a3,c003894 <LZ4F_updateDict+0xda>
 c00385c:	7c14                	ld	a3,56(s0)
 c00385e:	00c80733          	add	a4,a6,a2
 c003862:	00e6fe63          	bgeu	a3,a4,c00387e <LZ4F_updateDict+0xc4>
 c003866:	40c78933          	sub	s2,a5,a2
 c00386a:	40f607b3          	sub	a5,a2,a5
 c00386e:	97c2                	add	a5,a5,a6
 c003870:	864a                	mv	a2,s2
 c003872:	00f505b3          	add	a1,a0,a5
 c003876:	c52fd0ef          	jal	ra,c000cc8 <memcpy>
 c00387a:	07243423          	sd	s2,104(s0)
 c00387e:	6c28                	ld	a0,88(s0)
 c003880:	743c                	ld	a5,104(s0)
 c003882:	8626                	mv	a2,s1
 c003884:	85ce                	mv	a1,s3
 c003886:	953e                	add	a0,a0,a5
 c003888:	c40fd0ef          	jal	ra,c000cc8 <memcpy>
 c00388c:	7430                	ld	a2,104(s0)
 c00388e:	94b2                	add	s1,s1,a2
 c003890:	f424                	sd	s1,104(s0)
 c003892:	b795                	j	c0037f6 <LZ4F_updateDict+0x3c>
 c003894:	8f91                	sub	a5,a5,a2
 c003896:	0107b733          	sltu	a4,a5,a6
 c00389a:	40e8178b          	mveqz	a5,a6,a4
 c00389e:	40f805b3          	sub	a1,a6,a5
 c0038a2:	863e                	mv	a2,a5
 c0038a4:	95aa                	add	a1,a1,a0
 c0038a6:	8536                	mv	a0,a3
 c0038a8:	893e                	mv	s2,a5
 c0038aa:	c1efd0ef          	jal	ra,c000cc8 <memcpy>
 c0038ae:	6c28                	ld	a0,88(s0)
 c0038b0:	8626                	mv	a2,s1
 c0038b2:	85ce                	mv	a1,s3
 c0038b4:	954a                	add	a0,a0,s2
 c0038b6:	c12fd0ef          	jal	ra,c000cc8 <memcpy>
 c0038ba:	6c3c                	ld	a5,88(s0)
 c0038bc:	94ca                	add	s1,s1,s2
 c0038be:	f03c                	sd	a5,96(s0)
 c0038c0:	bfc1                	j	c003890 <LZ4F_updateDict+0xd6>

000000000c0038c2 <LZ4_decompress_safe>:
 c0038c2:	26050463          	beqz	a0,c003b2a <LZ4_decompress_safe+0x268>
 c0038c6:	7159                	addi	sp,sp,-112
 c0038c8:	eca6                	sd	s1,88(sp)
 c0038ca:	00c50833          	add	a6,a0,a2
 c0038ce:	00d588b3          	add	a7,a1,a3
 c0038d2:	f486                	sd	ra,104(sp)
 c0038d4:	f0a2                	sd	s0,96(sp)
 c0038d6:	e8ca                	sd	s2,80(sp)
 c0038d8:	e4ce                	sd	s3,72(sp)
 c0038da:	e0d2                	sd	s4,64(sp)
 c0038dc:	fc56                	sd	s5,56(sp)
 c0038de:	f85a                	sd	s6,48(sp)
 c0038e0:	f45e                	sd	s7,40(sp)
 c0038e2:	f062                	sd	s8,32(sp)
 c0038e4:	ec66                	sd	s9,24(sp)
 c0038e6:	e86a                	sd	s10,16(sp)
 c0038e8:	e46e                	sd	s11,8(sp)
 c0038ea:	ff080393          	addi	t2,a6,-16
 c0038ee:	fe088493          	addi	s1,a7,-32
 c0038f2:	ea9d                	bnez	a3,c003928 <LZ4_decompress_safe+0x66>
 c0038f4:	4705                	li	a4,1
 c0038f6:	57fd                	li	a5,-1
 c0038f8:	00e61863          	bne	a2,a4,c003908 <LZ4_decompress_safe+0x46>
 c0038fc:	00054783          	lbu	a5,0(a0)
 c003900:	00f037b3          	snez	a5,a5
 c003904:	0007a78b          	ext	a5,a5,0,0
 c003908:	70a6                	ld	ra,104(sp)
 c00390a:	7406                	ld	s0,96(sp)
 c00390c:	64e6                	ld	s1,88(sp)
 c00390e:	6946                	ld	s2,80(sp)
 c003910:	69a6                	ld	s3,72(sp)
 c003912:	6a06                	ld	s4,64(sp)
 c003914:	7ae2                	ld	s5,56(sp)
 c003916:	7b42                	ld	s6,48(sp)
 c003918:	7ba2                	ld	s7,40(sp)
 c00391a:	7c02                	ld	s8,32(sp)
 c00391c:	6ce2                	ld	s9,24(sp)
 c00391e:	6d42                	ld	s10,16(sp)
 c003920:	6da2                	ld	s11,8(sp)
 c003922:	853e                	mv	a0,a5
 c003924:	6165                	addi	sp,sp,112
 c003926:	8082                	ret
 c003928:	57fd                	li	a5,-1
 c00392a:	de79                	beqz	a2,c003908 <LZ4_decompress_safe+0x46>
 c00392c:	87aa                	mv	a5,a0
 c00392e:	872e                	mv	a4,a1
 c003930:	4e3d                	li	t3,15
 c003932:	4e9d                	li	t4,7
 c003934:	ff488f13          	addi	t5,a7,-12
 c003938:	4941                	li	s2,16
 c00393a:	ff988313          	addi	t1,a7,-7
 c00393e:	ffb88993          	addi	s3,a7,-5
 c003942:	00004a17          	auipc	s4,0x4
 c003946:	346a0a13          	addi	s4,s4,838 # c007c88 <inc32table>
 c00394a:	00004a97          	auipc	s5,0x4
 c00394e:	31ea8a93          	addi	s5,s5,798 # c007c68 <dec64table>
 c003952:	ffc80b13          	addi	s6,a6,-4
 c003956:	0ff00f93          	li	t6,255
 c00395a:	ff880b93          	addi	s7,a6,-8
 c00395e:	ff180293          	addi	t0,a6,-15
 c003962:	5c7d                	li	s8,-1
 c003964:	9817c68b          	lbuia	a3,(a5),1,0
 c003968:	0046d413          	srli	s0,a3,0x4
 c00396c:	0046d61b          	srliw	a2,a3,0x4
 c003970:	05c40d63          	beq	s0,t3,c0039ca <LZ4_decompress_safe+0x108>
 c003974:	00e4bd33          	sltu	s10,s1,a4
 c003978:	001d4d13          	xori	s10,s10,1
 c00397c:	0ffd7d13          	andi	s10,s10,255
 c003980:	00c70433          	add	s0,a4,a2
 c003984:	00c78cb3          	add	s9,a5,a2
 c003988:	060d0a63          	beqz	s10,c0039fc <LZ4_decompress_safe+0x13a>
 c00398c:	0677f863          	bgeu	a5,t2,c0039fc <LZ4_decompress_safe+0x13a>
 c003990:	6390                	ld	a2,0(a5)
 c003992:	e310                	sd	a2,0(a4)
 c003994:	679c                	ld	a5,8(a5)
 c003996:	e71c                	sd	a5,8(a4)
 c003998:	87e6                	mv	a5,s9
 c00399a:	b827cc8b          	lhuia	s9,(a5),2,0
 c00399e:	00f6f713          	andi	a4,a3,15
 c0039a2:	86ba                	mv	a3,a4
 c0039a4:	41940633          	sub	a2,s0,s9
 c0039a8:	0bc70563          	beq	a4,t3,c003a52 <LZ4_decompress_safe+0x190>
 c0039ac:	0d9ef363          	bgeu	t4,s9,c003a72 <LZ4_decompress_safe+0x1b0>
 c0039b0:	0cb66163          	bltu	a2,a1,c003a72 <LZ4_decompress_safe+0x1b0>
 c0039b4:	6214                	ld	a3,0(a2)
 c0039b6:	0711                	addi	a4,a4,4
 c0039b8:	9722                	add	a4,a4,s0
 c0039ba:	e014                	sd	a3,0(s0)
 c0039bc:	6614                	ld	a3,8(a2)
 c0039be:	e414                	sd	a3,8(s0)
 c0039c0:	01065683          	lhu	a3,16(a2)
 c0039c4:	00d41823          	sh	a3,16(s0)
 c0039c8:	bf71                	j	c003964 <LZ4_decompress_safe+0xa2>
 c0039ca:	0457fd63          	bgeu	a5,t0,c003a24 <LZ4_decompress_safe+0x162>
 c0039ce:	4601                	li	a2,0
 c0039d0:	9817cc8b          	lbuia	s9,(a5),1,0
 c0039d4:	00cc863b          	addw	a2,s9,a2
 c0039d8:	0457f963          	bgeu	a5,t0,c003a2a <LZ4_decompress_safe+0x168>
 c0039dc:	fffc8ae3          	beq	s9,t6,c0039d0 <LZ4_decompress_safe+0x10e>
 c0039e0:	4401                	li	s0,0
 c0039e2:	7c06360b          	extu	a2,a2,31,0
 c0039e6:	063d                	addi	a2,a2,15
 c0039e8:	13840c63          	beq	s0,s8,c003b20 <LZ4_decompress_safe+0x25e>
 c0039ec:	00e60433          	add	s0,a2,a4
 c0039f0:	12e46863          	bltu	s0,a4,c003b20 <LZ4_decompress_safe+0x25e>
 c0039f4:	00f60433          	add	s0,a2,a5
 c0039f8:	12f46463          	bltu	s0,a5,c003b20 <LZ4_decompress_safe+0x25e>
 c0039fc:	00c70433          	add	s0,a4,a2
 c003a00:	00c78cb3          	add	s9,a5,a2
 c003a04:	008f6463          	bltu	t5,s0,c003a0c <LZ4_decompress_safe+0x14a>
 c003a08:	039bf363          	bgeu	s7,s9,c003a2e <LZ4_decompress_safe+0x16c>
 c003a0c:	11981a63          	bne	a6,s9,c003b20 <LZ4_decompress_safe+0x25e>
 c003a10:	1088e863          	bltu	a7,s0,c003b20 <LZ4_decompress_safe+0x25e>
 c003a14:	84ae                	mv	s1,a1
 c003a16:	853a                	mv	a0,a4
 c003a18:	85be                	mv	a1,a5
 c003a1a:	b0efd0ef          	jal	ra,c000d28 <memmove>
 c003a1e:	409407bb          	subw	a5,s0,s1
 c003a22:	b5dd                	j	c003908 <LZ4_decompress_safe+0x46>
 c003a24:	547d                	li	s0,-1
 c003a26:	4601                	li	a2,0
 c003a28:	bf6d                	j	c0039e2 <LZ4_decompress_safe+0x120>
 c003a2a:	5479                	li	s0,-2
 c003a2c:	bf5d                	j	c0039e2 <LZ4_decompress_safe+0x120>
 c003a2e:	4601                	li	a2,0
 c003a30:	60c7cd0b          	lrd	s10,a5,a2,0
 c003a34:	60c75d0b          	srd	s10,a4,a2,0
 c003a38:	0621                	addi	a2,a2,8
 c003a3a:	00c70d33          	add	s10,a4,a2
 c003a3e:	fe8d69e3          	bltu	s10,s0,c003a30 <LZ4_decompress_safe+0x16e>
 c003a42:	87e6                	mv	a5,s9
 c003a44:	b827cc8b          	lhuia	s9,(a5),2,0
 c003a48:	8abd                	andi	a3,a3,15
 c003a4a:	41940633          	sub	a2,s0,s9
 c003a4e:	03c69263          	bne	a3,t3,c003a72 <LZ4_decompress_safe+0x1b0>
 c003a52:	4681                	li	a3,0
 c003a54:	9817cd0b          	lbuia	s10,(a5),1,0
 c003a58:	00dd06bb          	addw	a3,s10,a3
