
/home/catcatbing/dev/project/join_rtt/rt-thread/bsp/cvitek/cvitek_bootloader/fsbl/build/cv1813h_milkv_duos_sd/bl2/bl2.elf:     file format elf64-littleriscv
/home/catcatbing/dev/project/join_rtt/rt-thread/bsp/cvitek/cvitek_bootloader/fsbl/build/cv1813h_milkv_duos_sd/bl2/bl2.elf
architecture: riscv:rv64, flags 0x00000112:
EXEC_P, HAS_SYMS, D_PAGED
start address 0x000000000c000000

Program Header:
    LOAD off    0x0000000000001000 vaddr 0x000000000c000000 paddr 0x000000000c000000 align 2**12
         filesz 0x00000000000081a0 memsz 0x000000000000f270 flags rwx
   STACK off    0x0000000000000000 vaddr 0x0000000000000000 paddr 0x0000000000000000 align 2**4
         filesz 0x0000000000000000 memsz 0x0000000000000000 flags rw-

Sections:
Idx Name          Size      VMA               LMA               File off  Algn
  0 ro            00007fb0  000000000c000000  000000000c000000  00001000  2**3
                  CONTENTS, ALLOC, LOAD, READONLY, CODE
  1 .data         000001f0  000000000c007fb0  000000000c007fb0  00008fb0  2**3
                  CONTENTS, ALLOC, LOAD, DATA
  2 stacks        00002020  000000000c0081a0  000000000c0081a0  000091a0  2**0
                  ALLOC
  3 .bss          00005070  000000000c00a200  000000000c00a200  000091a0  2**9
                  ALLOC
  4 .debug_info   000617bf  0000000000000000  0000000000000000  000091a0  2**0
                  CONTENTS, READONLY, DEBUGGING, OCTETS
  5 .debug_abbrev 00003892  0000000000000000  0000000000000000  0006a95f  2**0
                  CONTENTS, READONLY, DEBUGGING, OCTETS
  6 .debug_aranges 00001850  0000000000000000  0000000000000000  0006e200  2**4
                  CONTENTS, READONLY, DEBUGGING, OCTETS
  7 .debug_macro  0000767b  0000000000000000  0000000000000000  0006fa50  2**0
                  CONTENTS, READONLY, DEBUGGING, OCTETS
  8 .debug_line   0006ea94  0000000000000000  0000000000000000  000770cb  2**0
                  CONTENTS, READONLY, DEBUGGING, OCTETS
  9 .debug_str    0001b80d  0000000000000000  0000000000000000  000e5b5f  2**0
                  CONTENTS, READONLY, DEBUGGING, OCTETS
 10 .comment      0000004d  0000000000000000  0000000000000000  0010136c  2**0
                  CONTENTS, READONLY
 11 .riscv.attributes 0000005b  0000000000000000  0000000000000000  001013b9  2**0
                  CONTENTS, READONLY
 12 .debug_ranges 0002cb30  0000000000000000  0000000000000000  00101414  2**0
                  CONTENTS, READONLY, DEBUGGING, OCTETS
 13 .debug_frame  000038d8  0000000000000000  0000000000000000  0012df48  2**3
                  CONTENTS, READONLY, DEBUGGING, OCTETS
 14 .debug_loc    000b8de1  0000000000000000  0000000000000000  00131820  2**0
                  CONTENTS, READONLY, DEBUGGING, OCTETS
SYMBOL TABLE:
000000000c000000 l    d  ro	0000000000000000 ro
000000000c007fb0 l    d  .data	0000000000000000 .data
000000000c0081a0 l    d  stacks	0000000000000000 stacks
000000000c00a200 l    d  .bss	0000000000000000 .bss
0000000000000000 l    d  .debug_info	0000000000000000 .debug_info
0000000000000000 l    d  .debug_abbrev	0000000000000000 .debug_abbrev
0000000000000000 l    d  .debug_aranges	0000000000000000 .debug_aranges
0000000000000000 l    d  .debug_macro	0000000000000000 .debug_macro
0000000000000000 l    d  .debug_line	0000000000000000 .debug_line
0000000000000000 l    d  .debug_str	0000000000000000 .debug_str
0000000000000000 l    d  .comment	0000000000000000 .comment
0000000000000000 l    d  .riscv.attributes	0000000000000000 .riscv.attributes
0000000000000000 l    d  .debug_ranges	0000000000000000 .debug_ranges
0000000000000000 l    d  .debug_frame	0000000000000000 .debug_frame
0000000000000000 l    d  .debug_loc	0000000000000000 .debug_loc
0000000000000000 l    df *ABS*	0000000000000000 /home/catcatbing/dev/project/join_rtt/rt-thread/bsp/cvitek/cvitek_bootloader/fsbl/build/cv1813h_milkv_duos_sd/bl2/bl2_entrypoint.o
000000000c000020 l       ro	0000000000000000 bl2_entrypoint_real
000000000c000144 l       ro	0000000000000000 trap_vector
000000000c00012c l       ro	0000000000000000 bss_clear
000000000c000144 l       ro	0000000000000000 die
0000000000000000 l    df *ABS*	0000000000000000 cpu_helper.c
0000000000000000 l    df *ABS*	0000000000000000 cache.c
0000000000000000 l    df *ABS*	0000000000000000 delay_timer.c
0000000000000000 l    df *ABS*	0000000000000000 bl2_helper.c
000000000c00f200 l     O .bss	0000000000000030 fw_dynamic_info
0000000000000000 l    df *ABS*	0000000000000000 uart_dw.c
0000000000000000 l    df *ABS*	0000000000000000 tf_printf.c
000000000c0002b0 l     F ro	0000000000000082 unsigned_num_print
0000000000000000 l    df *ABS*	0000000000000000 platform.c
0000000000000000 l    df *ABS*	0000000000000000 security.c
0000000000000000 l    df *ABS*	0000000000000000 mem.c
0000000000000000 l    df *ABS*	0000000000000000 putchar.c
0000000000000000 l    df *ABS*	0000000000000000 bl2_opt.c
000000000c000d9a l     F ro	000000000000001a read_time_ms
000000000c00a200 l     O .bss	0000000000001000 fip_param2
000000000c00b200 l     O .bss	0000000000004000 sram_union_buf
0000000000000000 l    df *ABS*	0000000000000000 decompress.c
000000000c00154c l     F ro	0000000000000002 SzFree
000000000c00154e l     F ro	0000000000000042 SzAlloc
000000000c00f230 l     O .bss	0000000000000008 comp_alloc_buf
000000000c00f238 l     O .bss	0000000000000008 comp_alloc_size
000000000c007bf0 l     O ro	0000000000000008 __func__.0
000000000c007bf8 l     O ro	0000000000000010 __func__.1
0000000000000000 l    df *ABS*	0000000000000000 LzmaDec.c
000000000c0017d4 l     F ro	0000000000000072 LzmaDec_WriteRem
000000000c001846 l     F ro	00000000000013a6 LzmaDec_DecodeReal2
000000000c002bec l     F ro	0000000000000502 LzmaDec_TryDummy
000000000c00339a l     F ro	0000000000000062 LzmaDec_AllocateProbs2.isra.0
0000000000000000 l    df *ABS*	0000000000000000 lz4_all.c
000000000c003520 l     F ro	0000000000000024 LZ4F_readLE32
000000000c003544 l     F ro	0000000000000276 LZ4_decompress_safe_withSmallPrefix
000000000c0037ba l     F ro	0000000000000108 LZ4F_updateDict
000000000c0040fe l     F ro	00000000000001a2 LZ4F_decodeHeader
000000000c007c48 l     O ro	0000000000000020 blockSizes.0
000000000c007c68 l     O ro	0000000000000020 dec64table
000000000c007c88 l     O ro	0000000000000020 inc32table
0000000000000000 l    df *ABS*	0000000000000000 xxhash.c
000000000c004a78 l     F ro	000000000000002e XXH32_avalanche
000000000c004aa6 l     F ro	0000000000000016 XXH_read32
000000000c004abc l     F ro	0000000000000338 XXH32_finalize.constprop.0
0000000000000000 l    df *ABS*	0000000000000000 bl2_main.c
0000000000000000 l    df *ABS*	0000000000000000 ddr.c
0000000000000000 l    df *ABS*	0000000000000000 ddr_pkg_info.c
0000000000000000 l    df *ABS*	0000000000000000 ddr_sys_bring_up.c
0000000000000000 l    df *ABS*	0000000000000000 ddr_sys.c
0000000000000000 l    df *ABS*	0000000000000000 phy_pll_init.c
0000000000000000 l    df *ABS*	0000000000000000 cvx16_pinmux.c
0000000000000000 l    df *ABS*	0000000000000000 cvx16_dram_cap_check.c
0000000000000000 l    df *ABS*	0000000000000000 ddrc_init.c
0000000000000000 l    df *ABS*	0000000000000000 phy_init.c
0000000000000000 l    df *ABS*	0000000000000000 
0000000000000000 l    df *ABS*	0000000000000000 ddr_patch_regs.c
000000000c0055ca g     F ro	000000000000000a get_ddr_vendor
000000000c007fc8 g     O .data	00000000000001c8 ddr_patch_regs
000000000c0001a4 g     F ro	000000000000000a mdelay
000000000c0055de g     F ro	0000000000000050 axi_mon_start_all
000000000c00f268 g     O .bss	0000000000000004 tar_freq
000000000c007fb8 g     O .data	0000000000000008 time_records
0000000004418100 g       *ABS*	0000000000000000 p_rom_api_cryptodma_aes_decrypt
000000000c00f260 g     O .bss	0000000000000004 freq_in
000000000c000eea g     F ro	0000000000000088 load_ddr_param
000000000c007458 g     O ro	0000000000000011 version_string
0000000004418080 g       *ABS*	0000000000000000 p_rom_api_flash_init
000000000c00521e g     F ro	0000000000000004 dec_verify_image
000000000c000d48 g     F ro	0000000000000052 putchar_l
000000000c0016a6 g     F ro	0000000000000002 LZ4_free
0000000004418020 g       *ABS*	0000000000000000 p_rom_api_get_boot_src
000000000c000234 g     F ro	0000000000000002 jump_to_loader_2nd
000000000c0001bc g     F ro	0000000000000078 jump_to_monitor
000000000c00f250 g     O .bss	0000000000000008 reg_step
000000000c000d28 g     F ro	0000000000000020 memmove
000000000c00587c g     F ro	000000000000004e cvx16_bist_wr_prbs_init
000000000c0038c2 g     F ro	000000000000026e LZ4_decompress_safe
000000000c005ef2 g     F ro	0000000000000042 cvx16_ddr_phy_power_on_seq1
000000000c003102 g     F ro	000000000000027c LzmaDec_DecodeToDic
000000000c005970 g     F ro	0000000000000046 cvx16_bist_rdglvl_init
000000000c00592a g     F ro	0000000000000046 cvx16_bist_wrlvl_init
000000000c007438 g     O ro	000000000000001a build_message
000000000c006700 g     F ro	0000000000000172 cvx16_wdqlvl_req
000000000c007fb0 g       .data	0000000000000000 __DATA_START__
000000000c0004c8 g     F ro	00000000000000c6 __system_reset
000000000c000a82 g     F ro	000000000000005c switch_rtc_mode_2nd_stage
000000000c001466 g     F ro	00000000000000e6 load_rest
000000000c005ffe g     F ro	0000000000000028 cvx16_set_dfi_init_complete
000000000c005fb2 g     F ro	0000000000000034 cvx16_wait_for_dfi_init_complete
000000000c006250 g     F ro	00000000000001bc cvx16_wrlvl_req
000000000c006536 g     F ro	00000000000001ca cvx16_rdlvl_req
000000000c000cc8 g     F ro	0000000000000060 memcpy
000000000c000694 g     F ro	0000000000000190 sys_pll_od
000000000c005a9c g     F ro	00000000000000b0 cvx16_bist_wdqlvl_init
000000000c006fb8 g     F ro	000000000000001e ctrl_init_low_patch
000000000c000bb6 g     F ro	000000000000001c efuse_power_on
000000000c0030ee g     F ro	0000000000000014 LzmaDec_Init
000000000c001188 g     F ro	0000000000000110 load_monitor
000000000c00f26f g     O .bss	0000000000000001 pkg
000000000c00a1c0 g       stacks	0000000000000000 __STACKS_END__
000000000c005dea g     F ro	0000000000000016 cvx16_clk_div40
000000000c00058e g     F ro	0000000000000032 panic_handler
000000000c006d7c g     F ro	0000000000000002 cvx16_dram_cap_check
000000000c005bac g     F ro	0000000000000068 cvx16_bist_start_check
000000000c00f264 g     O .bss	0000000000000004 mod_freq
00000000044180e0 g       *ABS*	0000000000000000 p_rom_api_verify_rsa
000000000c006872 g     F ro	0000000000000002 cvx16_en_rec_vol_mode
000000000c0001ae g     F ro	000000000000000e read_count_tick
000000000c0061f0 g     F ro	0000000000000060 cvx16_clk_gating_enable
000000000c001756 g     F ro	000000000000007e decompress
000000000c0058ca g     F ro	0000000000000060 cvx16_bist_wr_sram_init
0000000000005070 g       *ABS*	0000000000000000 __BSS_SIZE__
000000000c005f7a g     F ro	0000000000000038 cvx16_ddr_phy_power_on_seq3
000000000c000236 g     F ro	0000000000000038 console_init
000000000c00027e g     F ro	000000000000001e console_putc
000000000c00f258 g     O .bss	0000000000000004 rddata
000000000c005e00 g     F ro	00000000000000f2 cvx16_chg_pll_freq
000000000c00026e g     F ro	0000000000000010 _uart_putc
000000000c000156 g     F ro	0000000000000024 flush_dcache_range
000000000c000db6 g     F ro	000000000000008a lock_efuse_chipsn
000000000c000824 g     F ro	00000000000001c0 sys_pll_nd
000000000c0009fa g     F ro	0000000000000088 switch_rtc_mode_1st_stage
000000000c000ade g     F ro	00000000000000aa set_rtc_en_registers
000000000c000e40 g     F ro	00000000000000aa load_param2
000000000c0042d0 g     F ro	00000000000007a8 LZ4F_decompress
000000000c006a42 g     F ro	000000000000033a cvx16_pinmux
000000000c005d20 g     F ro	000000000000005c cvx16_dll_cal
000000000c0061ae g     F ro	0000000000000042 cvx16_clk_gating_disable
000000000c0042a0 g     F ro	0000000000000030 LZ4F_createDecompressionContext
000000000c00f270 g       .bss	0000000000000000 __BL2_END__
000000000c005f34 g     F ro	0000000000000046 cvx16_ddr_phy_power_on_seq2
000000000c006026 g     F ro	000000000000002a cvx16_INT_ISR_08
000000000c003d9a g     F ro	0000000000000316 LZ4_decompress_safe_forceExtDict
000000000c003446 g     F ro	0000000000000030 LzmaDec_AllocateProbs
000000000c007fb0 g     O .data	0000000000000008 fip_param1
000000000c006114 g     F ro	000000000000009a cvx16_pll_init
000000000c000b88 g     F ro	000000000000002e efuse_wait_idle
000000000c005240 g     F ro	00000000000000da bl2_main
000000000c0081a0 g       .data	0000000000000000 __DATA_END__
000000000c00337e g     F ro	000000000000001c LzmaDec_FreeProbs
000000000c001590 g     F ro	00000000000000e8 decompress_lzma
000000000c005b4c g     F ro	0000000000000060 cvx16_bist_wdmlvl_init
000000000c00017a g     F ro	000000000000002a udelay
000000000c005fe6 g     F ro	0000000000000018 cvx16_polling_dfi_init_start
000000000c0059b6 g     F ro	00000000000000e6 cvx16_bist_rdlvl_init
000000000c00f26e g     O .bss	0000000000000001 ddr_vendor
00000000044180a0 g       *ABS*	0000000000000000 p_rom_api_image_crc
000000000c000000 g       ro	0000000000000000 bl2_entrypoint
000000000c000c28 g     F ro	000000000000002a efuse_refresh_shadow
000000000c001298 g     F ro	00000000000001ce load_loader_2nd
000000000c0055d4 g     F ro	000000000000000a get_pkg
000000000c000db4  w    F ro	0000000000000002 init_comm_info
000000000c00f25c g     O .bss	0000000000000004 dev_freq
000000000c000686 g     F ro	000000000000000e sys_switch_all_to_pll
000000000c00f270 g       .bss	0000000000000000 __BSS_END__
000000000c00534e g     F ro	000000000000027c read_ddr_pkg_info
0000000004418040 g       *ABS*	0000000000000000 p_rom_api_set_boot_src
000000000c0033fc g     F ro	000000000000004a LzmaProps_Decode
000000000c0060d0 g     F ro	0000000000000020 cvx16_setting_check
000000000c001038 g     F ro	0000000000000150 load_blcp_2nd
000000000c00f248 g     O .bss	0000000000000008 reg_span
000000000c005d7c g     F ro	0000000000000058 cvx16_clk_normal
000000000c000c6e g     F ro	000000000000005a memset
000000000c00500e g     F ro	00000000000001d0 XXH32_update
000000000c006fd6 g     F ro	00000000000000b0 ctrl_init_update_by_dram_size
000000000c004fb8 g     F ro	0000000000000056 XXH32_reset
000000000c004df4 g     F ro	00000000000001c4 XXH32
000000000c005c14 g     F ro	000000000000009e cvx16_rdvld_train
000000000c006d7e g     F ro	000000000000021e ddrc_init
000000000c003b30 g     F ro	000000000000026a LZ4_decompress_safe_withPrefix64k
000000000c000332 g     F ro	0000000000000196 tf_printf
000000000c00167e g     F ro	0000000000000028 LZ4_calloc
000000000c00029c g     F ro	0000000000000014 console_flush
000000000c007fb0 g       ro	0000000000000000 __RO_END__
0000000004418060 g       *ABS*	0000000000000000 p_rom_api_load_image
000000000c0040d4 g     F ro	000000000000000c LZ4F_isError
000000000c00a200 g       .bss	0000000000000000 __BSS_START__
000000000c000000 g       ro	0000000000000000 __RO_START__
000000000c00640c g     F ro	000000000000012a cvx16_rdglvl_req
000000000c000bd2 g     F ro	0000000000000056 efuse_program_bit
000000000c006050 g     F ro	000000000000001a cvx16_polling_synp_normal_mode
000000000c0040b0 g     F ro	0000000000000024 LZ4_decompress_safe_usingDict
000000000c001678 g     F ro	0000000000000006 LZ4_malloc
000000000c006874 g     F ro	0000000000000114 ctrl_init_detect_dram_size
00000000044180c0 g       *ABS*	0000000000000000 p_rom_api_get_number_of_retries
000000000c00014c g     F ro	000000000000000a sync_cache
000000000c000606 g     F ro	0000000000000060 setup_dl_flag
000000000c0005c0 g     F ro	0000000000000046 reset_c906l
000000000c000c52 g     F ro	000000000000001c efuse_power_off
000000000c00f240 g     O .bss	0000000000000008 reg_set
000000000c003476 g     F ro	00000000000000aa LzmaDecode
000000000c0081c0 g       stacks	0000000000000000 __STACKS_START__
000000000c0009e4 g     F ro	0000000000000016 sys_pll_init
000000000c008190 g     O .data	0000000000000004 ddr_patch_regs_count
000000000c000666 g     F ro	0000000000000020 config_core_power
000000000c007fc0 g     O .data	0000000000000004 ddr_data_rate
000000000c00606a g     F ro	0000000000000066 cvx16_dfi_ca_park_prbs
000000000c00f26d g     O .bss	0000000000000001 ddr_type
000000000c00562e g     F ro	000000000000024e ddr_sys_bring_up
000000000c0051de g     F ro	0000000000000040 XXH32_digest
000000000c00531a g     F ro	0000000000000034 ddr_init
000000000c0016a8 g     F ro	00000000000000ae decompress_lz4
000000000c0040e0 g     F ro	000000000000001e LZ4F_getBlockSize
000000000c00f26c g     O .bss	0000000000000001 ddr_capacity
000000000c0060f0 g     F ro	0000000000000024 cvx16_set_dfi_init_start
000000000c006f9c g     F ro	000000000000001c ctrl_init_high_patch
000000000c000f72 g     F ro	00000000000000c6 load_ddr
000000000c005cb2 g     F ro	000000000000006e cvx16_synp_mrw
000000000c005222 g     F ro	000000000000001e set_baudrate
000000000c005dd4 g     F ro	0000000000000016 cvx16_clk_div2
000000000c007086 g     F ro	00000000000003b2 phy_init
000000000c006988 g     F ro	00000000000000ba pll_init



Disassembly of section ro:

000000000c000000 <__RO_START__>:
 c000000:	0200006f          	j	c000020 <bl2_entrypoint_real>
	...

000000000c000020 <bl2_entrypoint_real>:
 c000020:	05900e1b          	addiw	t3,zero,89
 c000024:	019e1e13          	slli	t3,t3,0x19
 c000028:	03000eb7          	lui	t4,0x3000
 c00002c:	084e8e9b          	addiw	t4,t4,132
 c000030:	01cea023          	sw	t3,0(t4) # 3000000 <__BSS_SIZE__+0x2ffaf90>
 c000034:	00000093          	li	ra,0
 c000038:	00000113          	li	sp,0
 c00003c:	00000193          	li	gp,0
 c000040:	00000213          	li	tp,0
 c000044:	00000293          	li	t0,0
 c000048:	00000313          	li	t1,0
 c00004c:	00000393          	li	t2,0
 c000050:	00000413          	li	s0,0
 c000054:	00000493          	li	s1,0
 c000058:	00000513          	li	a0,0
 c00005c:	00000593          	li	a1,0
 c000060:	00000613          	li	a2,0
 c000064:	00000693          	li	a3,0
 c000068:	00000713          	li	a4,0
 c00006c:	00000793          	li	a5,0
 c000070:	00000813          	li	a6,0
 c000074:	00000893          	li	a7,0
 c000078:	00000913          	li	s2,0
 c00007c:	00000993          	li	s3,0
 c000080:	00000a13          	li	s4,0
 c000084:	00000a93          	li	s5,0
 c000088:	00000b13          	li	s6,0
 c00008c:	00000b93          	li	s7,0
 c000090:	00000c13          	li	s8,0
 c000094:	00000c93          	li	s9,0
 c000098:	00000d13          	li	s10,0
 c00009c:	00000d93          	li	s11,0
 c0000a0:	00000e13          	li	t3,0
 c0000a4:	00000e93          	li	t4,0
 c0000a8:	00000f13          	li	t5,0
 c0000ac:	00000f93          	li	t6,0
 c0000b0:	34001073          	csrw	mscratch,zero
 c0000b4:	00000297          	auipc	t0,0x0
 c0000b8:	09028293          	addi	t0,t0,144 # c000144 <die>
 c0000bc:	30529073          	csrw	mtvec,t0
 c0000c0:	000181b7          	lui	gp,0x18
 c0000c4:	0c71819b          	addiw	gp,gp,199
 c0000c8:	00f19193          	slli	gp,gp,0xf
 c0000cc:	7c019073          	csrw	mxstatus,gp
 c0000d0:	702001b7          	lui	gp,0x70200
 c0000d4:	ffc1819b          	addiw	gp,gp,-4
 c0000d8:	00100213          	li	tp,1
 c0000dc:	0041a023          	sw	tp,0(gp) # 70200000 <__BL2_END__+0x641f0d90>
 c0000e0:	03300193          	li	gp,51
 c0000e4:	7c21b073          	csrc	mcor,gp
 c0000e8:	01100193          	li	gp,17
 c0000ec:	7c21a073          	csrs	mcor,gp
 c0000f0:	00100193          	li	gp,1
 c0000f4:	7c11a073          	csrs	mhcr,gp
 c0000f8:	03300193          	li	gp,51
 c0000fc:	7c21b073          	csrc	mcor,gp
 c000100:	01200193          	li	gp,18
 c000104:	7c21a073          	csrs	mcor,gp
 c000108:	00200193          	li	gp,2
 c00010c:	7c11a073          	csrs	mhcr,gp
 c000110:	0000a117          	auipc	sp,0xa
 c000114:	0b010113          	addi	sp,sp,176 # c00a1c0 <__STACKS_END__>
 c000118:	0000a697          	auipc	a3,0xa
 c00011c:	0e868693          	addi	a3,a3,232 # c00a200 <fip_param2>
 c000120:	0000f717          	auipc	a4,0xf
 c000124:	15070713          	addi	a4,a4,336 # c00f270 <__BL2_END__>
 c000128:	40d70733          	sub	a4,a4,a3

000000000c00012c <bss_clear>:
 c00012c:	0006b023          	sd	zero,0(a3)
 c000130:	00868693          	addi	a3,a3,8
 c000134:	ff870713          	addi	a4,a4,-8
 c000138:	fe071ae3          	bnez	a4,c00012c <bss_clear>
 c00013c:	104050ef          	jal	ra,c005240 <bl2_main>
 c000140:	0040006f          	j	c000144 <die>

000000000c000144 <die>:
 c000144:	44a0006f          	j	c00058e <panic_handler>
 c000148:	ffdff06f          	j	c000144 <die>

000000000c00014c <sync_cache>:
 c00014c:	0100000b          	icache.iall
 c000150:	01a0000b          	sync.i
 c000154:	8082                	ret

000000000c000156 <flush_dcache_range>:
 c000156:	87aa                	mv	a5,a0
 c000158:	03f58593          	addi	a1,a1,63
 c00015c:	95be                	add	a1,a1,a5
 c00015e:	fc057513          	andi	a0,a0,-64
 c000162:	fc05f593          	andi	a1,a1,-64
 c000166:	00b56563          	bltu	a0,a1,c000170 <flush_dcache_range+0x1a>
 c00016a:	0190000b          	sync.s
 c00016e:	8082                	ret
 c000170:	02b5000b          	dcache.cipa	a0
 c000174:	04050513          	addi	a0,a0,64
 c000178:	b7fd                	j	c000166 <flush_dcache_range+0x10>

000000000c00017a <udelay>:
 c00017a:	c0102773          	rdtime	a4
 c00017e:	47e5                	li	a5,25
 c000180:	02a786bb          	mulw	a3,a5,a0
 c000184:	fff74713          	not	a4,a4
 c000188:	030007b7          	lui	a5,0x3000
 c00018c:	2701                	sext.w	a4,a4
 c00018e:	08d7a423          	sw	a3,136(a5) # 3000088 <__BSS_SIZE__+0x2ffb018>
 c000192:	c01027f3          	rdtime	a5
 c000196:	fff7c793          	not	a5,a5
 c00019a:	40f707bb          	subw	a5,a4,a5
 c00019e:	fed7eae3          	bltu	a5,a3,c000192 <udelay+0x18>
 c0001a2:	8082                	ret

000000000c0001a4 <mdelay>:
 c0001a4:	3e800793          	li	a5,1000
 c0001a8:	02a7853b          	mulw	a0,a5,a0
 c0001ac:	b7f9                	j	c00017a <udelay>

000000000c0001ae <read_count_tick>:
 c0001ae:	c0102573          	rdtime	a0
 c0001b2:	47e5                	li	a5,25
 c0001b4:	02f55533          	divu	a0,a0,a5
 c0001b8:	2501                	sext.w	a0,a0
 c0001ba:	8082                	ret

000000000c0001bc <jump_to_monitor>:
 c0001bc:	1101                	addi	sp,sp,-32
 c0001be:	494257b7          	lui	a5,0x49425
 c0001c2:	e822                	sd	s0,16(sp)
 c0001c4:	34f78793          	addi	a5,a5,847 # 4942534f <__BL2_END__+0x3d4160df>
 c0001c8:	0000f417          	auipc	s0,0xf
 c0001cc:	03840413          	addi	s0,s0,56 # c00f200 <fw_dynamic_info>
 c0001d0:	e426                	sd	s1,8(sp)
 c0001d2:	e01c                	sd	a5,0(s0)
 c0001d4:	010014b7          	lui	s1,0x1001
 c0001d8:	4785                	li	a5,1
 c0001da:	e04a                	sd	s2,0(sp)
 c0001dc:	00749613          	slli	a2,s1,0x7
 c0001e0:	892a                	mv	s2,a0
 c0001e2:	ec1c                	sd	a5,24(s0)
 c0001e4:	00007517          	auipc	a0,0x7
 c0001e8:	28c50513          	addi	a0,a0,652 # c007470 <version_string+0x18>
 c0001ec:	57fd                	li	a5,-1
 c0001ee:	ec06                	sd	ra,24(sp)
 c0001f0:	f41c                	sd	a5,40(s0)
 c0001f2:	e80c                	sd	a1,16(s0)
 c0001f4:	13e000ef          	jal	ra,c000332 <tf_printf>
 c0001f8:	03000593          	li	a1,48
 c0001fc:	8522                	mv	a0,s0
 c0001fe:	f59ff0ef          	jal	ra,c000156 <flush_dcache_range>
 c000202:	fadff0ef          	jal	ra,c0001ae <read_count_tick>
 c000206:	3e800793          	li	a5,1000
 c00020a:	3e75051b          	addiw	a0,a0,999
 c00020e:	02f5553b          	divuw	a0,a0,a5
 c000212:	00008797          	auipc	a5,0x8
 c000216:	da67b783          	ld	a5,-602(a5) # c007fb8 <time_records>
 c00021a:	8622                	mv	a2,s0
 c00021c:	6442                	ld	s0,16(sp)
 c00021e:	60e2                	ld	ra,24(sp)
 c000220:	00749593          	slli	a1,s1,0x7
 c000224:	64a2                	ld	s1,8(sp)
 c000226:	00a79723          	sh	a0,14(a5)
 c00022a:	87ca                	mv	a5,s2
 c00022c:	6902                	ld	s2,0(sp)
 c00022e:	4501                	li	a0,0
 c000230:	6105                	addi	sp,sp,32
 c000232:	8782                	jr	a5

000000000c000234 <jump_to_loader_2nd>:
 c000234:	8082                	ret

000000000c000236 <console_init>:
 c000236:	041407b7          	lui	a5,0x4140
 c00023a:	47d8                	lw	a4,12(a5)
 c00023c:	0046161b          	slliw	a2,a2,0x4
 c000240:	02c5c5bb          	divw	a1,a1,a2
 c000244:	08376713          	ori	a4,a4,131
 c000248:	c7d8                	sw	a4,12(a5)
 c00024a:	0ff5f713          	andi	a4,a1,255
 c00024e:	c398                	sw	a4,0(a5)
 c000250:	3c85b58b          	extu	a1,a1,15,8
 c000254:	c3cc                	sw	a1,4(a5)
 c000256:	47d8                	lw	a4,12(a5)
 c000258:	f7f77713          	andi	a4,a4,-129
 c00025c:	c7d8                	sw	a4,12(a5)
 c00025e:	0007a223          	sw	zero,4(a5) # 4140004 <__BSS_SIZE__+0x413af94>
 c000262:	470d                	li	a4,3
 c000264:	cb98                	sw	a4,16(a5)
 c000266:	469d                	li	a3,7
 c000268:	c794                	sw	a3,8(a5)
 c00026a:	c7d8                	sw	a4,12(a5)
 c00026c:	8082                	ret

000000000c00026e <_uart_putc>:
 c00026e:	04140737          	lui	a4,0x4140
 c000272:	4b5c                	lw	a5,20(a4)
 c000274:	0207f793          	andi	a5,a5,32
 c000278:	dfed                	beqz	a5,c000272 <_uart_putc+0x4>
 c00027a:	c308                	sw	a0,0(a4)
 c00027c:	8082                	ret

000000000c00027e <console_putc>:
 c00027e:	1141                	addi	sp,sp,-16
 c000280:	e022                	sd	s0,0(sp)
 c000282:	e406                	sd	ra,8(sp)
 c000284:	47a9                	li	a5,10
 c000286:	842a                	mv	s0,a0
 c000288:	00f51563          	bne	a0,a5,c000292 <console_putc+0x14>
 c00028c:	4535                	li	a0,13
 c00028e:	fe1ff0ef          	jal	ra,c00026e <_uart_putc>
 c000292:	8522                	mv	a0,s0
 c000294:	6402                	ld	s0,0(sp)
 c000296:	60a2                	ld	ra,8(sp)
 c000298:	0141                	addi	sp,sp,16
 c00029a:	bfd1                	j	c00026e <_uart_putc>

000000000c00029c <console_flush>:
 c00029c:	041406b7          	lui	a3,0x4140
 c0002a0:	06000713          	li	a4,96
 c0002a4:	4adc                	lw	a5,20(a3)
 c0002a6:	0607f793          	andi	a5,a5,96
 c0002aa:	fee79de3          	bne	a5,a4,c0002a4 <console_flush+0x8>
 c0002ae:	8082                	ret

000000000c0002b0 <unsigned_num_print>:
 c0002b0:	7139                	addi	sp,sp,-64
 c0002b2:	f04a                	sd	s2,32(sp)
 c0002b4:	7c05b70b          	extu	a4,a1,31,0
 c0002b8:	fc06                	sd	ra,56(sp)
 c0002ba:	f822                	sd	s0,48(sp)
 c0002bc:	f426                	sd	s1,40(sp)
 c0002be:	8932                	mv	s2,a2
 c0002c0:	4801                	li	a6,0
 c0002c2:	45a5                	li	a1,9
 c0002c4:	02e57633          	remu	a2,a0,a4
 c0002c8:	0018041b          	addiw	s0,a6,1
 c0002cc:	0ff67793          	andi	a5,a2,255
 c0002d0:	04c5e063          	bltu	a1,a2,c000310 <unsigned_num_print+0x60>
 c0002d4:	0307879b          	addiw	a5,a5,48
 c0002d8:	0ff7f793          	andi	a5,a5,255
 c0002dc:	0030                	addi	a2,sp,8
 c0002de:	0106578b          	srb	a5,a2,a6,0
 c0002e2:	02e557b3          	divu	a5,a0,a4
 c0002e6:	0805                	addi	a6,a6,1
 c0002e8:	02e57263          	bgeu	a0,a4,c00030c <unsigned_num_print+0x5c>
 c0002ec:	408684bb          	subw	s1,a3,s0
 c0002f0:	02904363          	bgtz	s1,c000316 <unsigned_num_print+0x66>
 c0002f4:	54fd                	li	s1,-1
 c0002f6:	147d                	addi	s0,s0,-1
 c0002f8:	0004079b          	sext.w	a5,s0
 c0002fc:	02979463          	bne	a5,s1,c000324 <unsigned_num_print+0x74>
 c000300:	70e2                	ld	ra,56(sp)
 c000302:	7442                	ld	s0,48(sp)
 c000304:	74a2                	ld	s1,40(sp)
 c000306:	7902                	ld	s2,32(sp)
 c000308:	6121                	addi	sp,sp,64
 c00030a:	8082                	ret
 c00030c:	853e                	mv	a0,a5
 c00030e:	bf5d                	j	c0002c4 <unsigned_num_print+0x14>
 c000310:	0577879b          	addiw	a5,a5,87
 c000314:	b7d1                	j	c0002d8 <unsigned_num_print+0x28>
 c000316:	85ca                	mv	a1,s2
 c000318:	03000513          	li	a0,48
 c00031c:	22d000ef          	jal	ra,c000d48 <putchar_l>
 c000320:	34fd                	addiw	s1,s1,-1
 c000322:	b7f9                	j	c0002f0 <unsigned_num_print+0x40>
 c000324:	003c                	addi	a5,sp,8
 c000326:	8087c50b          	lrbu	a0,a5,s0,0
 c00032a:	85ca                	mv	a1,s2
 c00032c:	21d000ef          	jal	ra,c000d48 <putchar_l>
 c000330:	b7d9                	j	c0002f6 <unsigned_num_print+0x46>

000000000c000332 <tf_printf>:
 c000332:	7135                	addi	sp,sp,-160
 c000334:	e8a2                	sd	s0,80(sp)
 c000336:	e4a6                	sd	s1,72(sp)
 c000338:	ec86                	sd	ra,88(sp)
 c00033a:	e0ca                	sd	s2,64(sp)
 c00033c:	fc4e                	sd	s3,56(sp)
 c00033e:	f852                	sd	s4,48(sp)
 c000340:	f456                	sd	s5,40(sp)
 c000342:	f05a                	sd	s6,32(sp)
 c000344:	f4ae                	sd	a1,104(sp)
 c000346:	f8b2                	sd	a2,112(sp)
 c000348:	fcb6                	sd	a3,120(sp)
 c00034a:	e13a                	sd	a4,128(sp)
 c00034c:	e53e                	sd	a5,136(sp)
 c00034e:	e942                	sd	a6,144(sp)
 c000350:	ed46                	sd	a7,152(sp)
 c000352:	842a                	mv	s0,a0
 c000354:	4489                	li	s1,2
 c000356:	c115                	beqz	a0,c00037a <tf_printf+0x48>
 c000358:	00054703          	lbu	a4,0(a0)
 c00035c:	4785                	li	a5,1
 c00035e:	00f71e63          	bne	a4,a5,c00037a <tf_printf+0x48>
 c000362:	00154783          	lbu	a5,1(a0)
 c000366:	4711                	li	a4,4
 c000368:	fd07879b          	addiw	a5,a5,-48
 c00036c:	0ff7f693          	andi	a3,a5,255
 c000370:	00d76563          	bltu	a4,a3,c00037a <tf_printf+0x48>
 c000374:	84be                	mv	s1,a5
 c000376:	00250413          	addi	s0,a0,2
 c00037a:	10bc                	addi	a5,sp,104
 c00037c:	ec3e                	sd	a5,24(sp)
 c00037e:	4a25                	li	s4,9
 c000380:	4ad9                	li	s5,22
 c000382:	00007997          	auipc	s3,0x7
 c000386:	11a98993          	addi	s3,s3,282 # c00749c <version_string+0x44>
 c00038a:	00044503          	lbu	a0,0(s0)
 c00038e:	e919                	bnez	a0,c0003a4 <tf_printf+0x72>
 c000390:	60e6                	ld	ra,88(sp)
 c000392:	6446                	ld	s0,80(sp)
 c000394:	64a6                	ld	s1,72(sp)
 c000396:	6906                	ld	s2,64(sp)
 c000398:	79e2                	ld	s3,56(sp)
 c00039a:	7a42                	ld	s4,48(sp)
 c00039c:	7aa2                	ld	s5,40(sp)
 c00039e:	7b02                	ld	s6,32(sp)
 c0003a0:	610d                	addi	sp,sp,160
 c0003a2:	8082                	ret
 c0003a4:	02500793          	li	a5,37
 c0003a8:	0405                	addi	s0,s0,1
 c0003aa:	10f51b63          	bne	a0,a5,c0004c0 <tf_printf+0x18e>
 c0003ae:	4781                	li	a5,0
 c0003b0:	4681                	li	a3,0
 c0003b2:	03000613          	li	a2,48
 c0003b6:	00044703          	lbu	a4,0(s0)
 c0003ba:	00c70c63          	beq	a4,a2,c0003d2 <tf_printf+0xa0>
 c0003be:	f9c7071b          	addiw	a4,a4,-100
 c0003c2:	0ff77713          	andi	a4,a4,255
 c0003c6:	fceae5e3          	bltu	s5,a4,c000390 <tf_printf+0x5e>
 c0003ca:	44e9c70b          	lrw	a4,s3,a4,2
 c0003ce:	974e                	add	a4,a4,s3
 c0003d0:	8702                	jr	a4
 c0003d2:	00144703          	lbu	a4,1(s0)
 c0003d6:	fd07071b          	addiw	a4,a4,-48
 c0003da:	0ff77593          	andi	a1,a4,255
 c0003de:	00ba6363          	bltu	s4,a1,c0003e4 <tf_printf+0xb2>
 c0003e2:	86ba                	mv	a3,a4
 c0003e4:	0409                	addi	s0,s0,2
 c0003e6:	bfc1                	j	c0003b6 <tf_printf+0x84>
 c0003e8:	6762                	ld	a4,24(sp)
 c0003ea:	4585                	li	a1,1
 c0003ec:	00870613          	addi	a2,a4,8 # 4140008 <__BSS_SIZE__+0x413af98>
 c0003f0:	ec32                	sd	a2,24(sp)
 c0003f2:	02f5d563          	bge	a1,a5,c00041c <tf_printf+0xea>
 c0003f6:	00073903          	ld	s2,0(a4)
 c0003fa:	00095b63          	bgez	s2,c000410 <tf_printf+0xde>
 c0003fe:	85a6                	mv	a1,s1
 c000400:	02d00513          	li	a0,45
 c000404:	e436                	sd	a3,8(sp)
 c000406:	143000ef          	jal	ra,c000d48 <putchar_l>
 c00040a:	66a2                	ld	a3,8(sp)
 c00040c:	41200933          	neg	s2,s2
 c000410:	8626                	mv	a2,s1
 c000412:	45a9                	li	a1,10
 c000414:	854a                	mv	a0,s2
 c000416:	e9bff0ef          	jal	ra,c0002b0 <unsigned_num_print>
 c00041a:	a831                	j	c000436 <tf_printf+0x104>
 c00041c:	ffe9                	bnez	a5,c0003f6 <tf_printf+0xc4>
 c00041e:	00072903          	lw	s2,0(a4)
 c000422:	bfe1                	j	c0003fa <tf_printf+0xc8>
 c000424:	67e2                	ld	a5,24(sp)
 c000426:	0007b903          	ld	s2,0(a5)
 c00042a:	00878713          	addi	a4,a5,8
 c00042e:	ec3a                	sd	a4,24(sp)
 c000430:	00094503          	lbu	a0,0(s2)
 c000434:	e119                	bnez	a0,c00043a <tf_printf+0x108>
 c000436:	0405                	addi	s0,s0,1
 c000438:	bf89                	j	c00038a <tf_printf+0x58>
 c00043a:	85a6                	mv	a1,s1
 c00043c:	0905                	addi	s2,s2,1
 c00043e:	10b000ef          	jal	ra,c000d48 <putchar_l>
 c000442:	b7fd                	j	c000430 <tf_printf+0xfe>
 c000444:	67e2                	ld	a5,24(sp)
 c000446:	00007917          	auipc	s2,0x7
 c00044a:	05290913          	addi	s2,s2,82 # c007498 <version_string+0x40>
 c00044e:	0007bb03          	ld	s6,0(a5)
 c000452:	00878713          	addi	a4,a5,8
 c000456:	ec3a                	sd	a4,24(sp)
 c000458:	000b1c63          	bnez	s6,c000470 <tf_printf+0x13e>
 c00045c:	8626                	mv	a2,s1
 c00045e:	45c1                	li	a1,16
 c000460:	855a                	mv	a0,s6
 c000462:	bf55                	j	c000416 <tf_printf+0xe4>
 c000464:	85a6                	mv	a1,s1
 c000466:	e436                	sd	a3,8(sp)
 c000468:	0e1000ef          	jal	ra,c000d48 <putchar_l>
 c00046c:	66a2                	ld	a3,8(sp)
 c00046e:	0905                	addi	s2,s2,1
 c000470:	00094503          	lbu	a0,0(s2)
 c000474:	f965                	bnez	a0,c000464 <tf_printf+0x132>
 c000476:	b7dd                	j	c00045c <tf_printf+0x12a>
 c000478:	6762                	ld	a4,24(sp)
 c00047a:	4585                	li	a1,1
 c00047c:	00870613          	addi	a2,a4,8
 c000480:	ec32                	sd	a2,24(sp)
 c000482:	00f5d663          	bge	a1,a5,c00048e <tf_printf+0x15c>
 c000486:	6308                	ld	a0,0(a4)
 c000488:	8626                	mv	a2,s1
 c00048a:	45c1                	li	a1,16
 c00048c:	b769                	j	c000416 <tf_printf+0xe4>
 c00048e:	ffe5                	bnez	a5,c000486 <tf_printf+0x154>
 c000490:	00076503          	lwu	a0,0(a4)
 c000494:	bfd5                	j	c000488 <tf_printf+0x156>
 c000496:	0405                	addi	s0,s0,1
 c000498:	4789                	li	a5,2
 c00049a:	bf31                	j	c0003b6 <tf_printf+0x84>
 c00049c:	2785                	addiw	a5,a5,1
 c00049e:	0405                	addi	s0,s0,1
 c0004a0:	bf19                	j	c0003b6 <tf_printf+0x84>
 c0004a2:	6762                	ld	a4,24(sp)
 c0004a4:	4585                	li	a1,1
 c0004a6:	00870613          	addi	a2,a4,8
 c0004aa:	ec32                	sd	a2,24(sp)
 c0004ac:	00f5d663          	bge	a1,a5,c0004b8 <tf_printf+0x186>
 c0004b0:	6308                	ld	a0,0(a4)
 c0004b2:	8626                	mv	a2,s1
 c0004b4:	45a9                	li	a1,10
 c0004b6:	b785                	j	c000416 <tf_printf+0xe4>
 c0004b8:	ffe5                	bnez	a5,c0004b0 <tf_printf+0x17e>
 c0004ba:	00076503          	lwu	a0,0(a4)
 c0004be:	bfd5                	j	c0004b2 <tf_printf+0x180>
 c0004c0:	85a6                	mv	a1,s1
 c0004c2:	087000ef          	jal	ra,c000d48 <putchar_l>
 c0004c6:	b5d1                	j	c00038a <tf_printf+0x58>

000000000c0004c8 <__system_reset>:
 c0004c8:	7179                	addi	sp,sp,-48
 c0004ca:	f022                	sd	s0,32(sp)
 c0004cc:	be00e437          	lui	s0,0xbe00e
 c0004d0:	f406                	sd	ra,40(sp)
 c0004d2:	00340793          	addi	a5,s0,3 # ffffffffbe00e003 <__BL2_END__+0xffffffffb1ffed93>
 c0004d6:	ec26                	sd	s1,24(sp)
 c0004d8:	e84a                	sd	s2,16(sp)
 c0004da:	e44e                	sd	s3,8(sp)
 c0004dc:	0e000937          	lui	s2,0xe000
 c0004e0:	862e                	mv	a2,a1
 c0004e2:	00f92823          	sw	a5,16(s2) # e000010 <__BL2_END__+0x1ff0da0>
 c0004e6:	85aa                	mv	a1,a0
 c0004e8:	00007517          	auipc	a0,0x7
 c0004ec:	01050513          	addi	a0,a0,16 # c0074f8 <version_string+0xa0>
 c0004f0:	e43ff0ef          	jal	ra,c000332 <tf_printf>
 c0004f4:	da9ff0ef          	jal	ra,c00029c <console_flush>
 c0004f8:	be0034b7          	lui	s1,0xbe003
 c0004fc:	00148793          	addi	a5,s1,1 # ffffffffbe003001 <__BL2_END__+0xffffffffb1ff3d91>
 c000500:	030009b7          	lui	s3,0x3000
 c000504:	6505                	lui	a0,0x1
 c000506:	08f9a223          	sw	a5,132(s3) # 3000084 <__BSS_SIZE__+0x2ffb014>
 c00050a:	38850513          	addi	a0,a0,904 # 1388 <__BSS_SIZE__-0x3ce8>
 c00050e:	c97ff0ef          	jal	ra,c0001a4 <mdelay>
 c000512:	050267b7          	lui	a5,0x5026
 c000516:	4705                	li	a4,1
 c000518:	0ee7a023          	sw	a4,224(a5) # 50260e0 <p_rom_api_cryptodma_aes_decrypt+0xc0dfe0>
 c00051c:	0ce7a423          	sw	a4,200(a5)
 c000520:	0489                	addi	s1,s1,2
 c000522:	0899a223          	sw	s1,132(s3)
 c000526:	06400513          	li	a0,100
 c00052a:	c51ff0ef          	jal	ra,c00017a <udelay>
 c00052e:	050257b7          	lui	a5,0x5025
 c000532:	672d                	lui	a4,0xb
 c000534:	0a07a623          	sw	zero,172(a5) # 50250ac <p_rom_api_cryptodma_aes_decrypt+0xc0cfac>
 c000538:	b1870713          	addi	a4,a4,-1256 # ab18 <__BSS_SIZE__+0x5aa8>
 c00053c:	c3d8                	sw	a4,4(a5)
 c00053e:	00400737          	lui	a4,0x400
 c000542:	04070713          	addi	a4,a4,64 # 400040 <__BSS_SIZE__+0x3fafd0>
 c000546:	c798                	sw	a4,8(a5)
 c000548:	030107b7          	lui	a5,0x3010
 c00054c:	06600713          	li	a4,102
 c000550:	c3d8                	sw	a4,4(a5)
 c000552:	02000713          	li	a4,32
 c000556:	cfd8                	sw	a4,28(a5)
 c000558:	07600713          	li	a4,118
 c00055c:	c7d8                	sw	a4,12(a5)
 c00055e:	4745                	li	a4,17
 c000560:	c398                	sw	a4,0(a5)
 c000562:	00394783          	lbu	a5,3(s2)
 c000566:	0407f793          	andi	a5,a5,64
 c00056a:	c38d                	beqz	a5,c00058c <__system_reset+0xc4>
 c00056c:	0411                	addi	s0,s0,4
 c00056e:	00892823          	sw	s0,16(s2)
 c000572:	050266b7          	lui	a3,0x5026
 c000576:	470d                	li	a4,3
 c000578:	0d46a783          	lw	a5,212(a3) # 50260d4 <p_rom_api_cryptodma_aes_decrypt+0xc0dfd4>
 c00057c:	fee79ee3          	bne	a5,a4,c000578 <__system_reset+0xb0>
 c000580:	000807b7          	lui	a5,0x80
 c000584:	05025737          	lui	a4,0x5025
 c000588:	07a1                	addi	a5,a5,8
 c00058a:	c71c                	sw	a5,8(a4)
 c00058c:	a001                	j	c00058c <__system_reset+0xc4>

000000000c00058e <panic_handler>:
 c00058e:	1141                	addi	sp,sp,-16
 c000590:	be00e7b7          	lui	a5,0xbe00e
 c000594:	e406                	sd	ra,8(sp)
 c000596:	0e000737          	lui	a4,0xe000
 c00059a:	0789                	addi	a5,a5,2
 c00059c:	cb1c                	sw	a5,16(a4)
 c00059e:	0000879b          	sext.w	a5,ra
 c0005a2:	8586                	mv	a1,ra
 c0005a4:	00007517          	auipc	a0,0x7
 c0005a8:	f6c50513          	addi	a0,a0,-148 # c007510 <version_string+0xb8>
 c0005ac:	cb5c                	sw	a5,20(a4)
 c0005ae:	d85ff0ef          	jal	ra,c000332 <tf_printf>
 c0005b2:	55fd                	li	a1,-1
 c0005b4:	00007517          	auipc	a0,0x7
 c0005b8:	f6c50513          	addi	a0,a0,-148 # c007520 <version_string+0xc8>
 c0005bc:	f0dff0ef          	jal	ra,c0004c8 <__system_reset>

000000000c0005c0 <reset_c906l>:
 c0005c0:	1141                	addi	sp,sp,-16
 c0005c2:	e022                	sd	s0,0(sp)
 c0005c4:	842a                	mv	s0,a0
 c0005c6:	00007517          	auipc	a0,0x7
 c0005ca:	f6250513          	addi	a0,a0,-158 # c007528 <version_string+0xd0>
 c0005ce:	e406                	sd	ra,8(sp)
 c0005d0:	d63ff0ef          	jal	ra,c000332 <tf_printf>
 c0005d4:	03003737          	lui	a4,0x3003
 c0005d8:	535c                	lw	a5,36(a4)
 c0005da:	020b06b7          	lui	a3,0x20b0
 c0005de:	6609                	lui	a2,0x2
 c0005e0:	fbf7f793          	andi	a5,a5,-65
 c0005e4:	d35c                	sw	a5,36(a4)
 c0005e6:	42dc                	lw	a5,4(a3)
 c0005e8:	60a2                	ld	ra,8(sp)
 c0005ea:	8fd1                	or	a5,a5,a2
 c0005ec:	c2dc                	sw	a5,4(a3)
 c0005ee:	0004079b          	sext.w	a5,s0
 c0005f2:	d29c                	sw	a5,32(a3)
 c0005f4:	9401                	srai	s0,s0,0x20
 c0005f6:	d2c0                	sw	s0,36(a3)
 c0005f8:	535c                	lw	a5,36(a4)
 c0005fa:	6402                	ld	s0,0(sp)
 c0005fc:	0407e793          	ori	a5,a5,64
 c000600:	d35c                	sw	a5,36(a4)
 c000602:	0141                	addi	sp,sp,16
 c000604:	8082                	ret

000000000c000606 <setup_dl_flag>:
 c000606:	1141                	addi	sp,sp,-16
 c000608:	e406                	sd	ra,8(sp)
 c00060a:	f8418097          	auipc	ra,0xf8418
 c00060e:	a16080e7          	jalr	-1514(ra) # 4418020 <p_rom_api_get_boot_src>
 c000612:	67b5                	lui	a5,0xd
 c000614:	2501                	sext.w	a0,a0
 c000616:	ea378713          	addi	a4,a5,-349 # cea3 <__BSS_SIZE__+0x7e33>
 c00061a:	02e50b63          	beq	a0,a4,c000650 <setup_dl_flag+0x4a>
 c00061e:	ea578713          	addi	a4,a5,-347
 c000622:	00e50d63          	beq	a0,a4,c00063c <setup_dl_flag+0x36>
 c000626:	ea078793          	addi	a5,a5,-352
 c00062a:	02f51a63          	bne	a0,a5,c00065e <setup_dl_flag+0x58>
 c00062e:	4d4757b7          	lui	a5,0x4d475
 c000632:	0e000737          	lui	a4,0xe000
 c000636:	e3278793          	addi	a5,a5,-462 # 4d474e32 <__BL2_END__+0x41465bc2>
 c00063a:	a039                	j	c000648 <setup_dl_flag+0x42>
 c00063c:	4d4757b7          	lui	a5,0x4d475
 c000640:	0e000737          	lui	a4,0xe000
 c000644:	e3378793          	addi	a5,a5,-461 # 4d474e33 <__BL2_END__+0x41465bc3>
 c000648:	c35c                	sw	a5,4(a4)
 c00064a:	60a2                	ld	ra,8(sp)
 c00064c:	0141                	addi	sp,sp,16
 c00064e:	8082                	ret
 c000650:	4d4757b7          	lui	a5,0x4d475
 c000654:	0e000737          	lui	a4,0xe000
 c000658:	e3178793          	addi	a5,a5,-463 # 4d474e31 <__BL2_END__+0x41465bc1>
 c00065c:	b7f5                	j	c000648 <setup_dl_flag+0x42>
 c00065e:	0e0007b7          	lui	a5,0xe000
 c000662:	c3c8                	sw	a0,4(a5)
 c000664:	b7dd                	j	c00064a <setup_dl_flag+0x44>

000000000c000666 <config_core_power>:
 c000666:	030607b7          	lui	a5,0x3060
 c00066a:	c388                	sw	a0,0(a5)
 c00066c:	06400713          	li	a4,100
 c000670:	c3d8                	sw	a4,4(a5)
 c000672:	03001737          	lui	a4,0x3001
 c000676:	0e072623          	sw	zero,236(a4) # 30010ec <__BSS_SIZE__+0x2ffc07c>
 c00067a:	4705                	li	a4,1
 c00067c:	c3f8                	sw	a4,68(a5)
 c00067e:	0ce7a823          	sw	a4,208(a5) # 30600d0 <__BSS_SIZE__+0x305b060>
 c000682:	4529                	li	a0,10
 c000684:	b605                	j	c0001a4 <mdelay>

000000000c000686 <sys_switch_all_to_pll>:
 c000686:	030027b7          	lui	a5,0x3002
 c00068a:	0207a823          	sw	zero,48(a5) # 3002030 <__BSS_SIZE__+0x2ffcfc0>
 c00068e:	0207aa23          	sw	zero,52(a5)
 c000692:	8082                	ret

000000000c000694 <sys_pll_od>:
 c000694:	00007797          	auipc	a5,0x7
 c000698:	f547b783          	ld	a5,-172(a5) # c0075e8 <version_string+0x190>
 c00069c:	7139                	addi	sp,sp,-64
 c00069e:	00007517          	auipc	a0,0x7
 c0006a2:	e9250513          	addi	a0,a0,-366 # c007530 <version_string+0xd8>
 c0006a6:	e03e                	sd	a5,0(sp)
 c0006a8:	00007797          	auipc	a5,0x7
 c0006ac:	f487b783          	ld	a5,-184(a5) # c0075f0 <version_string+0x198>
 c0006b0:	fc06                	sd	ra,56(sp)
 c0006b2:	f426                	sd	s1,40(sp)
 c0006b4:	e43e                	sd	a5,8(sp)
 c0006b6:	00007797          	auipc	a5,0x7
 c0006ba:	f427b783          	ld	a5,-190(a5) # c0075f8 <version_string+0x1a0>
 c0006be:	f822                	sd	s0,48(sp)
 c0006c0:	f04a                	sd	s2,32(sp)
 c0006c2:	e83e                	sd	a5,16(sp)
 c0006c4:	00007797          	auipc	a5,0x7
 c0006c8:	f3c7b783          	ld	a5,-196(a5) # c007600 <version_string+0x1a8>
 c0006cc:	ec3e                	sd	a5,24(sp)
 c0006ce:	c65ff0ef          	jal	ra,c000332 <tf_printf>
 c0006d2:	05800513          	li	a0,88
 c0006d6:	f91ff0ef          	jal	ra,c000666 <config_core_power>
 c0006da:	030027b7          	lui	a5,0x3002
 c0006de:	577d                	li	a4,-1
 c0006e0:	5b84                	lw	s1,48(a5)
 c0006e2:	03f00693          	li	a3,63
 c0006e6:	db98                	sw	a4,48(a5)
 c0006e8:	dbd4                	sw	a3,52(a5)
 c0006ea:	054887b7          	lui	a5,0x5488
 c0006ee:	03003737          	lui	a4,0x3003
 c0006f2:	10178793          	addi	a5,a5,257 # 5488101 <p_rom_api_cryptodma_aes_decrypt+0x1070001>
 c0006f6:	80f72423          	sw	a5,-2040(a4) # 3002808 <__BSS_SIZE__+0x2ffd798>
 c0006fa:	030037b7          	lui	a5,0x3003
 c0006fe:	84d72023          	sw	a3,-1984(a4)
 c000702:	4601                	li	a2,0
 c000704:	85470713          	addi	a4,a4,-1964
 c000708:	01010813          	addi	a6,sp,16
 c00070c:	80c78513          	addi	a0,a5,-2036 # 300280c <__BSS_SIZE__+0x2ffd79c>
 c000710:	45c1                	li	a1,16
 c000712:	4026468b          	lrw	a3,a2,sp,0
 c000716:	c314                	sw	a3,0(a4)
 c000718:	ffc72683          	lw	a3,-4(a4)
 c00071c:	0741                	addi	a4,a4,16
 c00071e:	9abd                	andi	a3,a3,-17
 c000720:	0016e693          	ori	a3,a3,1
 c000724:	fed72623          	sw	a3,-20(a4)
 c000728:	4106468b          	lrw	a3,a2,a6,0
 c00072c:	40a6568b          	srw	a3,a2,a0,0
 c000730:	0611                	addi	a2,a2,4
 c000732:	feb610e3          	bne	a2,a1,c000712 <sys_pll_od+0x7e>
 c000736:	80078613          	addi	a2,a5,-2048
 c00073a:	4218                	lw	a4,0(a2)
 c00073c:	76bd                	lui	a3,0xfffef
 c00073e:	eee68693          	addi	a3,a3,-274 # fffffffffffeeeee <__BL2_END__+0xfffffffff3fdfc7e>
 c000742:	8f75                	and	a4,a4,a3
 c000744:	c218                	sw	a4,0(a2)
 c000746:	05548737          	lui	a4,0x5548
 c00074a:	90078613          	addi	a2,a5,-1792
 c00074e:	10170713          	addi	a4,a4,257 # 5548101 <p_rom_api_cryptodma_aes_decrypt+0x1130001>
 c000752:	c618                	sw	a4,8(a2)
 c000754:	03002437          	lui	s0,0x3002
 c000758:	6541                	lui	a0,0x10
 c00075a:	01800737          	lui	a4,0x1800
 c00075e:	d018                	sw	a4,32(s0)
 c000760:	10040693          	addi	a3,s0,256 # 3002100 <__BSS_SIZE__+0x2ffd090>
 c000764:	30950713          	addi	a4,a0,777 # 10309 <__BSS_SIZE__+0xb299>
 c000768:	da98                	sw	a4,48(a3)
 c00076a:	10950713          	addi	a4,a0,265
 c00076e:	de98                	sw	a4,56(a3)
 c000770:	07708737          	lui	a4,0x7708
 c000774:	10170713          	addi	a4,a4,257 # 7708101 <p_rom_api_cryptodma_aes_decrypt+0x32f0001>
 c000778:	000305b7          	lui	a1,0x30
 c00077c:	c658                	sw	a4,12(a2)
 c00077e:	00958313          	addi	t1,a1,9 # 30009 <__BSS_SIZE__+0x2af99>
 c000782:	00020637          	lui	a2,0x20
 c000786:	04642423          	sw	t1,72(s0)
 c00078a:	00960893          	addi	a7,a2,9 # 20009 <__BSS_SIZE__+0x1af99>
 c00078e:	00080937          	lui	s2,0x80
 c000792:	05142a23          	sw	a7,84(s0)
 c000796:	00990813          	addi	a6,s2,9 # 80009 <__BSS_SIZE__+0x7af99>
 c00079a:	07042223          	sw	a6,100(s0)
 c00079e:	08040713          	addi	a4,s0,128
 c0007a2:	01072423          	sw	a6,8(a4)
 c0007a6:	00200837          	lui	a6,0x200
 c0007aa:	0825                	addi	a6,a6,9
 c0007ac:	01072c23          	sw	a6,24(a4)
 c0007b0:	000f0837          	lui	a6,0xf0
 c0007b4:	0825                	addi	a6,a6,9
 c0007b6:	0306a023          	sw	a6,32(a3)
 c0007ba:	0525                	addi	a0,a0,9
 c0007bc:	d708                	sw	a0,40(a4)
 c0007be:	10960513          	addi	a0,a2,265
 c0007c2:	d368                	sw	a0,100(a4)
 c0007c4:	20960613          	addi	a2,a2,521
 c0007c8:	d770                	sw	a2,108(a4)
 c0007ca:	00060537          	lui	a0,0x60
 c0007ce:	04672423          	sw	t1,72(a4)
 c0007d2:	30950513          	addi	a0,a0,777 # 60309 <__BSS_SIZE__+0x5b299>
 c0007d6:	cb28                	sw	a0,80(a4)
 c0007d8:	20958593          	addi	a1,a1,521
 c0007dc:	cf2c                	sw	a1,88(a4)
 c0007de:	ca90                	sw	a2,16(a3)
 c0007e0:	0516a023          	sw	a7,64(a3)
 c0007e4:	00050637          	lui	a2,0x50
 c0007e8:	c2ec                	sw	a1,68(a3)
 c0007ea:	0625                	addi	a2,a2,9
 c0007ec:	df10                	sw	a2,56(a4)
 c0007ee:	d6d0                	sw	a2,44(a3)
 c0007f0:	88078793          	addi	a5,a5,-1920
 c0007f4:	5398                	lw	a4,32(a5)
 c0007f6:	10090913          	addi	s2,s2,256
 c0007fa:	0124f933          	and	s2,s1,s2
 c0007fe:	9b6d                	andi	a4,a4,-5
 c000800:	d398                	sw	a4,32(a5)
 c000802:	57d8                	lw	a4,44(a5)
 c000804:	0c800513          	li	a0,200
 c000808:	9b65                	andi	a4,a4,-7
 c00080a:	d7d8                	sw	a4,44(a5)
 c00080c:	96fff0ef          	jal	ra,c00017a <udelay>
 c000810:	03242823          	sw	s2,48(s0)
 c000814:	70e2                	ld	ra,56(sp)
 c000816:	02042a23          	sw	zero,52(s0)
 c00081a:	7442                	ld	s0,48(sp)
 c00081c:	74a2                	ld	s1,40(sp)
 c00081e:	7902                	ld	s2,32(sp)
 c000820:	6121                	addi	sp,sp,64
 c000822:	8082                	ret

000000000c000824 <sys_pll_nd>:
 c000824:	00007797          	auipc	a5,0x7
 c000828:	dc47b783          	ld	a5,-572(a5) # c0075e8 <version_string+0x190>
 c00082c:	7139                	addi	sp,sp,-64
 c00082e:	f822                	sd	s0,48(sp)
 c000830:	e03e                	sd	a5,0(sp)
 c000832:	00007797          	auipc	a5,0x7
 c000836:	dd67b783          	ld	a5,-554(a5) # c007608 <version_string+0x1b0>
 c00083a:	842a                	mv	s0,a0
 c00083c:	00007517          	auipc	a0,0x7
 c000840:	d0450513          	addi	a0,a0,-764 # c007540 <version_string+0xe8>
 c000844:	e43e                	sd	a5,8(sp)
 c000846:	00007797          	auipc	a5,0x7
 c00084a:	dca7b783          	ld	a5,-566(a5) # c007610 <version_string+0x1b8>
 c00084e:	fc06                	sd	ra,56(sp)
 c000850:	f426                	sd	s1,40(sp)
 c000852:	e83e                	sd	a5,16(sp)
 c000854:	00007797          	auipc	a5,0x7
 c000858:	dc47b783          	ld	a5,-572(a5) # c007618 <version_string+0x1c0>
 c00085c:	ec3e                	sd	a5,24(sp)
 c00085e:	ad5ff0ef          	jal	ra,c000332 <tf_printf>
 c000862:	cc19                	beqz	s0,c000880 <sys_pll_nd+0x5c>
 c000864:	22f397b7          	lui	a5,0x22f39
 c000868:	2a478793          	addi	a5,a5,676 # 22f392a4 <__BL2_END__+0x16f2a034>
 c00086c:	c63e                	sw	a5,12(sp)
 c00086e:	001487b7          	lui	a5,0x148
 c000872:	10178793          	addi	a5,a5,257 # 148101 <__BSS_SIZE__+0x143091>
 c000876:	05800513          	li	a0,88
 c00087a:	ce3e                	sw	a5,28(sp)
 c00087c:	debff0ef          	jal	ra,c000666 <config_core_power>
 c000880:	030027b7          	lui	a5,0x3002
 c000884:	577d                	li	a4,-1
 c000886:	5b84                	lw	s1,48(a5)
 c000888:	03f00693          	li	a3,63
 c00088c:	db98                	sw	a4,48(a5)
 c00088e:	05488737          	lui	a4,0x5488
 c000892:	dbd4                	sw	a3,52(a5)
 c000894:	10170713          	addi	a4,a4,257 # 5488101 <p_rom_api_cryptodma_aes_decrypt+0x1070001>
 c000898:	030037b7          	lui	a5,0x3003
 c00089c:	80e7a423          	sw	a4,-2040(a5) # 3002808 <__BSS_SIZE__+0x2ffd798>
 c0008a0:	84d7a023          	sw	a3,-1984(a5)
 c0008a4:	030036b7          	lui	a3,0x3003
 c0008a8:	4601                	li	a2,0
 c0008aa:	85478793          	addi	a5,a5,-1964
 c0008ae:	01010813          	addi	a6,sp,16
 c0008b2:	80c68513          	addi	a0,a3,-2036 # 300280c <__BSS_SIZE__+0x2ffd79c>
 c0008b6:	45c1                	li	a1,16
 c0008b8:	4026470b          	lrw	a4,a2,sp,0
 c0008bc:	c398                	sw	a4,0(a5)
 c0008be:	ffc7a703          	lw	a4,-4(a5)
 c0008c2:	07c1                	addi	a5,a5,16
 c0008c4:	9b3d                	andi	a4,a4,-17
 c0008c6:	00176713          	ori	a4,a4,1
 c0008ca:	fee7a623          	sw	a4,-20(a5)
 c0008ce:	4106470b          	lrw	a4,a2,a6,0
 c0008d2:	40a6570b          	srw	a4,a2,a0,0
 c0008d6:	0611                	addi	a2,a2,4
 c0008d8:	feb610e3          	bne	a2,a1,c0008b8 <sys_pll_nd+0x94>
 c0008dc:	80068613          	addi	a2,a3,-2048
 c0008e0:	421c                	lw	a5,0(a2)
 c0008e2:	773d                	lui	a4,0xfffef
 c0008e4:	eee70713          	addi	a4,a4,-274 # fffffffffffeeeee <__BL2_END__+0xfffffffff3fdfc7e>
 c0008e8:	8ff9                	and	a5,a5,a4
 c0008ea:	c21c                	sw	a5,0(a2)
 c0008ec:	00448637          	lui	a2,0x448
 c0008f0:	10160613          	addi	a2,a2,257 # 448101 <__BSS_SIZE__+0x443091>
 c0008f4:	90068693          	addi	a3,a3,-1792
 c0008f8:	c690                	sw	a2,8(a3)
 c0008fa:	030027b7          	lui	a5,0x3002
 c0008fe:	01800737          	lui	a4,0x1800
 c000902:	6541                	lui	a0,0x10
 c000904:	d398                	sw	a4,32(a5)
 c000906:	30950593          	addi	a1,a0,777 # 10309 <__BSS_SIZE__+0xb299>
 c00090a:	10078713          	addi	a4,a5,256 # 3002100 <__BSS_SIZE__+0x2ffd090>
 c00090e:	db0c                	sw	a1,48(a4)
 c000910:	000205b7          	lui	a1,0x20
 c000914:	20958893          	addi	a7,a1,521 # 20209 <__BSS_SIZE__+0x1b199>
 c000918:	03172c23          	sw	a7,56(a4) # 1800038 <__BSS_SIZE__+0x17fafc8>
 c00091c:	c6d0                	sw	a2,12(a3)
 c00091e:	000306b7          	lui	a3,0x30
 c000922:	30968613          	addi	a2,a3,777 # 30309 <__BSS_SIZE__+0x2b299>
 c000926:	cbf0                	sw	a2,84(a5)
 c000928:	00080837          	lui	a6,0x80
 c00092c:	00968613          	addi	a2,a3,9
 c000930:	c7b0                	sw	a2,72(a5)
 c000932:	0825                	addi	a6,a6,9
 c000934:	0707a223          	sw	a6,100(a5)
 c000938:	08078793          	addi	a5,a5,128
 c00093c:	0107a423          	sw	a6,8(a5)
 c000940:	00120837          	lui	a6,0x120
 c000944:	0825                	addi	a6,a6,9
 c000946:	0107ac23          	sw	a6,24(a5)
 c00094a:	000f0837          	lui	a6,0xf0
 c00094e:	0825                	addi	a6,a6,9
 c000950:	03072023          	sw	a6,32(a4)
 c000954:	0525                	addi	a0,a0,9
 c000956:	d788                	sw	a0,40(a5)
 c000958:	c7b0                	sw	a2,72(a5)
 c00095a:	01172823          	sw	a7,16(a4)
 c00095e:	20968693          	addi	a3,a3,521
 c000962:	c374                	sw	a3,68(a4)
 c000964:	c435                	beqz	s0,c0009d0 <sys_pll_nd+0x1ac>
 c000966:	10958613          	addi	a2,a1,265
 c00096a:	d3f0                	sw	a2,100(a5)
 c00096c:	00060637          	lui	a2,0x60
 c000970:	0717a623          	sw	a7,108(a5)
 c000974:	30960613          	addi	a2,a2,777 # 60309 <__BSS_SIZE__+0x5b299>
 c000978:	cbb0                	sw	a2,80(a5)
 c00097a:	cfb4                	sw	a3,88(a5)
 c00097c:	05a5                	addi	a1,a1,9
 c00097e:	c32c                	sw	a1,64(a4)
 c000980:	000507b7          	lui	a5,0x50
 c000984:	03002437          	lui	s0,0x3002
 c000988:	07a5                	addi	a5,a5,9
 c00098a:	0af42c23          	sw	a5,184(s0) # 30020b8 <__BSS_SIZE__+0x2ffd048>
 c00098e:	12f42623          	sw	a5,300(s0)
 c000992:	030037b7          	lui	a5,0x3003
 c000996:	88078793          	addi	a5,a5,-1920 # 3002880 <__BSS_SIZE__+0x2ffd810>
 c00099a:	5398                	lw	a4,32(a5)
 c00099c:	0c800513          	li	a0,200
 c0009a0:	9b6d                	andi	a4,a4,-5
 c0009a2:	d398                	sw	a4,32(a5)
 c0009a4:	57d8                	lw	a4,44(a5)
 c0009a6:	9b65                	andi	a4,a4,-7
 c0009a8:	d7d8                	sw	a4,44(a5)
 c0009aa:	fd0ff0ef          	jal	ra,c00017a <udelay>
 c0009ae:	000807b7          	lui	a5,0x80
 c0009b2:	10078793          	addi	a5,a5,256 # 80100 <__BSS_SIZE__+0x7b090>
 c0009b6:	8cfd                	and	s1,s1,a5
 c0009b8:	d804                	sw	s1,48(s0)
 c0009ba:	02042a23          	sw	zero,52(s0)
 c0009be:	7442                	ld	s0,48(sp)
 c0009c0:	70e2                	ld	ra,56(sp)
 c0009c2:	74a2                	ld	s1,40(sp)
 c0009c4:	00007517          	auipc	a0,0x7
 c0009c8:	b8c50513          	addi	a0,a0,-1140 # c007550 <version_string+0xf8>
 c0009cc:	6121                	addi	sp,sp,64
 c0009ce:	b295                	j	c000332 <tf_printf>
 c0009d0:	d3f4                	sw	a3,100(a5)
 c0009d2:	000606b7          	lui	a3,0x60
 c0009d6:	d7f0                	sw	a2,108(a5)
 c0009d8:	20968693          	addi	a3,a3,521 # 60209 <__BSS_SIZE__+0x5b199>
 c0009dc:	cbb4                	sw	a3,80(a5)
 c0009de:	cfb0                	sw	a2,88(a5)
 c0009e0:	c330                	sw	a2,64(a4)
 c0009e2:	bf79                	j	c000980 <sys_pll_nd+0x15c>

000000000c0009e4 <sys_pll_init>:
 c0009e4:	4785                	li	a5,1
 c0009e6:	00f50763          	beq	a0,a5,c0009f4 <sys_pll_init+0x10>
 c0009ea:	4789                	li	a5,2
 c0009ec:	00f51563          	bne	a0,a5,c0009f6 <sys_pll_init+0x12>
 c0009f0:	4505                	li	a0,1
 c0009f2:	bd0d                	j	c000824 <sys_pll_nd>
 c0009f4:	b145                	j	c000694 <sys_pll_od>
 c0009f6:	4501                	li	a0,0
 c0009f8:	bfed                	j	c0009f2 <sys_pll_init+0xe>

000000000c0009fa <switch_rtc_mode_1st_stage>:
 c0009fa:	05025737          	lui	a4,0x5025
 c0009fe:	471c                	lw	a5,8(a4)
 c000a00:	28a7b78b          	extu	a5,a5,10,10
 c000a04:	c791                	beqz	a5,c000a10 <switch_rtc_mode_1st_stage+0x16>
 c000a06:	00007517          	auipc	a0,0x7
 c000a0a:	b5a50513          	addi	a0,a0,-1190 # c007560 <version_string+0x108>
 c000a0e:	b215                	j	c000332 <tf_printf>
 c000a10:	1141                	addi	sp,sp,-16
 c000a12:	67ad                	lui	a5,0xb
 c000a14:	e406                	sd	ra,8(sp)
 c000a16:	e022                	sd	s0,0(sp)
 c000a18:	b1878793          	addi	a5,a5,-1256 # ab18 <__BSS_SIZE__+0x5aa8>
 c000a1c:	c35c                	sw	a5,4(a4)
 c000a1e:	471c                	lw	a5,8(a4)
 c000a20:	f7fff6b7          	lui	a3,0xf7fff
 c000a24:	7ff68693          	addi	a3,a3,2047 # fffffffff7fff7ff <__BL2_END__+0xffffffffebff058f>
 c000a28:	8ff5                	and	a5,a5,a3
 c000a2a:	080006b7          	lui	a3,0x8000
 c000a2e:	8fd5                	or	a5,a5,a3
 c000a30:	c71c                	sw	a5,8(a4)
 c000a32:	475c                	lw	a5,12(a4)
 c000a34:	050256b7          	lui	a3,0x5025
 c000a38:	02000737          	lui	a4,0x2000
 c000a3c:	8ff9                	and	a5,a5,a4
 c000a3e:	e3a1                	bnez	a5,c000a7e <switch_rtc_mode_1st_stage+0x84>
 c000a40:	05025437          	lui	s0,0x5025
 c000a44:	441c                	lw	a5,8(s0)
 c000a46:	04000737          	lui	a4,0x4000
 c000a4a:	40070713          	addi	a4,a4,1024 # 4000400 <__BSS_SIZE__+0x3ffb390>
 c000a4e:	8fd9                	or	a5,a5,a4
 c000a50:	c41c                	sw	a5,8(s0)
 c000a52:	4705                	li	a4,1
 c000a54:	050267b7          	lui	a5,0x5026
 c000a58:	48e7a623          	sw	a4,1164(a5) # 502648c <p_rom_api_cryptodma_aes_decrypt+0xc0e38c>
 c000a5c:	4807a623          	sw	zero,1164(a5)
 c000a60:	0c800513          	li	a0,200
 c000a64:	f16ff0ef          	jal	ra,c00017a <udelay>
 c000a68:	441c                	lw	a5,8(s0)
 c000a6a:	0c001737          	lui	a4,0xc001
 c000a6e:	80070713          	addi	a4,a4,-2048 # c000800 <sys_pll_od+0x16c>
 c000a72:	8fd9                	or	a5,a5,a4
 c000a74:	60a2                	ld	ra,8(sp)
 c000a76:	c41c                	sw	a5,8(s0)
 c000a78:	6402                	ld	s0,0(sp)
 c000a7a:	0141                	addi	sp,sp,16
 c000a7c:	8082                	ret
 c000a7e:	46dc                	lw	a5,12(a3)
 c000a80:	bf75                	j	c000a3c <switch_rtc_mode_1st_stage+0x42>

000000000c000a82 <switch_rtc_mode_2nd_stage>:
 c000a82:	1141                	addi	sp,sp,-16
 c000a84:	050257b7          	lui	a5,0x5025
 c000a88:	e022                	sd	s0,0(sp)
 c000a8a:	e406                	sd	ra,8(sp)
 c000a8c:	47c0                	lw	s0,12(a5)
 c000a8e:	347040ef          	jal	ra,c0055d4 <get_pkg>
 c000a92:	4785                	li	a5,1
 c000a94:	00f50963          	beq	a0,a5,c000aa6 <switch_rtc_mode_2nd_stage+0x24>
 c000a98:	6594340b          	extu	s0,s0,25,25
 c000a9c:	00007517          	auipc	a0,0x7
 c000aa0:	afc50513          	addi	a0,a0,-1284 # c007598 <version_string+0x140>
 c000aa4:	e805                	bnez	s0,c000ad4 <switch_rtc_mode_2nd_stage+0x52>
 c000aa6:	050256b7          	lui	a3,0x5025
 c000aaa:	469c                	lw	a5,8(a3)
 c000aac:	f4000737          	lui	a4,0xf4000
 c000ab0:	bff70713          	addi	a4,a4,-1025 # fffffffff3fffbff <__BL2_END__+0xffffffffe7ff098f>
 c000ab4:	8ff9                	and	a5,a5,a4
 c000ab6:	0c000737          	lui	a4,0xc000
 c000aba:	8fd9                	or	a5,a5,a4
 c000abc:	c69c                	sw	a5,8(a3)
 c000abe:	4705                	li	a4,1
 c000ac0:	050267b7          	lui	a5,0x5026
 c000ac4:	48e7a623          	sw	a4,1164(a5) # 502648c <p_rom_api_cryptodma_aes_decrypt+0xc0e38c>
 c000ac8:	4807a623          	sw	zero,1164(a5)
 c000acc:	00007517          	auipc	a0,0x7
 c000ad0:	ab450513          	addi	a0,a0,-1356 # c007580 <version_string+0x128>
 c000ad4:	6402                	ld	s0,0(sp)
 c000ad6:	60a2                	ld	ra,8(sp)
 c000ad8:	0141                	addi	sp,sp,16
 c000ada:	859ff06f          	j	c000332 <tf_printf>

000000000c000ade <set_rtc_en_registers>:
 c000ade:	1141                	addi	sp,sp,-16
 c000ae0:	e022                	sd	s0,0(sp)
 c000ae2:	05026437          	lui	s0,0x5026
 c000ae6:	0f842583          	lw	a1,248(s0) # 50260f8 <p_rom_api_cryptodma_aes_decrypt+0xc0dff8>
 c000aea:	00007517          	auipc	a0,0x7
 c000aee:	ace50513          	addi	a0,a0,-1330 # c0075b8 <version_string+0x160>
 c000af2:	e406                	sd	ra,8(sp)
 c000af4:	83fff0ef          	jal	ra,c000332 <tf_printf>
 c000af8:	0fc42583          	lw	a1,252(s0)
 c000afc:	00007517          	auipc	a0,0x7
 c000b00:	ad450513          	addi	a0,a0,-1324 # c0075d0 <version_string+0x178>
 c000b04:	82fff0ef          	jal	ra,c000332 <tf_printf>
 c000b08:	4785                	li	a5,1
 c000b0a:	0cf42023          	sw	a5,192(s0)
 c000b0e:	05026737          	lui	a4,0x5026
 c000b12:	4685                	li	a3,1
 c000b14:	0c072783          	lw	a5,192(a4) # 50260c0 <p_rom_api_cryptodma_aes_decrypt+0xc0dfc0>
 c000b18:	fed79ee3          	bne	a5,a3,c000b14 <set_rtc_en_registers+0x36>
 c000b1c:	0cd72623          	sw	a3,204(a4)
 c000b20:	05026737          	lui	a4,0x5026
 c000b24:	4685                	li	a3,1
 c000b26:	0cc72783          	lw	a5,204(a4) # 50260cc <p_rom_api_cryptodma_aes_decrypt+0xc0dfcc>
 c000b2a:	fed79ee3          	bne	a5,a3,c000b26 <set_rtc_en_registers+0x48>
 c000b2e:	0cd72423          	sw	a3,200(a4)
 c000b32:	05026737          	lui	a4,0x5026
 c000b36:	4685                	li	a3,1
 c000b38:	0c872783          	lw	a5,200(a4) # 50260c8 <p_rom_api_cryptodma_aes_decrypt+0xc0dfc8>
 c000b3c:	fed79ee3          	bne	a5,a3,c000b38 <set_rtc_en_registers+0x5a>
 c000b40:	0ed72023          	sw	a3,224(a4)
 c000b44:	050266b7          	lui	a3,0x5026
 c000b48:	4705                	li	a4,1
 c000b4a:	0e06a783          	lw	a5,224(a3) # 50260e0 <p_rom_api_cryptodma_aes_decrypt+0xc0dfe0>
 c000b4e:	fee79ee3          	bne	a5,a4,c000b4a <set_rtc_en_registers+0x6c>
 c000b52:	05025737          	lui	a4,0x5025
 c000b56:	08070613          	addi	a2,a4,128 # 5025080 <p_rom_api_cryptodma_aes_decrypt+0xc0cf80>
 c000b5a:	565c                	lw	a5,44(a2)
 c000b5c:	60a2                	ld	ra,8(sp)
 c000b5e:	6402                	ld	s0,0(sp)
 c000b60:	0017e793          	ori	a5,a5,1
 c000b64:	d65c                	sw	a5,44(a2)
 c000b66:	67ad                	lui	a5,0xb
 c000b68:	b1878793          	addi	a5,a5,-1256 # ab18 <__BSS_SIZE__+0x5aa8>
 c000b6c:	c35c                	sw	a5,4(a4)
 c000b6e:	471c                	lw	a5,8(a4)
 c000b70:	7645                	lui	a2,0xffff1
 c000b72:	84060613          	addi	a2,a2,-1984 # ffffffffffff0840 <__BL2_END__+0xfffffffff3fe15d0>
 c000b76:	8fd1                	or	a5,a5,a2
 c000b78:	c71c                	sw	a5,8(a4)
 c000b7a:	0d06a783          	lw	a5,208(a3)
 c000b7e:	9bed                	andi	a5,a5,-5
 c000b80:	0cf6a823          	sw	a5,208(a3)
 c000b84:	0141                	addi	sp,sp,16
 c000b86:	8082                	ret

000000000c000b88 <efuse_wait_idle>:
 c000b88:	6705                	lui	a4,0x1
 c000b8a:	0705                	addi	a4,a4,1
 c000b8c:	030506b7          	lui	a3,0x3050
 c000b90:	4a9c                	lw	a5,16(a3)
 c000b92:	377d                	addiw	a4,a4,-1
 c000b94:	ef09                	bnez	a4,c000bae <efuse_wait_idle+0x26>
 c000b96:	1141                	addi	sp,sp,-16
 c000b98:	00007517          	auipc	a0,0x7
 c000b9c:	a8850513          	addi	a0,a0,-1400 # c007620 <version_string+0x1c8>
 c000ba0:	e406                	sd	ra,8(sp)
 c000ba2:	f90ff0ef          	jal	ra,c000332 <tf_printf>
 c000ba6:	60a2                	ld	ra,8(sp)
 c000ba8:	557d                	li	a0,-1
 c000baa:	0141                	addi	sp,sp,16
 c000bac:	8082                	ret
 c000bae:	8b85                	andi	a5,a5,1
 c000bb0:	f3e5                	bnez	a5,c000b90 <efuse_wait_idle+0x8>
 c000bb2:	4501                	li	a0,0
 c000bb4:	8082                	ret

000000000c000bb6 <efuse_power_on>:
 c000bb6:	1141                	addi	sp,sp,-16
 c000bb8:	e406                	sd	ra,8(sp)
 c000bba:	fcfff0ef          	jal	ra,c000b88 <efuse_wait_idle>
 c000bbe:	e901                	bnez	a0,c000bce <efuse_power_on+0x18>
 c000bc0:	030507b7          	lui	a5,0x3050
 c000bc4:	4741                	li	a4,16
 c000bc6:	c398                	sw	a4,0(a5)
 c000bc8:	60a2                	ld	ra,8(sp)
 c000bca:	0141                	addi	sp,sp,16
 c000bcc:	8082                	ret
 c000bce:	557d                	li	a0,-1
 c000bd0:	bfe5                	j	c000bc8 <efuse_power_on+0x12>

000000000c000bd2 <efuse_program_bit>:
 c000bd2:	0015151b          	slliw	a0,a0,0x1
 c000bd6:	07e57513          	andi	a0,a0,126
 c000bda:	0075959b          	slliw	a1,a1,0x7
 c000bde:	1101                	addi	sp,sp,-32
 c000be0:	8d4d                	or	a0,a0,a1
 c000be2:	e822                	sd	s0,16(sp)
 c000be4:	ec06                	sd	ra,24(sp)
 c000be6:	e426                	sd	s1,8(sp)
 c000be8:	e04a                	sd	s2,0(sp)
 c000bea:	3c05340b          	extu	s0,a0,15,0
 c000bee:	f9bff0ef          	jal	ra,c000b88 <efuse_wait_idle>
 c000bf2:	c901                	beqz	a0,c000c02 <efuse_program_bit+0x30>
 c000bf4:	557d                	li	a0,-1
 c000bf6:	60e2                	ld	ra,24(sp)
 c000bf8:	6442                	ld	s0,16(sp)
 c000bfa:	64a2                	ld	s1,8(sp)
 c000bfc:	6902                	ld	s2,0(sp)
 c000bfe:	6105                	addi	sp,sp,32
 c000c00:	8082                	ret
 c000c02:	2c04378b          	extu	a5,s0,11,0
 c000c06:	03050437          	lui	s0,0x3050
 c000c0a:	c05c                	sw	a5,4(s0)
 c000c0c:	4951                	li	s2,20
 c000c0e:	01242023          	sw	s2,0(s0) # 3050000 <__BSS_SIZE__+0x304af90>
 c000c12:	3c07b48b          	extu	s1,a5,15,0
 c000c16:	f73ff0ef          	jal	ra,c000b88 <efuse_wait_idle>
 c000c1a:	fd69                	bnez	a0,c000bf4 <efuse_program_bit+0x22>
 c000c1c:	0014e493          	ori	s1,s1,1
 c000c20:	c044                	sw	s1,4(s0)
 c000c22:	01242023          	sw	s2,0(s0)
 c000c26:	bfc1                	j	c000bf6 <efuse_program_bit+0x24>

000000000c000c28 <efuse_refresh_shadow>:
 c000c28:	1141                	addi	sp,sp,-16
 c000c2a:	e406                	sd	ra,8(sp)
 c000c2c:	f5dff0ef          	jal	ra,c000b88 <efuse_wait_idle>
 c000c30:	87aa                	mv	a5,a0
 c000c32:	557d                	li	a0,-1
 c000c34:	ef81                	bnez	a5,c000c4c <efuse_refresh_shadow+0x24>
 c000c36:	030507b7          	lui	a5,0x3050
 c000c3a:	03000713          	li	a4,48
 c000c3e:	c398                	sw	a4,0(a5)
 c000c40:	f49ff0ef          	jal	ra,c000b88 <efuse_wait_idle>
 c000c44:	00a03533          	snez	a0,a0
 c000c48:	0005250b          	ext	a0,a0,0,0
 c000c4c:	60a2                	ld	ra,8(sp)
 c000c4e:	0141                	addi	sp,sp,16
 c000c50:	8082                	ret

000000000c000c52 <efuse_power_off>:
 c000c52:	1141                	addi	sp,sp,-16
 c000c54:	e406                	sd	ra,8(sp)
 c000c56:	f33ff0ef          	jal	ra,c000b88 <efuse_wait_idle>
 c000c5a:	e901                	bnez	a0,c000c6a <efuse_power_off+0x18>
 c000c5c:	030507b7          	lui	a5,0x3050
 c000c60:	4761                	li	a4,24
 c000c62:	c398                	sw	a4,0(a5)
 c000c64:	60a2                	ld	ra,8(sp)
 c000c66:	0141                	addi	sp,sp,16
 c000c68:	8082                	ret
 c000c6a:	557d                	li	a0,-1
 c000c6c:	bfe5                	j	c000c64 <efuse_power_off+0x12>

000000000c000c6e <memset>:
 c000c6e:	0ff5f813          	andi	a6,a1,255
 c000c72:	87aa                	mv	a5,a0
 c000c74:	0077f713          	andi	a4,a5,7
 c000c78:	c719                	beqz	a4,c000c86 <memset+0x18>
 c000c7a:	e211                	bnez	a2,c000c7e <memset+0x10>
 c000c7c:	8082                	ret
 c000c7e:	1817d80b          	sbia	a6,(a5),1,0
 c000c82:	167d                	addi	a2,a2,-1
 c000c84:	bfc5                	j	c000c74 <memset+0x6>
 c000c86:	ca05                	beqz	a2,c000cb6 <memset+0x48>
 c000c88:	00007697          	auipc	a3,0x7
 c000c8c:	9b06b683          	ld	a3,-1616(a3) # c007638 <version_string+0x1e0>
 c000c90:	0ff5f593          	andi	a1,a1,255
 c000c94:	489d                	li	a7,7
 c000c96:	02d585b3          	mul	a1,a1,a3
 c000c9a:	4681                	li	a3,0
 c000c9c:	40d60333          	sub	t1,a2,a3
 c000ca0:	0068ec63          	bltu	a7,t1,c000cb8 <memset+0x4a>
 c000ca4:	00365693          	srli	a3,a2,0x3
 c000ca8:	55e1                	li	a1,-8
 c000caa:	20b6960b          	mula	a2,a3,a1
 c000cae:	06d7978b          	addsl	a5,a5,a3,3
 c000cb2:	00e61763          	bne	a2,a4,c000cc0 <memset+0x52>
 c000cb6:	8082                	ret
 c000cb8:	60d7d58b          	srd	a1,a5,a3,0
 c000cbc:	06a1                	addi	a3,a3,8
 c000cbe:	bff9                	j	c000c9c <memset+0x2e>
 c000cc0:	00e7d80b          	srb	a6,a5,a4,0
 c000cc4:	0705                	addi	a4,a4,1
 c000cc6:	b7f5                	j	c000cb2 <memset+0x44>

000000000c000cc8 <memcpy>:
 c000cc8:	00b547b3          	xor	a5,a0,a1
 c000ccc:	8b9d                	andi	a5,a5,7
 c000cce:	e7a9                	bnez	a5,c000d18 <memcpy+0x50>
 c000cd0:	87aa                	mv	a5,a0
 c000cd2:	0077f713          	andi	a4,a5,7
 c000cd6:	cb09                	beqz	a4,c000ce8 <memcpy+0x20>
 c000cd8:	e211                	bnez	a2,c000cdc <memcpy+0x14>
 c000cda:	8082                	ret
 c000cdc:	9815c70b          	lbuia	a4,(a1),1,0
 c000ce0:	167d                	addi	a2,a2,-1
 c000ce2:	1817d70b          	sbia	a4,(a5),1,0
 c000ce6:	b7f5                	j	c000cd2 <memcpy+0xa>
 c000ce8:	469d                	li	a3,7
 c000cea:	e619                	bnez	a2,c000cf8 <memcpy+0x30>
 c000cec:	8082                	ret
 c000cee:	60e5c80b          	lrd	a6,a1,a4,0
 c000cf2:	60e7d80b          	srd	a6,a5,a4,0
 c000cf6:	0721                	addi	a4,a4,8
 c000cf8:	40e60833          	sub	a6,a2,a4
 c000cfc:	ff06e9e3          	bltu	a3,a6,c000cee <memcpy+0x26>
 c000d00:	00365713          	srli	a4,a2,0x3
 c000d04:	56e1                	li	a3,-8
 c000d06:	20d7160b          	mula	a2,a4,a3
 c000d0a:	070e                	slli	a4,a4,0x3
 c000d0c:	97ba                	add	a5,a5,a4
 c000d0e:	95ba                	add	a1,a1,a4
 c000d10:	4701                	li	a4,0
 c000d12:	00e61563          	bne	a2,a4,c000d1c <memcpy+0x54>
 c000d16:	8082                	ret
 c000d18:	87aa                	mv	a5,a0
 c000d1a:	bfdd                	j	c000d10 <memcpy+0x48>
 c000d1c:	80e5c68b          	lrbu	a3,a1,a4,0
 c000d20:	00e7d68b          	srb	a3,a5,a4,0
 c000d24:	0705                	addi	a4,a4,1
 c000d26:	b7f5                	j	c000d12 <memcpy+0x4a>

000000000c000d28 <memmove>:
 c000d28:	40b50733          	sub	a4,a0,a1
 c000d2c:	87aa                	mv	a5,a0
 c000d2e:	00c76363          	bltu	a4,a2,c000d34 <memmove+0xc>
 c000d32:	bf59                	j	c000cc8 <memcpy>
 c000d34:	95b2                	add	a1,a1,a2
 c000d36:	9532                	add	a0,a0,a2
 c000d38:	00f51363          	bne	a0,a5,c000d3e <memmove+0x16>
 c000d3c:	8082                	ret
 c000d3e:	89f5c70b          	lbuib	a4,(a1),-1,0
 c000d42:	09f5570b          	sbib	a4,(a0),-1,0
 c000d46:	bfcd                	j	c000d38 <memmove+0x10>

000000000c000d48 <putchar_l>:
 c000d48:	0e0007b7          	lui	a5,0xe000
 c000d4c:	4794                	lw	a3,8(a5)
 c000d4e:	1141                	addi	sp,sp,-16
 c000d50:	e022                	sd	s0,0(sp)
 c000d52:	e406                	sd	ra,8(sp)
 c000d54:	6709                	lui	a4,0x2
 c000d56:	842a                	mv	s0,a0
 c000d58:	00e6e463          	bltu	a3,a4,c000d60 <putchar_l+0x18>
 c000d5c:	0007a423          	sw	zero,8(a5) # e000008 <__BL2_END__+0x1ff0d98>
 c000d60:	0e0007b7          	lui	a5,0xe000
 c000d64:	4798                	lw	a4,8(a5)
 c000d66:	0017069b          	addiw	a3,a4,1
 c000d6a:	c794                	sw	a3,8(a5)
 c000d6c:	2c0376b7          	lui	a3,0x2c037
 c000d70:	10e6d40b          	surb	s0,a3,a4,0
 c000d74:	4709                	li	a4,2
 c000d76:	00b74d63          	blt	a4,a1,c000d90 <putchar_l+0x48>
 c000d7a:	0007c783          	lbu	a5,0(a5) # e000000 <__BL2_END__+0x1ff0d90>
 c000d7e:	8b91                	andi	a5,a5,4
 c000d80:	eb81                	bnez	a5,c000d90 <putchar_l+0x48>
 c000d82:	0ff47513          	andi	a0,s0,255
 c000d86:	cf8ff0ef          	jal	ra,c00027e <console_putc>
 c000d8a:	00055363          	bgez	a0,c000d90 <putchar_l+0x48>
 c000d8e:	547d                	li	s0,-1
 c000d90:	60a2                	ld	ra,8(sp)
 c000d92:	8522                	mv	a0,s0
 c000d94:	6402                	ld	s0,0(sp)
 c000d96:	0141                	addi	sp,sp,16
 c000d98:	8082                	ret

000000000c000d9a <read_time_ms>:
 c000d9a:	1141                	addi	sp,sp,-16
 c000d9c:	e406                	sd	ra,8(sp)
 c000d9e:	c10ff0ef          	jal	ra,c0001ae <read_count_tick>
 c000da2:	60a2                	ld	ra,8(sp)
 c000da4:	3e75051b          	addiw	a0,a0,999
 c000da8:	3e800793          	li	a5,1000
 c000dac:	02f5553b          	divuw	a0,a0,a5
 c000db0:	0141                	addi	sp,sp,16
 c000db2:	8082                	ret

000000000c000db4 <init_comm_info>:
 c000db4:	8082                	ret

000000000c000db6 <lock_efuse_chipsn>:
 c000db6:	1141                	addi	sp,sp,-16
 c000db8:	030507b7          	lui	a5,0x3050
 c000dbc:	e022                	sd	s0,0(sp)
 c000dbe:	e406                	sd	ra,8(sp)
 c000dc0:	1987a403          	lw	s0,408(a5) # 3050198 <__BSS_SIZE__+0x304b128>
 c000dc4:	df3ff0ef          	jal	ra,c000bb6 <efuse_power_on>
 c000dc8:	c911                	beqz	a0,c000ddc <lock_efuse_chipsn+0x26>
 c000dca:	00007517          	auipc	a0,0x7
 c000dce:	87650513          	addi	a0,a0,-1930 # c007640 <version_string+0x1e8>
 c000dd2:	6402                	ld	s0,0(sp)
 c000dd4:	60a2                	ld	ra,8(sp)
 c000dd6:	0141                	addi	sp,sp,16
 c000dd8:	d5aff06f          	j	c000332 <tf_printf>
 c000ddc:	00847793          	andi	a5,s0,8
 c000de0:	e791                	bnez	a5,c000dec <lock_efuse_chipsn+0x36>
 c000de2:	458d                	li	a1,3
 c000de4:	02600513          	li	a0,38
 c000de8:	debff0ef          	jal	ra,c000bd2 <efuse_program_bit>
 c000dec:	8841                	andi	s0,s0,16
 c000dee:	e411                	bnez	s0,c000dfa <lock_efuse_chipsn+0x44>
 c000df0:	4591                	li	a1,4
 c000df2:	02600513          	li	a0,38
 c000df6:	dddff0ef          	jal	ra,c000bd2 <efuse_program_bit>
 c000dfa:	e2fff0ef          	jal	ra,c000c28 <efuse_refresh_shadow>
 c000dfe:	c511                	beqz	a0,c000e0a <lock_efuse_chipsn+0x54>
 c000e00:	00007517          	auipc	a0,0x7
 c000e04:	85850513          	addi	a0,a0,-1960 # c007658 <version_string+0x200>
 c000e08:	b7e9                	j	c000dd2 <lock_efuse_chipsn+0x1c>
 c000e0a:	030507b7          	lui	a5,0x3050
 c000e0e:	1987a783          	lw	a5,408(a5) # 3050198 <__BSS_SIZE__+0x304b128>
 c000e12:	470d                	li	a4,3
 c000e14:	1037b78b          	extu	a5,a5,4,3
 c000e18:	00e78863          	beq	a5,a4,c000e28 <lock_efuse_chipsn+0x72>
 c000e1c:	00007517          	auipc	a0,0x7
 c000e20:	85c50513          	addi	a0,a0,-1956 # c007678 <version_string+0x220>
 c000e24:	d0eff0ef          	jal	ra,c000332 <tf_printf>
 c000e28:	e2bff0ef          	jal	ra,c000c52 <efuse_power_off>
 c000e2c:	c511                	beqz	a0,c000e38 <lock_efuse_chipsn+0x82>
 c000e2e:	00007517          	auipc	a0,0x7
 c000e32:	86a50513          	addi	a0,a0,-1942 # c007698 <version_string+0x240>
 c000e36:	bf71                	j	c000dd2 <lock_efuse_chipsn+0x1c>
 c000e38:	60a2                	ld	ra,8(sp)
 c000e3a:	6402                	ld	s0,0(sp)
 c000e3c:	0141                	addi	sp,sp,16
 c000e3e:	8082                	ret

000000000c000e40 <load_param2>:
 c000e40:	1101                	addi	sp,sp,-32
 c000e42:	e42a                	sd	a0,8(sp)
 c000e44:	00009617          	auipc	a2,0x9
 c000e48:	3bc60613          	addi	a2,a2,956 # c00a200 <fip_param2>
 c000e4c:	6585                	lui	a1,0x1
 c000e4e:	00007517          	auipc	a0,0x7
 c000e52:	86250513          	addi	a0,a0,-1950 # c0076b0 <version_string+0x258>
 c000e56:	ec06                	sd	ra,24(sp)
 c000e58:	e822                	sd	s0,16(sp)
 c000e5a:	cd8ff0ef          	jal	ra,c000332 <tf_printf>
 c000e5e:	00007797          	auipc	a5,0x7
 c000e62:	1527b783          	ld	a5,338(a5) # c007fb0 <__RO_END__>
 c000e66:	66a2                	ld	a3,8(sp)
 c000e68:	6605                	lui	a2,0x1
 c000e6a:	0e07a583          	lw	a1,224(a5)
 c000e6e:	00009517          	auipc	a0,0x9
 c000e72:	39250513          	addi	a0,a0,914 # c00a200 <fip_param2>
 c000e76:	f8417097          	auipc	ra,0xf8417
 c000e7a:	1ea080e7          	jalr	490(ra) # 4418060 <p_rom_api_load_image>
 c000e7e:	02054463          	bltz	a0,c000ea6 <load_param2+0x66>
 c000e82:	00009417          	auipc	s0,0x9
 c000e86:	37e40413          	addi	s0,s0,894 # c00a200 <fip_param2>
 c000e8a:	00007797          	auipc	a5,0x7
 c000e8e:	bf67b783          	ld	a5,-1034(a5) # c007a80 <version_string+0x628>
 c000e92:	6018                	ld	a4,0(s0)
 c000e94:	00f70d63          	beq	a4,a5,c000eae <load_param2+0x6e>
 c000e98:	00007517          	auipc	a0,0x7
 c000e9c:	83050513          	addi	a0,a0,-2000 # c0076c8 <version_string+0x270>
 c000ea0:	c92ff0ef          	jal	ra,c000332 <tf_printf>
 c000ea4:	557d                	li	a0,-1
 c000ea6:	60e2                	ld	ra,24(sp)
 c000ea8:	6442                	ld	s0,16(sp)
 c000eaa:	6105                	addi	sp,sp,32
 c000eac:	8082                	ret
 c000eae:	6585                	lui	a1,0x1
 c000eb0:	15d1                	addi	a1,a1,-12
 c000eb2:	00009517          	auipc	a0,0x9
 c000eb6:	35a50513          	addi	a0,a0,858 # c00a20c <fip_param2+0xc>
 c000eba:	f8417097          	auipc	ra,0xf8417
 c000ebe:	1e6080e7          	jalr	486(ra) # 44180a0 <p_rom_api_image_crc>
 c000ec2:	4410                	lw	a2,8(s0)
 c000ec4:	0005059b          	sext.w	a1,a0
 c000ec8:	00b60963          	beq	a2,a1,c000eda <load_param2+0x9a>
 c000ecc:	00007517          	auipc	a0,0x7
 c000ed0:	81450513          	addi	a0,a0,-2028 # c0076e0 <version_string+0x288>
 c000ed4:	c5eff0ef          	jal	ra,c000332 <tf_printf>
 c000ed8:	b7f1                	j	c000ea4 <load_param2+0x64>
 c000eda:	00007517          	auipc	a0,0x7
 c000ede:	82650513          	addi	a0,a0,-2010 # c007700 <version_string+0x2a8>
 c000ee2:	c50ff0ef          	jal	ra,c000332 <tf_printf>
 c000ee6:	4501                	li	a0,0
 c000ee8:	bf7d                	j	c000ea6 <load_param2+0x66>

000000000c000eea <load_ddr_param>:
 c000eea:	1101                	addi	sp,sp,-32
 c000eec:	e822                	sd	s0,16(sp)
 c000eee:	00009417          	auipc	s0,0x9
 c000ef2:	31240413          	addi	s0,s0,786 # c00a200 <fip_param2>
 c000ef6:	4c10                	lw	a2,24(s0)
 c000ef8:	484c                	lw	a1,20(s0)
 c000efa:	e42a                	sd	a0,8(sp)
 c000efc:	00007517          	auipc	a0,0x7
 c000f00:	80c50513          	addi	a0,a0,-2036 # c007708 <version_string+0x2b0>
 c000f04:	ec06                	sd	ra,24(sp)
 c000f06:	c2cff0ef          	jal	ra,c000332 <tf_printf>
 c000f0a:	4c18                	lw	a4,24(s0)
 c000f0c:	6791                	lui	a5,0x4
 c000f0e:	66a2                	ld	a3,8(sp)
 c000f10:	00f76363          	bltu	a4,a5,c000f16 <load_ddr_param+0x2c>
 c000f14:	cc1c                	sw	a5,24(s0)
 c000f16:	01846603          	lwu	a2,24(s0)
 c000f1a:	484c                	lw	a1,20(s0)
 c000f1c:	0000a517          	auipc	a0,0xa
 c000f20:	2e450513          	addi	a0,a0,740 # c00b200 <sram_union_buf>
 c000f24:	f8417097          	auipc	ra,0xf8417
 c000f28:	13c080e7          	jalr	316(ra) # 4418060 <p_rom_api_load_image>
 c000f2c:	02054763          	bltz	a0,c000f5a <load_ddr_param+0x70>
 c000f30:	4c0c                	lw	a1,24(s0)
 c000f32:	0000a517          	auipc	a0,0xa
 c000f36:	2ce50513          	addi	a0,a0,718 # c00b200 <sram_union_buf>
 c000f3a:	f8417097          	auipc	ra,0xf8417
 c000f3e:	166080e7          	jalr	358(ra) # 44180a0 <p_rom_api_image_crc>
 c000f42:	4810                	lw	a2,16(s0)
 c000f44:	0005059b          	sext.w	a1,a0
 c000f48:	00c58d63          	beq	a1,a2,c000f62 <load_ddr_param+0x78>
 c000f4c:	00006517          	auipc	a0,0x6
 c000f50:	7d450513          	addi	a0,a0,2004 # c007720 <version_string+0x2c8>
 c000f54:	bdeff0ef          	jal	ra,c000332 <tf_printf>
 c000f58:	557d                	li	a0,-1
 c000f5a:	60e2                	ld	ra,24(sp)
 c000f5c:	6442                	ld	s0,16(sp)
 c000f5e:	6105                	addi	sp,sp,32
 c000f60:	8082                	ret
 c000f62:	00006517          	auipc	a0,0x6
 c000f66:	7e650513          	addi	a0,a0,2022 # c007748 <version_string+0x2f0>
 c000f6a:	bc8ff0ef          	jal	ra,c000332 <tf_printf>
 c000f6e:	4501                	li	a0,0
 c000f70:	b7ed                	j	c000f5a <load_ddr_param+0x70>

000000000c000f72 <load_ddr>:
 c000f72:	7179                	addi	sp,sp,-48
 c000f74:	ec26                	sd	s1,24(sp)
 c000f76:	74cd                	lui	s1,0xffff3
 c000f78:	e84a                	sd	s2,16(sp)
 c000f7a:	e44e                	sd	s3,8(sp)
 c000f7c:	e052                	sd	s4,0(sp)
 c000f7e:	f406                	sd	ra,40(sp)
 c000f80:	f022                	sd	s0,32(sp)
 c000f82:	1604849b          	addiw	s1,s1,352
 c000f86:	4995                	li	s3,5
 c000f88:	4a05                	li	s4,1
 c000f8a:	00006917          	auipc	s2,0x6
 c000f8e:	7c690913          	addi	s2,s2,1990 # c007750 <version_string+0x2f8>
 c000f92:	4401                	li	s0,0
 c000f94:	f8417097          	auipc	ra,0xf8417
 c000f98:	12c080e7          	jalr	300(ra) # 44180c0 <p_rom_api_get_number_of_retries>
 c000f9c:	00a45e63          	bge	s0,a0,c000fb8 <load_ddr+0x46>
 c000fa0:	8522                	mv	a0,s0
 c000fa2:	e9fff0ef          	jal	ra,c000e40 <load_param2>
 c000fa6:	00055463          	bgez	a0,c000fae <load_ddr+0x3c>
 c000faa:	2405                	addiw	s0,s0,1
 c000fac:	b7e5                	j	c000f94 <load_ddr+0x22>
 c000fae:	8522                	mv	a0,s0
 c000fb0:	f3bff0ef          	jal	ra,c000eea <load_ddr_param>
 c000fb4:	fe054be3          	bltz	a0,c000faa <load_ddr+0x38>
 c000fb8:	f8417097          	auipc	ra,0xf8417
 c000fbc:	108080e7          	jalr	264(ra) # 44180c0 <p_rom_api_get_number_of_retries>
 c000fc0:	02a45f63          	bge	s0,a0,c000ffe <load_ddr+0x8c>
 c000fc4:	dd7ff0ef          	jal	ra,c000d9a <read_time_ms>
 c000fc8:	00007417          	auipc	s0,0x7
 c000fcc:	ff040413          	addi	s0,s0,-16 # c007fb8 <time_records>
 c000fd0:	601c                	ld	a5,0(s0)
 c000fd2:	00a79123          	sh	a0,2(a5) # 4002 <__BSS_SIZE__-0x106e>
 c000fd6:	0000a517          	auipc	a0,0xa
 c000fda:	22a50513          	addi	a0,a0,554 # c00b200 <sram_union_buf>
 c000fde:	33c040ef          	jal	ra,c00531a <ddr_init>
 c000fe2:	db9ff0ef          	jal	ra,c000d9a <read_time_ms>
 c000fe6:	601c                	ld	a5,0(s0)
 c000fe8:	70a2                	ld	ra,40(sp)
 c000fea:	7402                	ld	s0,32(sp)
 c000fec:	00a79223          	sh	a0,4(a5)
 c000ff0:	64e2                	ld	s1,24(sp)
 c000ff2:	6942                	ld	s2,16(sp)
 c000ff4:	69a2                	ld	s3,8(sp)
 c000ff6:	6a02                	ld	s4,0(sp)
 c000ff8:	4501                	li	a0,0
 c000ffa:	6145                	addi	sp,sp,48
 c000ffc:	8082                	ret
 c000ffe:	f8417097          	auipc	ra,0xf8417
 c001002:	022080e7          	jalr	34(ra) # 4418020 <p_rom_api_get_boot_src>
 c001006:	9d25                	addw	a0,a0,s1
 c001008:	85a2                	mv	a1,s0
 c00100a:	00a9ef63          	bltu	s3,a0,c001028 <load_ddr+0xb6>
 c00100e:	00aa1533          	sll	a0,s4,a0
 c001012:	02957513          	andi	a0,a0,41
 c001016:	c909                	beqz	a0,c001028 <load_ddr+0xb6>
 c001018:	854a                	mv	a0,s2
 c00101a:	b18ff0ef          	jal	ra,c000332 <tf_printf>
 c00101e:	f8417097          	auipc	ra,0xf8417
 c001022:	062080e7          	jalr	98(ra) # 4418080 <p_rom_api_flash_init>
 c001026:	b7b5                	j	c000f92 <load_ddr+0x20>
 c001028:	00006517          	auipc	a0,0x6
 c00102c:	75050513          	addi	a0,a0,1872 # c007778 <version_string+0x320>
 c001030:	b02ff0ef          	jal	ra,c000332 <tf_printf>
 c001034:	d5aff0ef          	jal	ra,c00058e <panic_handler>

000000000c001038 <load_blcp_2nd>:
 c001038:	7179                	addi	sp,sp,-48
 c00103a:	e44e                	sd	s3,8(sp)
 c00103c:	00007997          	auipc	s3,0x7
 c001040:	f7c98993          	addi	s3,s3,-132 # c007fb8 <time_records>
 c001044:	0009b783          	ld	a5,0(s3)
 c001048:	f022                	sd	s0,32(sp)
 c00104a:	00009417          	auipc	s0,0x9
 c00104e:	1b640413          	addi	s0,s0,438 # c00a200 <fip_param2>
 c001052:	0047d703          	lhu	a4,4(a5)
 c001056:	5414                	lw	a3,40(s0)
 c001058:	5450                	lw	a2,44(s0)
 c00105a:	504c                	lw	a1,36(s0)
 c00105c:	ec26                	sd	s1,24(sp)
 c00105e:	f406                	sd	ra,40(sp)
 c001060:	e84a                	sd	s2,16(sp)
 c001062:	84aa                	mv	s1,a0
 c001064:	00e79323          	sh	a4,6(a5)
 c001068:	00006517          	auipc	a0,0x6
 c00106c:	73850513          	addi	a0,a0,1848 # c0077a0 <version_string+0x348>
 c001070:	ac2ff0ef          	jal	ra,c000332 <tf_printf>
 c001074:	5448                	lw	a0,44(s0)
 c001076:	e909                	bnez	a0,c001088 <load_blcp_2nd+0x50>
 c001078:	00006517          	auipc	a0,0x6
 c00107c:	74050513          	addi	a0,a0,1856 # c0077b8 <version_string+0x360>
 c001080:	ab2ff0ef          	jal	ra,c000332 <tf_printf>
 c001084:	4481                	li	s1,0
 c001086:	a8ad                	j	c001100 <load_blcp_2nd+0xc8>
 c001088:	800006b7          	lui	a3,0x80000
 c00108c:	00a687bb          	addw	a5,a3,a0
 c001090:	20000737          	lui	a4,0x20000
 c001094:	00e7eb63          	bltu	a5,a4,c0010aa <load_blcp_2nd+0x72>
 c001098:	85aa                	mv	a1,a0
 c00109a:	00006517          	auipc	a0,0x6
 c00109e:	73650513          	addi	a0,a0,1846 # c0077d0 <version_string+0x378>
 c0010a2:	a90ff0ef          	jal	ra,c000332 <tf_printf>
 c0010a6:	ce8ff0ef          	jal	ra,c00058e <panic_handler>
 c0010aa:	540c                	lw	a1,40(s0)
 c0010ac:	00b507bb          	addw	a5,a0,a1
 c0010b0:	9fb5                	addw	a5,a5,a3
 c0010b2:	00e7e763          	bltu	a5,a4,c0010c0 <load_blcp_2nd+0x88>
 c0010b6:	00006517          	auipc	a0,0x6
 c0010ba:	74a50513          	addi	a0,a0,1866 # c007800 <version_string+0x3a8>
 c0010be:	b7d5                	j	c0010a2 <load_blcp_2nd+0x6a>
 c0010c0:	7c05b60b          	extu	a2,a1,31,0
 c0010c4:	504c                	lw	a1,36(s0)
 c0010c6:	86a6                	mv	a3,s1
 c0010c8:	7c05350b          	extu	a0,a0,31,0
 c0010cc:	f8417097          	auipc	ra,0xf8417
 c0010d0:	f94080e7          	jalr	-108(ra) # 4418060 <p_rom_api_load_image>
 c0010d4:	84aa                	mv	s1,a0
 c0010d6:	02054563          	bltz	a0,c001100 <load_blcp_2nd+0xc8>
 c0010da:	540c                	lw	a1,40(s0)
 c0010dc:	02c46503          	lwu	a0,44(s0)
 c0010e0:	f8417097          	auipc	ra,0xf8417
 c0010e4:	fc0080e7          	jalr	-64(ra) # 44180a0 <p_rom_api_image_crc>
 c0010e8:	5010                	lw	a2,32(s0)
 c0010ea:	0005059b          	sext.w	a1,a0
 c0010ee:	02b60163          	beq	a2,a1,c001110 <load_blcp_2nd+0xd8>
 c0010f2:	00006517          	auipc	a0,0x6
 c0010f6:	73e50513          	addi	a0,a0,1854 # c007830 <version_string+0x3d8>
 c0010fa:	a38ff0ef          	jal	ra,c000332 <tf_printf>
 c0010fe:	54fd                	li	s1,-1
 c001100:	70a2                	ld	ra,40(sp)
 c001102:	7402                	ld	s0,32(sp)
 c001104:	6942                	ld	s2,16(sp)
 c001106:	69a2                	ld	s3,8(sp)
 c001108:	8526                	mv	a0,s1
 c00110a:	64e2                	ld	s1,24(sp)
 c00110c:	6145                	addi	sp,sp,48
 c00110e:	8082                	ret
 c001110:	00007697          	auipc	a3,0x7
 c001114:	ea06b683          	ld	a3,-352(a3) # c007fb0 <__RO_END__>
 c001118:	02846583          	lwu	a1,40(s0)
 c00111c:	02c46503          	lwu	a0,44(s0)
 c001120:	4601                	li	a2,0
 c001122:	0fc040ef          	jal	ra,c00521e <dec_verify_image>
 c001126:	84aa                	mv	s1,a0
 c001128:	00055a63          	bgez	a0,c00113c <load_blcp_2nd+0x104>
 c00112c:	85aa                	mv	a1,a0
 c00112e:	00006517          	auipc	a0,0x6
 c001132:	72a50513          	addi	a0,a0,1834 # c007858 <version_string+0x400>
 c001136:	9fcff0ef          	jal	ra,c000332 <tf_printf>
 c00113a:	b7d9                	j	c001100 <load_blcp_2nd+0xc8>
 c00113c:	02846583          	lwu	a1,40(s0)
 c001140:	02c46503          	lwu	a0,44(s0)
 c001144:	0e000937          	lui	s2,0xe000
 c001148:	80eff0ef          	jal	ra,c000156 <flush_dcache_range>
 c00114c:	4501                	li	a0,0
 c00114e:	07c92483          	lw	s1,124(s2) # e00007c <__BL2_END__+0x1ff0e0c>
 c001152:	c63ff0ef          	jal	ra,c000db4 <init_comm_info>
 c001156:	c45ff0ef          	jal	ra,c000d9a <read_time_ms>
 c00115a:	0009b783          	ld	a5,0(s3)
 c00115e:	00a79323          	sh	a0,6(a5)
 c001162:	0abc17b7          	lui	a5,0xabc1
 c001166:	def78793          	addi	a5,a5,-529 # abc0def <p_rom_api_cryptodma_aes_decrypt+0x67a8cef>
 c00116a:	00f49a63          	bne	s1,a5,c00117e <load_blcp_2nd+0x146>
 c00116e:	545c                	lw	a5,44(s0)
 c001170:	06f92e23          	sw	a5,124(s2)
 c001174:	00006517          	auipc	a0,0x6
 c001178:	70450513          	addi	a0,a0,1796 # c007878 <version_string+0x420>
 c00117c:	b711                	j	c001080 <load_blcp_2nd+0x48>
 c00117e:	02c46503          	lwu	a0,44(s0)
 c001182:	c3eff0ef          	jal	ra,c0005c0 <reset_c906l>
 c001186:	b7fd                	j	c001174 <load_blcp_2nd+0x13c>

000000000c001188 <load_monitor>:
 c001188:	1101                	addi	sp,sp,-32
 c00118a:	e822                	sd	s0,16(sp)
 c00118c:	00009417          	auipc	s0,0x9
 c001190:	07440413          	addi	s0,s0,116 # c00a200 <fip_param2>
 c001194:	e04a                	sd	s2,0(sp)
 c001196:	5c14                	lw	a3,56(s0)
 c001198:	5c50                	lw	a2,60(s0)
 c00119a:	892e                	mv	s2,a1
 c00119c:	584c                	lw	a1,52(s0)
 c00119e:	e426                	sd	s1,8(sp)
 c0011a0:	84aa                	mv	s1,a0
 c0011a2:	00006517          	auipc	a0,0x6
 c0011a6:	6de50513          	addi	a0,a0,1758 # c007880 <version_string+0x428>
 c0011aa:	ec06                	sd	ra,24(sp)
 c0011ac:	986ff0ef          	jal	ra,c000332 <tf_printf>
 c0011b0:	5c48                	lw	a0,60(s0)
 c0011b2:	e909                	bnez	a0,c0011c4 <load_monitor+0x3c>
 c0011b4:	00006517          	auipc	a0,0x6
 c0011b8:	6e450513          	addi	a0,a0,1764 # c007898 <version_string+0x440>
 c0011bc:	976ff0ef          	jal	ra,c000332 <tf_printf>
 c0011c0:	4481                	li	s1,0
 c0011c2:	a8ad                	j	c00123c <load_monitor+0xb4>
 c0011c4:	800006b7          	lui	a3,0x80000
 c0011c8:	00a687bb          	addw	a5,a3,a0
 c0011cc:	20000737          	lui	a4,0x20000
 c0011d0:	00e7eb63          	bltu	a5,a4,c0011e6 <load_monitor+0x5e>
 c0011d4:	85aa                	mv	a1,a0
 c0011d6:	00006517          	auipc	a0,0x6
 c0011da:	6d250513          	addi	a0,a0,1746 # c0078a8 <version_string+0x450>
 c0011de:	954ff0ef          	jal	ra,c000332 <tf_printf>
 c0011e2:	bacff0ef          	jal	ra,c00058e <panic_handler>
 c0011e6:	5c0c                	lw	a1,56(s0)
 c0011e8:	00b507bb          	addw	a5,a0,a1
 c0011ec:	9fb5                	addw	a5,a5,a3
 c0011ee:	00e7e763          	bltu	a5,a4,c0011fc <load_monitor+0x74>
 c0011f2:	00006517          	auipc	a0,0x6
 c0011f6:	6e650513          	addi	a0,a0,1766 # c0078d8 <version_string+0x480>
 c0011fa:	b7d5                	j	c0011de <load_monitor+0x56>
 c0011fc:	7c05b60b          	extu	a2,a1,31,0
 c001200:	584c                	lw	a1,52(s0)
 c001202:	86a6                	mv	a3,s1
 c001204:	7c05350b          	extu	a0,a0,31,0
 c001208:	f8417097          	auipc	ra,0xf8417
 c00120c:	e58080e7          	jalr	-424(ra) # 4418060 <p_rom_api_load_image>
 c001210:	84aa                	mv	s1,a0
 c001212:	02054563          	bltz	a0,c00123c <load_monitor+0xb4>
 c001216:	5c0c                	lw	a1,56(s0)
 c001218:	03c46503          	lwu	a0,60(s0)
 c00121c:	f8417097          	auipc	ra,0xf8417
 c001220:	e84080e7          	jalr	-380(ra) # 44180a0 <p_rom_api_image_crc>
 c001224:	5810                	lw	a2,48(s0)
 c001226:	0005059b          	sext.w	a1,a0
 c00122a:	02b60063          	beq	a2,a1,c00124a <load_monitor+0xc2>
 c00122e:	00006517          	auipc	a0,0x6
 c001232:	6da50513          	addi	a0,a0,1754 # c007908 <version_string+0x4b0>
 c001236:	8fcff0ef          	jal	ra,c000332 <tf_printf>
 c00123a:	54fd                	li	s1,-1
 c00123c:	60e2                	ld	ra,24(sp)
 c00123e:	6442                	ld	s0,16(sp)
 c001240:	6902                	ld	s2,0(sp)
 c001242:	8526                	mv	a0,s1
 c001244:	64a2                	ld	s1,8(sp)
 c001246:	6105                	addi	sp,sp,32
 c001248:	8082                	ret
 c00124a:	00007697          	auipc	a3,0x7
 c00124e:	d666b683          	ld	a3,-666(a3) # c007fb0 <__RO_END__>
 c001252:	03846583          	lwu	a1,56(s0)
 c001256:	03c46503          	lwu	a0,60(s0)
 c00125a:	4601                	li	a2,0
 c00125c:	7c3030ef          	jal	ra,c00521e <dec_verify_image>
 c001260:	84aa                	mv	s1,a0
 c001262:	00055a63          	bgez	a0,c001276 <load_monitor+0xee>
 c001266:	85aa                	mv	a1,a0
 c001268:	00006517          	auipc	a0,0x6
 c00126c:	6c050513          	addi	a0,a0,1728 # c007928 <version_string+0x4d0>
 c001270:	8c2ff0ef          	jal	ra,c000332 <tf_printf>
 c001274:	b7e1                	j	c00123c <load_monitor+0xb4>
 c001276:	03846583          	lwu	a1,56(s0)
 c00127a:	03c46503          	lwu	a0,60(s0)
 c00127e:	ed9fe0ef          	jal	ra,c000156 <flush_dcache_range>
 c001282:	00006517          	auipc	a0,0x6
 c001286:	6c650513          	addi	a0,a0,1734 # c007948 <version_string+0x4f0>
 c00128a:	8a8ff0ef          	jal	ra,c000332 <tf_printf>
 c00128e:	03c46783          	lwu	a5,60(s0)
 c001292:	00f93023          	sd	a5,0(s2)
 c001296:	b72d                	j	c0011c0 <load_monitor+0x38>

000000000c001298 <load_loader_2nd>:
 c001298:	715d                	addi	sp,sp,-80
 c00129a:	f84a                	sd	s2,48(sp)
 c00129c:	00009917          	auipc	s2,0x9
 c0012a0:	f6490913          	addi	s2,s2,-156 # c00a200 <fip_param2>
 c0012a4:	ec56                	sd	s5,24(sp)
 c0012a6:	8aae                	mv	s5,a1
 c0012a8:	04492583          	lw	a1,68(s2)
 c0012ac:	e85a                	sd	s6,16(sp)
 c0012ae:	8b2a                	mv	s6,a0
 c0012b0:	00006517          	auipc	a0,0x6
 c0012b4:	6a050513          	addi	a0,a0,1696 # c007950 <version_string+0x4f8>
 c0012b8:	e486                	sd	ra,72(sp)
 c0012ba:	e0a2                	sd	s0,64(sp)
 c0012bc:	fc26                	sd	s1,56(sp)
 c0012be:	f44e                	sd	s3,40(sp)
 c0012c0:	f052                	sd	s4,32(sp)
 c0012c2:	870ff0ef          	jal	ra,c000332 <tf_printf>
 c0012c6:	04492583          	lw	a1,68(s2)
 c0012ca:	86da                	mv	a3,s6
 c0012cc:	20000613          	li	a2,512
 c0012d0:	0000a517          	auipc	a0,0xa
 c0012d4:	f3050513          	addi	a0,a0,-208 # c00b200 <sram_union_buf>
 c0012d8:	f8417097          	auipc	ra,0xf8417
 c0012dc:	d88080e7          	jalr	-632(ra) # 4418060 <p_rom_api_load_image>
 c0012e0:	00055e63          	bgez	a0,c0012fc <load_loader_2nd+0x64>
 c0012e4:	597d                	li	s2,-1
 c0012e6:	60a6                	ld	ra,72(sp)
 c0012e8:	6406                	ld	s0,64(sp)
 c0012ea:	74e2                	ld	s1,56(sp)
 c0012ec:	79a2                	ld	s3,40(sp)
 c0012ee:	7a02                	ld	s4,32(sp)
 c0012f0:	6ae2                	ld	s5,24(sp)
 c0012f2:	6b42                	ld	s6,16(sp)
 c0012f4:	854a                	mv	a0,s2
 c0012f6:	7942                	ld	s2,48(sp)
 c0012f8:	6161                	addi	sp,sp,80
 c0012fa:	8082                	ret
 c0012fc:	0000a417          	auipc	s0,0xa
 c001300:	f0440413          	addi	s0,s0,-252 # c00b200 <sram_union_buf>
 c001304:	4458                	lw	a4,12(s0)
 c001306:	6814                	ld	a3,16(s0)
 c001308:	4410                	lw	a2,8(s0)
 c00130a:	1ff7049b          	addiw	s1,a4,511
 c00130e:	404c                	lw	a1,4(s0)
 c001310:	e004f493          	andi	s1,s1,-512
 c001314:	2481                	sext.w	s1,s1
 c001316:	87a6                	mv	a5,s1
 c001318:	00006517          	auipc	a0,0x6
 c00131c:	64850513          	addi	a0,a0,1608 # c007960 <version_string+0x508>
 c001320:	812ff0ef          	jal	ra,c000332 <tf_printf>
 c001324:	4058                	lw	a4,4(s0)
 c001326:	345a37b7          	lui	a5,0x345a3
 c00132a:	34278793          	addi	a5,a5,834 # 345a3342 <__BL2_END__+0x285940d2>
 c00132e:	04f70b63          	beq	a4,a5,c001384 <load_loader_2nd+0xec>
 c001332:	414d37b7          	lui	a5,0x414d3
 c001336:	34278793          	addi	a5,a5,834 # 414d3342 <__BL2_END__+0x354c40d2>
 c00133a:	06f70163          	beq	a4,a5,c00139c <load_loader_2nd+0x104>
 c00133e:	01043983          	ld	s3,16(s0)
 c001342:	4a01                	li	s4,0
 c001344:	04492583          	lw	a1,68(s2)
 c001348:	86da                	mv	a3,s6
 c00134a:	8626                	mv	a2,s1
 c00134c:	854e                	mv	a0,s3
 c00134e:	f8417097          	auipc	ra,0xf8417
 c001352:	d12080e7          	jalr	-750(ra) # 4418060 <p_rom_api_load_image>
 c001356:	f80547e3          	bltz	a0,c0012e4 <load_loader_2nd+0x4c>
 c00135a:	444c                	lw	a1,12(s0)
 c00135c:	00c98913          	addi	s2,s3,12
 c001360:	854a                	mv	a0,s2
 c001362:	35d1                	addiw	a1,a1,-12
 c001364:	f8417097          	auipc	ra,0xf8417
 c001368:	d3c080e7          	jalr	-708(ra) # 44180a0 <p_rom_api_image_crc>
 c00136c:	4410                	lw	a2,8(s0)
 c00136e:	0005059b          	sext.w	a1,a0
 c001372:	02b60763          	beq	a2,a1,c0013a0 <load_loader_2nd+0x108>
 c001376:	00006517          	auipc	a0,0x6
 c00137a:	61a50513          	addi	a0,a0,1562 # c007990 <version_string+0x538>
 c00137e:	fb5fe0ef          	jal	ra,c000332 <tf_printf>
 c001382:	b78d                	j	c0012e4 <load_loader_2nd+0x4c>
 c001384:	4a09                	li	s4,2
 c001386:	85d2                	mv	a1,s4
 c001388:	00006517          	auipc	a0,0x6
 c00138c:	5f850513          	addi	a0,a0,1528 # c007980 <version_string+0x528>
 c001390:	008199b7          	lui	s3,0x819
 c001394:	f9ffe0ef          	jal	ra,c000332 <tf_printf>
 c001398:	09a2                	slli	s3,s3,0x8
 c00139a:	b76d                	j	c001344 <load_loader_2nd+0xac>
 c00139c:	4a05                	li	s4,1
 c00139e:	b7e5                	j	c001386 <load_loader_2nd+0xee>
 c0013a0:	444c                	lw	a1,12(s0)
 c0013a2:	00007697          	auipc	a3,0x7
 c0013a6:	c0e6b683          	ld	a3,-1010(a3) # c007fb0 <__RO_END__>
 c0013aa:	854a                	mv	a0,s2
 c0013ac:	35d1                	addiw	a1,a1,-12
 c0013ae:	4651                	li	a2,20
 c0013b0:	7c05b58b          	extu	a1,a1,31,0
 c0013b4:	66b030ef          	jal	ra,c00521e <dec_verify_image>
 c0013b8:	892a                	mv	s2,a0
 c0013ba:	00055a63          	bgez	a0,c0013ce <load_loader_2nd+0x136>
 c0013be:	85aa                	mv	a1,a0
 c0013c0:	00006517          	auipc	a0,0x6
 c0013c4:	5f850513          	addi	a0,a0,1528 # c0079b8 <version_string+0x560>
 c0013c8:	f6bfe0ef          	jal	ra,c000332 <tf_printf>
 c0013cc:	bf29                	j	c0012e6 <load_loader_2nd+0x4e>
 c0013ce:	9cdff0ef          	jal	ra,c000d9a <read_time_ms>
 c0013d2:	00007917          	auipc	s2,0x7
 c0013d6:	be690913          	addi	s2,s2,-1050 # c007fb8 <time_records>
 c0013da:	00093783          	ld	a5,0(s2)
 c0013de:	00a79423          	sh	a0,8(a5)
 c0013e2:	aa4ff0ef          	jal	ra,c000686 <sys_switch_all_to_pll>
 c0013e6:	9b5ff0ef          	jal	ra,c000d9a <read_time_ms>
 c0013ea:	00093783          	ld	a5,0(s2)
 c0013ee:	00a79523          	sh	a0,10(a5)
 c0013f2:	040a0363          	beqz	s4,c001438 <load_loader_2nd+0x1a0>
 c0013f6:	6804                	ld	s1,16(s0)
 c0013f8:	010007b7          	lui	a5,0x1000
 c0013fc:	02000613          	li	a2,32
 c001400:	85ce                	mv	a1,s3
 c001402:	8526                	mv	a0,s1
 c001404:	e43e                	sd	a5,8(sp)
 c001406:	8c3ff0ef          	jal	ra,c000cc8 <memcpy>
 c00140a:	00c46683          	lwu	a3,12(s0)
 c00140e:	02098613          	addi	a2,s3,32 # 819020 <__BSS_SIZE__+0x813fb0>
 c001412:	002c                	addi	a1,sp,8
 c001414:	02048513          	addi	a0,s1,32 # ffffffffffff3020 <__BL2_END__+0xfffffffff3fe3db0>
 c001418:	8752                	mv	a4,s4
 c00141a:	33c000ef          	jal	ra,c001756 <decompress>
 c00141e:	6622                	ld	a2,8(sp)
 c001420:	85aa                	mv	a1,a0
 c001422:	0006049b          	sext.w	s1,a2
 c001426:	00055963          	bgez	a0,c001438 <load_loader_2nd+0x1a0>
 c00142a:	00006517          	auipc	a0,0x6
 c00142e:	5ae50513          	addi	a0,a0,1454 # c0079d8 <version_string+0x580>
 c001432:	f01fe0ef          	jal	ra,c000332 <tf_printf>
 c001436:	b57d                	j	c0012e4 <load_loader_2nd+0x4c>
 c001438:	6808                	ld	a0,16(s0)
 c00143a:	85a6                	mv	a1,s1
 c00143c:	d1bfe0ef          	jal	ra,c000156 <flush_dcache_range>
 c001440:	95bff0ef          	jal	ra,c000d9a <read_time_ms>
 c001444:	00093783          	ld	a5,0(s2)
 c001448:	4901                	li	s2,0
 c00144a:	00a79623          	sh	a0,12(a5) # 100000c <__BSS_SIZE__+0xffaf9c>
 c00144e:	00006517          	auipc	a0,0x6
 c001452:	5ba50513          	addi	a0,a0,1466 # c007a08 <version_string+0x5b0>
 c001456:	eddfe0ef          	jal	ra,c000332 <tf_printf>
 c00145a:	681c                	ld	a5,16(s0)
 c00145c:	02078793          	addi	a5,a5,32
 c001460:	00fab023          	sd	a5,0(s5)
 c001464:	b549                	j	c0012e6 <load_loader_2nd+0x4e>

000000000c001466 <load_rest>:
 c001466:	7179                	addi	sp,sp,-48
 c001468:	ec26                	sd	s1,24(sp)
 c00146a:	74cd                	lui	s1,0xffff3
 c00146c:	e84a                	sd	s2,16(sp)
 c00146e:	f406                	sd	ra,40(sp)
 c001470:	f022                	sd	s0,32(sp)
 c001472:	e002                	sd	zero,0(sp)
 c001474:	e402                	sd	zero,8(sp)
 c001476:	1604849b          	addiw	s1,s1,352
 c00147a:	d6aff0ef          	jal	ra,c0009e4 <sys_pll_init>
 c00147e:	4915                	li	s2,5
 c001480:	4401                	li	s0,0
 c001482:	f8417097          	auipc	ra,0xf8417
 c001486:	c3e080e7          	jalr	-962(ra) # 44180c0 <p_rom_api_get_number_of_retries>
 c00148a:	02a45563          	bge	s0,a0,c0014b4 <load_rest+0x4e>
 c00148e:	8522                	mv	a0,s0
 c001490:	ba9ff0ef          	jal	ra,c001038 <load_blcp_2nd>
 c001494:	00055463          	bgez	a0,c00149c <load_rest+0x36>
 c001498:	2405                	addiw	s0,s0,1
 c00149a:	b7e5                	j	c001482 <load_rest+0x1c>
 c00149c:	858a                	mv	a1,sp
 c00149e:	8522                	mv	a0,s0
 c0014a0:	ce9ff0ef          	jal	ra,c001188 <load_monitor>
 c0014a4:	fe054ae3          	bltz	a0,c001498 <load_rest+0x32>
 c0014a8:	002c                	addi	a1,sp,8
 c0014aa:	8522                	mv	a0,s0
 c0014ac:	dedff0ef          	jal	ra,c001298 <load_loader_2nd>
 c0014b0:	fe0544e3          	bltz	a0,c001498 <load_rest+0x32>
 c0014b4:	f8417097          	auipc	ra,0xf8417
 c0014b8:	c0c080e7          	jalr	-1012(ra) # 44180c0 <p_rom_api_get_number_of_retries>
 c0014bc:	02a45b63          	bge	s0,a0,c0014f2 <load_rest+0x8c>
 c0014c0:	c8dfe0ef          	jal	ra,c00014c <sync_cache>
 c0014c4:	dd9fe0ef          	jal	ra,c00029c <console_flush>
 c0014c8:	dbaff0ef          	jal	ra,c000a82 <switch_rtc_mode_2nd_stage>
 c0014cc:	6582                	ld	a1,0(sp)
 c0014ce:	c5a5                	beqz	a1,c001536 <load_rest+0xd0>
 c0014d0:	00006517          	auipc	a0,0x6
 c0014d4:	57050513          	addi	a0,a0,1392 # c007a40 <version_string+0x5e8>
 c0014d8:	e5bfe0ef          	jal	ra,c000332 <tf_printf>
 c0014dc:	65a2                	ld	a1,8(sp)
 c0014de:	6502                	ld	a0,0(sp)
 c0014e0:	cddfe0ef          	jal	ra,c0001bc <jump_to_monitor>
 c0014e4:	70a2                	ld	ra,40(sp)
 c0014e6:	7402                	ld	s0,32(sp)
 c0014e8:	64e2                	ld	s1,24(sp)
 c0014ea:	6942                	ld	s2,16(sp)
 c0014ec:	4501                	li	a0,0
 c0014ee:	6145                	addi	sp,sp,48
 c0014f0:	8082                	ret
 c0014f2:	f8417097          	auipc	ra,0xf8417
 c0014f6:	b2e080e7          	jalr	-1234(ra) # 4418020 <p_rom_api_get_boot_src>
 c0014fa:	00a487bb          	addw	a5,s1,a0
 c0014fe:	85a2                	mv	a1,s0
 c001500:	02f96363          	bltu	s2,a5,c001526 <load_rest+0xc0>
 c001504:	4505                	li	a0,1
 c001506:	00f51533          	sll	a0,a0,a5
 c00150a:	02957513          	andi	a0,a0,41
 c00150e:	cd01                	beqz	a0,c001526 <load_rest+0xc0>
 c001510:	00006517          	auipc	a0,0x6
 c001514:	24050513          	addi	a0,a0,576 # c007750 <version_string+0x2f8>
 c001518:	e1bfe0ef          	jal	ra,c000332 <tf_printf>
 c00151c:	f8417097          	auipc	ra,0xf8417
 c001520:	b64080e7          	jalr	-1180(ra) # 4418080 <p_rom_api_flash_init>
 c001524:	bfb1                	j	c001480 <load_rest+0x1a>
 c001526:	00006517          	auipc	a0,0x6
 c00152a:	4fa50513          	addi	a0,a0,1274 # c007a20 <version_string+0x5c8>
 c00152e:	e05fe0ef          	jal	ra,c000332 <tf_printf>
 c001532:	85cff0ef          	jal	ra,c00058e <panic_handler>
 c001536:	65a2                	ld	a1,8(sp)
 c001538:	00006517          	auipc	a0,0x6
 c00153c:	52850513          	addi	a0,a0,1320 # c007a60 <version_string+0x608>
 c001540:	df3fe0ef          	jal	ra,c000332 <tf_printf>
 c001544:	6522                	ld	a0,8(sp)
 c001546:	ceffe0ef          	jal	ra,c000234 <jump_to_loader_2nd>
 c00154a:	bf69                	j	c0014e4 <load_rest+0x7e>

000000000c00154c <SzFree>:
 c00154c:	8082                	ret

000000000c00154e <SzAlloc>:
 c00154e:	0000e797          	auipc	a5,0xe
 c001552:	ce278793          	addi	a5,a5,-798 # c00f230 <comp_alloc_buf>
 c001556:	6388                	ld	a0,0(a5)
 c001558:	00b50733          	add	a4,a0,a1
 c00155c:	e398                	sd	a4,0(a5)
 c00155e:	0000e797          	auipc	a5,0xe
 c001562:	cda7b783          	ld	a5,-806(a5) # c00f238 <comp_alloc_size>
 c001566:	97ba                	add	a5,a5,a4
 c001568:	02f76363          	bltu	a4,a5,c00158e <SzAlloc+0x40>
 c00156c:	1141                	addi	sp,sp,-16
 c00156e:	862e                	mv	a2,a1
 c001570:	00006517          	auipc	a0,0x6
 c001574:	51850513          	addi	a0,a0,1304 # c007a88 <version_string+0x630>
 c001578:	00006597          	auipc	a1,0x6
 c00157c:	67858593          	addi	a1,a1,1656 # c007bf0 <__func__.0>
 c001580:	e406                	sd	ra,8(sp)
 c001582:	db1fe0ef          	jal	ra,c000332 <tf_printf>
 c001586:	60a2                	ld	ra,8(sp)
 c001588:	4501                	li	a0,0
 c00158a:	0141                	addi	sp,sp,16
 c00158c:	8082                	ret
 c00158e:	8082                	ret

000000000c001590 <decompress_lzma>:
 c001590:	711d                	addi	sp,sp,-96
 c001592:	00000797          	auipc	a5,0x0
 c001596:	fbc78793          	addi	a5,a5,-68 # c00154e <SzAlloc>
 c00159a:	f83e                	sd	a5,48(sp)
 c00159c:	00000797          	auipc	a5,0x0
 c0015a0:	fb078793          	addi	a5,a5,-80 # c00154c <SzFree>
 c0015a4:	ec86                	sd	ra,88(sp)
 c0015a6:	e8a2                	sd	s0,80(sp)
 c0015a8:	e4a6                	sd	s1,72(sp)
 c0015aa:	e0ca                	sd	s2,64(sp)
 c0015ac:	ec36                	sd	a3,24(sp)
 c0015ae:	f402                	sd	zero,40(sp)
 c0015b0:	fc3e                	sd	a5,56(sp)
 c0015b2:	d202                	sw	zero,36(sp)
 c0015b4:	e19d                	bnez	a1,c0015da <decompress_lzma+0x4a>
 c0015b6:	00006597          	auipc	a1,0x6
 c0015ba:	64258593          	addi	a1,a1,1602 # c007bf8 <__func__.1>
 c0015be:	00006517          	auipc	a0,0x6
 c0015c2:	4ea50513          	addi	a0,a0,1258 # c007aa8 <version_string+0x650>
 c0015c6:	d6dfe0ef          	jal	ra,c000332 <tf_printf>
 c0015ca:	5429                	li	s0,-22
 c0015cc:	60e6                	ld	ra,88(sp)
 c0015ce:	8522                	mv	a0,s0
 c0015d0:	6446                	ld	s0,80(sp)
 c0015d2:	64a6                	ld	s1,72(sp)
 c0015d4:	6906                	ld	s2,64(sp)
 c0015d6:	6125                	addi	sp,sp,96
 c0015d8:	8082                	ret
 c0015da:	10300793          	li	a5,259
 c0015de:	07de                	slli	a5,a5,0x17
 c0015e0:	842a                	mv	s0,a0
 c0015e2:	0000e717          	auipc	a4,0xe
 c0015e6:	c4f73723          	sd	a5,-946(a4) # c00f230 <comp_alloc_buf>
 c0015ea:	84ae                	mv	s1,a1
 c0015ec:	001007b7          	lui	a5,0x100
 c0015f0:	85aa                	mv	a1,a0
 c0015f2:	00006517          	auipc	a0,0x6
 c0015f6:	4d650513          	addi	a0,a0,1238 # c007ac8 <version_string+0x670>
 c0015fa:	8932                	mv	s2,a2
 c0015fc:	0000e717          	auipc	a4,0xe
 c001600:	c2f73e23          	sd	a5,-964(a4) # c00f238 <comp_alloc_size>
 c001604:	d2ffe0ef          	jal	ra,c000332 <tf_printf>
 c001608:	67e2                	ld	a5,24(sp)
 c00160a:	4611                	li	a2,4
 c00160c:	00590593          	addi	a1,s2,5
 c001610:	17ed                	addi	a5,a5,-5
 c001612:	1008                	addi	a0,sp,32
 c001614:	ec3e                	sd	a5,24(sp)
 c001616:	eb2ff0ef          	jal	ra,c000cc8 <memcpy>
 c00161a:	67e2                	ld	a5,24(sp)
 c00161c:	02016583          	lwu	a1,32(sp)
 c001620:	00006517          	auipc	a0,0x6
 c001624:	4c050513          	addi	a0,a0,1216 # c007ae0 <version_string+0x688>
 c001628:	17e1                	addi	a5,a5,-8
 c00162a:	f42e                	sd	a1,40(sp)
 c00162c:	ec3e                	sd	a5,24(sp)
 c00162e:	d05fe0ef          	jal	ra,c000332 <tf_printf>
 c001632:	181c                	addi	a5,sp,48
 c001634:	e03e                	sd	a5,0(sp)
 c001636:	8522                	mv	a0,s0
 c001638:	02410893          	addi	a7,sp,36
 c00163c:	4805                	li	a6,1
 c00163e:	4795                	li	a5,5
 c001640:	874a                	mv	a4,s2
 c001642:	0834                	addi	a3,sp,24
 c001644:	00d90613          	addi	a2,s2,13
 c001648:	102c                	addi	a1,sp,40
 c00164a:	62d010ef          	jal	ra,c003476 <LzmaDecode>
 c00164e:	842a                	mv	s0,a0
 c001650:	c919                	beqz	a0,c001666 <decompress_lzma+0xd6>
 c001652:	5612                	lw	a2,36(sp)
 c001654:	85aa                	mv	a1,a0
 c001656:	00006517          	auipc	a0,0x6
 c00165a:	4aa50513          	addi	a0,a0,1194 # c007b00 <version_string+0x6a8>
 c00165e:	cd5fe0ef          	jal	ra,c000332 <tf_printf>
 c001662:	5449                	li	s0,-14
 c001664:	b7a5                	j	c0015cc <decompress_lzma+0x3c>
 c001666:	75a2                	ld	a1,40(sp)
 c001668:	00006517          	auipc	a0,0x6
 c00166c:	4c050513          	addi	a0,a0,1216 # c007b28 <version_string+0x6d0>
 c001670:	e08c                	sd	a1,0(s1)
 c001672:	cc1fe0ef          	jal	ra,c000332 <tf_printf>
 c001676:	bf99                	j	c0015cc <decompress_lzma+0x3c>

000000000c001678 <LZ4_malloc>:
 c001678:	85aa                	mv	a1,a0
 c00167a:	4501                	li	a0,0
 c00167c:	bdc9                	j	c00154e <SzAlloc>

000000000c00167e <LZ4_calloc>:
 c00167e:	02b50633          	mul	a2,a0,a1
 c001682:	1101                	addi	sp,sp,-32
 c001684:	e822                	sd	s0,16(sp)
 c001686:	ec06                	sd	ra,24(sp)
 c001688:	8532                	mv	a0,a2
 c00168a:	e432                	sd	a2,8(sp)
 c00168c:	fedff0ef          	jal	ra,c001678 <LZ4_malloc>
 c001690:	842a                	mv	s0,a0
 c001692:	c509                	beqz	a0,c00169c <LZ4_calloc+0x1e>
 c001694:	6622                	ld	a2,8(sp)
 c001696:	4581                	li	a1,0
 c001698:	dd6ff0ef          	jal	ra,c000c6e <memset>
 c00169c:	60e2                	ld	ra,24(sp)
 c00169e:	8522                	mv	a0,s0
 c0016a0:	6442                	ld	s0,16(sp)
 c0016a2:	6105                	addi	sp,sp,32
 c0016a4:	8082                	ret

000000000c0016a6 <LZ4_free>:
 c0016a6:	8082                	ret

000000000c0016a8 <decompress_lz4>:
 c0016a8:	10300793          	li	a5,259
 c0016ac:	715d                	addi	sp,sp,-80
 c0016ae:	07de                	slli	a5,a5,0x17
 c0016b0:	e0a2                	sd	s0,64(sp)
 c0016b2:	f84a                	sd	s2,48(sp)
 c0016b4:	0000e717          	auipc	a4,0xe
 c0016b8:	b6f73e23          	sd	a5,-1156(a4) # c00f230 <comp_alloc_buf>
 c0016bc:	842a                	mv	s0,a0
 c0016be:	001007b7          	lui	a5,0x100
 c0016c2:	892e                	mv	s2,a1
 c0016c4:	85aa                	mv	a1,a0
 c0016c6:	00006517          	auipc	a0,0x6
 c0016ca:	47a50513          	addi	a0,a0,1146 # c007b40 <version_string+0x6e8>
 c0016ce:	e486                	sd	ra,72(sp)
 c0016d0:	e436                	sd	a3,8(sp)
 c0016d2:	0000e717          	auipc	a4,0xe
 c0016d6:	b6f73323          	sd	a5,-1178(a4) # c00f238 <comp_alloc_size>
 c0016da:	fc26                	sd	s1,56(sp)
 c0016dc:	f44e                	sd	s3,40(sp)
 c0016de:	89b2                	mv	s3,a2
 c0016e0:	c53fe0ef          	jal	ra,c000332 <tf_printf>
 c0016e4:	06400593          	li	a1,100
 c0016e8:	0828                	addi	a0,sp,24
 c0016ea:	3b7020ef          	jal	ra,c0042a0 <LZ4F_createDecompressionContext>
 c0016ee:	84aa                	mv	s1,a0
 c0016f0:	1e5020ef          	jal	ra,c0040d4 <LZ4F_isError>
 c0016f4:	2501                	sext.w	a0,a0
 c0016f6:	c105                	beqz	a0,c001716 <decompress_lz4+0x6e>
 c0016f8:	85a6                	mv	a1,s1
 c0016fa:	00006517          	auipc	a0,0x6
 c0016fe:	45e50513          	addi	a0,a0,1118 # c007b58 <version_string+0x700>
 c001702:	c31fe0ef          	jal	ra,c000332 <tf_printf>
 c001706:	557d                	li	a0,-1
 c001708:	60a6                	ld	ra,72(sp)
 c00170a:	6406                	ld	s0,64(sp)
 c00170c:	74e2                	ld	s1,56(sp)
 c00170e:	7942                	ld	s2,48(sp)
 c001710:	79a2                	ld	s3,40(sp)
 c001712:	6161                	addi	sp,sp,80
 c001714:	8082                	ret
 c001716:	6562                	ld	a0,24(sp)
 c001718:	4781                	li	a5,0
 c00171a:	0038                	addi	a4,sp,8
 c00171c:	85a2                	mv	a1,s0
 c00171e:	86ce                	mv	a3,s3
 c001720:	864a                	mv	a2,s2
 c001722:	3af020ef          	jal	ra,c0042d0 <LZ4F_decompress>
 c001726:	6622                	ld	a2,8(sp)
 c001728:	00093583          	ld	a1,0(s2)
 c00172c:	86aa                	mv	a3,a0
 c00172e:	842a                	mv	s0,a0
 c001730:	00006517          	auipc	a0,0x6
 c001734:	44050513          	addi	a0,a0,1088 # c007b70 <version_string+0x718>
 c001738:	bfbfe0ef          	jal	ra,c000332 <tf_printf>
 c00173c:	8526                	mv	a0,s1
 c00173e:	197020ef          	jal	ra,c0040d4 <LZ4F_isError>
 c001742:	0005079b          	sext.w	a5,a0
 c001746:	4501                	li	a0,0
 c001748:	d3e1                	beqz	a5,c001708 <decompress_lz4+0x60>
 c00174a:	85a2                	mv	a1,s0
 c00174c:	00006517          	auipc	a0,0x6
 c001750:	44c50513          	addi	a0,a0,1100 # c007b98 <version_string+0x740>
 c001754:	b77d                	j	c001702 <decompress_lz4+0x5a>

000000000c001756 <decompress>:
 c001756:	7139                	addi	sp,sp,-64
 c001758:	87ba                	mv	a5,a4
 c00175a:	ec4e                	sd	s3,24(sp)
 c00175c:	e852                	sd	s4,16(sp)
 c00175e:	e456                	sd	s5,8(sp)
 c001760:	89b2                	mv	s3,a2
 c001762:	8a36                	mv	s4,a3
 c001764:	8aba                	mv	s5,a4
 c001766:	8736                	mv	a4,a3
 c001768:	86b2                	mv	a3,a2
 c00176a:	6190                	ld	a2,0(a1)
 c00176c:	f426                	sd	s1,40(sp)
 c00176e:	f04a                	sd	s2,32(sp)
 c001770:	84ae                	mv	s1,a1
 c001772:	892a                	mv	s2,a0
 c001774:	85aa                	mv	a1,a0
 c001776:	00006517          	auipc	a0,0x6
 c00177a:	44250513          	addi	a0,a0,1090 # c007bb8 <version_string+0x760>
 c00177e:	fc06                	sd	ra,56(sp)
 c001780:	f822                	sd	s0,48(sp)
 c001782:	bb1fe0ef          	jal	ra,c000332 <tf_printf>
 c001786:	4785                	li	a5,1
 c001788:	02fa8f63          	beq	s5,a5,c0017c6 <decompress+0x70>
 c00178c:	4789                	li	a5,2
 c00178e:	5429                	li	s0,-22
 c001790:	00fa9963          	bne	s5,a5,c0017a2 <decompress+0x4c>
 c001794:	86d2                	mv	a3,s4
 c001796:	864e                	mv	a2,s3
 c001798:	85a6                	mv	a1,s1
 c00179a:	854a                	mv	a0,s2
 c00179c:	f0dff0ef          	jal	ra,c0016a8 <decompress_lz4>
 c0017a0:	842a                	mv	s0,a0
 c0017a2:	608c                	ld	a1,0(s1)
 c0017a4:	8622                	mv	a2,s0
 c0017a6:	00006517          	auipc	a0,0x6
 c0017aa:	43250513          	addi	a0,a0,1074 # c007bd8 <version_string+0x780>
 c0017ae:	b85fe0ef          	jal	ra,c000332 <tf_printf>
 c0017b2:	70e2                	ld	ra,56(sp)
 c0017b4:	8522                	mv	a0,s0
 c0017b6:	7442                	ld	s0,48(sp)
 c0017b8:	74a2                	ld	s1,40(sp)
 c0017ba:	7902                	ld	s2,32(sp)
 c0017bc:	69e2                	ld	s3,24(sp)
 c0017be:	6a42                	ld	s4,16(sp)
 c0017c0:	6aa2                	ld	s5,8(sp)
 c0017c2:	6121                	addi	sp,sp,64
 c0017c4:	8082                	ret
 c0017c6:	86d2                	mv	a3,s4
 c0017c8:	864e                	mv	a2,s3
 c0017ca:	85a6                	mv	a1,s1
 c0017cc:	854a                	mv	a0,s2
 c0017ce:	dc3ff0ef          	jal	ra,c001590 <decompress_lzma>
 c0017d2:	b7f9                	j	c0017a0 <decompress+0x4a>

000000000c0017d4 <LzmaDec_WriteRem>:
 c0017d4:	4d78                	lw	a4,92(a0)
 c0017d6:	11000793          	li	a5,272
 c0017da:	fff7069b          	addiw	a3,a4,-1
 c0017de:	04d7e563          	bltu	a5,a3,c001828 <LzmaDec_WriteRem+0x54>
 c0017e2:	7510                	ld	a2,40(a0)
 c0017e4:	7c07368b          	extu	a3,a4,31,0
 c0017e8:	01853803          	ld	a6,24(a0)
 c0017ec:	8d91                	sub	a1,a1,a2
 c0017ee:	02053e03          	ld	t3,32(a0)
 c0017f2:	04856883          	lwu	a7,72(a0)
 c0017f6:	87ba                	mv	a5,a4
 c0017f8:	00d5f463          	bgeu	a1,a3,c001800 <LzmaDec_WriteRem+0x2c>
 c0017fc:	0005879b          	sext.w	a5,a1
 c001800:	416c                	lw	a1,68(a0)
 c001802:	4134                	lw	a3,64(a0)
 c001804:	e599                	bnez	a1,c001812 <LzmaDec_WriteRem+0x3e>
 c001806:	414c                	lw	a1,4(a0)
 c001808:	40d5833b          	subw	t1,a1,a3
 c00180c:	0067e363          	bltu	a5,t1,c001812 <LzmaDec_WriteRem+0x3e>
 c001810:	c16c                	sw	a1,68(a0)
 c001812:	9ebd                	addw	a3,a3,a5
 c001814:	9f1d                	subw	a4,a4,a5
 c001816:	c134                	sw	a3,64(a0)
 c001818:	cd78                	sw	a4,92(a0)
 c00181a:	86be                	mv	a3,a5
 c00181c:	8732                	mv	a4,a2
 c00181e:	e691                	bnez	a3,c00182a <LzmaDec_WriteRem+0x56>
 c001820:	7c07b78b          	extu	a5,a5,31,0
 c001824:	97b2                	add	a5,a5,a2
 c001826:	f51c                	sd	a5,40(a0)
 c001828:	8082                	ret
 c00182a:	36fd                	addiw	a3,a3,-1
 c00182c:	411705b3          	sub	a1,a4,a7
 c001830:	8372                	mv	t1,t3
 c001832:	01176363          	bltu	a4,a7,c001838 <LzmaDec_WriteRem+0x64>
 c001836:	4301                	li	t1,0
 c001838:	95c2                	add	a1,a1,a6
 c00183a:	8065c58b          	lrbu	a1,a1,t1,0
 c00183e:	00e8558b          	srb	a1,a6,a4,0
 c001842:	0705                	addi	a4,a4,1
 c001844:	bfe9                	j	c00181e <LzmaDec_WriteRem+0x4a>

000000000c001846 <LzmaDec_DecodeReal2>:
 c001846:	7155                	addi	sp,sp,-208
 c001848:	e1a2                	sd	s0,192(sp)
 c00184a:	6405                	lui	s0,0x1
 c00184c:	e586                	sd	ra,200(sp)
 c00184e:	fd26                	sd	s1,184(sp)
 c001850:	f94a                	sd	s2,176(sp)
 c001852:	f54e                	sd	s3,168(sp)
 c001854:	f152                	sd	s4,160(sp)
 c001856:	ed56                	sd	s5,152(sp)
 c001858:	e95a                	sd	s6,144(sp)
 c00185a:	e55e                	sd	s7,136(sp)
 c00185c:	e162                	sd	s8,128(sp)
 c00185e:	fce6                	sd	s9,120(sp)
 c001860:	f8ea                	sd	s10,112(sp)
 c001862:	f4ee                	sd	s11,104(sp)
 c001864:	e82e                	sd	a1,16(sp)
 c001866:	f832                	sd	a2,48(sp)
 c001868:	8004041b          	addiw	s0,s0,-2048
 c00186c:	417c                	lw	a5,68(a0)
 c00186e:	04052e03          	lw	t3,64(a0)
 c001872:	02853803          	ld	a6,40(a0)
 c001876:	ec3e                	sd	a5,24(sp)
 c001878:	eba1                	bnez	a5,c0018c8 <LzmaDec_DecodeReal2+0x82>
 c00187a:	415c                	lw	a5,4(a0)
 c00187c:	6742                	ld	a4,16(sp)
 c00187e:	66c2                	ld	a3,16(sp)
 c001880:	41c787bb          	subw	a5,a5,t3
 c001884:	7c07b78b          	extu	a5,a5,31,0
 c001888:	41070733          	sub	a4,a4,a6
 c00188c:	e436                	sd	a3,8(sp)
 c00188e:	00e7f463          	bgeu	a5,a4,c001896 <LzmaDec_DecodeReal2+0x50>
 c001892:	97c2                	add	a5,a5,a6
 c001894:	e43e                	sd	a5,8(sp)
 c001896:	020e1b63          	bnez	t3,c0018cc <LzmaDec_DecodeReal2+0x86>
 c00189a:	5d58                	lw	a4,60(a0)
 c00189c:	c00007b7          	lui	a5,0xc0000
 c0018a0:	bff78793          	addi	a5,a5,-1025 # ffffffffbffffbff <__BL2_END__+0xffffffffb3ff098f>
 c0018a4:	02e7f463          	bgeu	a5,a4,c0018cc <LzmaDec_DecodeReal2+0x86>
 c0018a8:	4505                	li	a0,1
 c0018aa:	60ae                	ld	ra,200(sp)
 c0018ac:	640e                	ld	s0,192(sp)
 c0018ae:	74ea                	ld	s1,184(sp)
 c0018b0:	794a                	ld	s2,176(sp)
 c0018b2:	79aa                	ld	s3,168(sp)
 c0018b4:	7a0a                	ld	s4,160(sp)
 c0018b6:	6aea                	ld	s5,152(sp)
 c0018b8:	6b4a                	ld	s6,144(sp)
 c0018ba:	6baa                	ld	s7,136(sp)
 c0018bc:	6c0a                	ld	s8,128(sp)
 c0018be:	7ce6                	ld	s9,120(sp)
 c0018c0:	7d46                	ld	s10,112(sp)
 c0018c2:	7da6                	ld	s11,104(sp)
 c0018c4:	6169                	addi	sp,sp,208
 c0018c6:	8082                	ret
 c0018c8:	67c2                	ld	a5,16(sp)
 c0018ca:	e43e                	sd	a5,8(sp)
 c0018cc:	497c                	lw	a5,84(a0)
 c0018ce:	00154703          	lbu	a4,1(a0)
 c0018d2:	690c                	ld	a1,16(a0)
 c0018d4:	f03e                	sd	a5,32(sp)
 c0018d6:	00054783          	lbu	a5,0(a0)
 c0018da:	00254303          	lbu	t1,2(a0)
 c0018de:	74fd                	lui	s1,0xfffff
 c0018e0:	f43e                	sd	a5,40(sp)
 c0018e2:	76a2                	ld	a3,40(sp)
 c0018e4:	10000793          	li	a5,256
 c0018e8:	00e7973b          	sllw	a4,a5,a4
 c0018ec:	02053a83          	ld	s5,32(a0)
 c0018f0:	00d7d7bb          	srlw	a5,a5,a3
 c0018f4:	60048493          	addi	s1,s1,1536 # fffffffffffff600 <__BL2_END__+0xfffffffff3ff0390>
 c0018f8:	56fd                	li	a3,-1
 c0018fa:	40f707bb          	subw	a5,a4,a5
 c0018fe:	006696bb          	sllw	a3,a3,t1
 c001902:	94ae                	add	s1,s1,a1
 c001904:	fc3e                	sd	a5,56(sp)
 c001906:	fff6c693          	not	a3,a3
 c00190a:	e4a6                	sd	s1,72(sp)
 c00190c:	05852883          	lw	a7,88(a0)
 c001910:	a0058493          	addi	s1,a1,-1536
 c001914:	04852f83          	lw	t6,72(a0)
 c001918:	04c52f03          	lw	t5,76(a0)
 c00191c:	05052983          	lw	s3,80(a0)
 c001920:	01853a03          	ld	s4,24(a0)
 c001924:	7918                	ld	a4,48(a0)
 c001926:	5d10                	lw	a2,56(a0)
 c001928:	5d5c                	lw	a5,60(a0)
 c00192a:	2681                	sext.w	a3,a3
 c00192c:	e8a6                	sd	s1,80(sp)
 c00192e:	fffa8493          	addi	s1,s5,-1
 c001932:	e0b6                	sd	a3,64(sp)
 c001934:	4301                	li	t1,0
 c001936:	010006b7          	lui	a3,0x1000
 c00193a:	eca6                	sd	s1,88(sp)
 c00193c:	6486                	ld	s1,64(sp)
 c00193e:	01c4feb3          	and	t4,s1,t3
 c001942:	004e9e9b          	slliw	t4,t4,0x4
 c001946:	011e893b          	addw	s2,t4,a7
 c00194a:	7c09390b          	extu	s2,s2,31,0
 c00194e:	0906                	slli	s2,s2,0x1
 c001950:	e0090b93          	addi	s7,s2,-512
 c001954:	a175cb0b          	lrhu	s6,a1,s7,0
 c001958:	83da                	mv	t2,s6
 c00195a:	00d67b63          	bgeu	a2,a3,c001970 <LzmaDec_DecodeReal2+0x12a>
 c00195e:	9817428b          	lbuia	t0,(a4),1,0
 c001962:	0087979b          	slliw	a5,a5,0x8
 c001966:	0086161b          	slliw	a2,a2,0x8
 c00196a:	00f2e7b3          	or	a5,t0,a5
 c00196e:	2781                	sext.w	a5,a5
 c001970:	00b6529b          	srliw	t0,a2,0xb
 c001974:	027284bb          	mulw	s1,t0,t2
 c001978:	82a6                	mv	t0,s1
 c00197a:	7497f763          	bgeu	a5,s1,c0020c8 <LzmaDec_DecodeReal2+0x882>
 c00197e:	6ee2                	ld	t4,24(sp)
 c001980:	407403bb          	subw	t2,s0,t2
 c001984:	0053d39b          	srliw	t2,t2,0x5
 c001988:	016383bb          	addw	t2,t2,s6
 c00198c:	2175d38b          	srh	t2,a1,s7,0
 c001990:	01ceeeb3          	or	t4,t4,t3
 c001994:	28058613          	addi	a2,a1,640
 c001998:	020e8a63          	beqz	t4,c0019cc <LzmaDec_DecodeReal2+0x186>
 c00199c:	6966                	ld	s2,88(sp)
 c00199e:	fff80393          	addi	t2,a6,-1 # effff <__BSS_SIZE__+0xeaf8f>
 c0019a2:	008e1e9b          	slliw	t4,t3,0x8
 c0019a6:	4109138b          	mveqz	t2,s2,a6
 c0019aa:	807a438b          	lrbu	t2,s4,t2,0
 c0019ae:	01d38ebb          	addw	t4,t2,t4
 c0019b2:	73e2                	ld	t2,56(sp)
 c0019b4:	01d3feb3          	and	t4,t2,t4
 c0019b8:	73a2                	ld	t2,40(sp)
 c0019ba:	007e9ebb          	sllw	t4,t4,t2
 c0019be:	438d                	li	t2,3
 c0019c0:	027e8ebb          	mulw	t4,t4,t2
 c0019c4:	7c0ebe8b          	extu	t4,t4,31,0
 c0019c8:	03d6160b          	addsl	a2,a2,t4,1
 c0019cc:	4e99                	li	t4,6
 c0019ce:	2e05                	addiw	t3,t3,1
 c0019d0:	331ee063          	bltu	t4,a7,c001cf0 <LzmaDec_DecodeReal2+0x4aa>
 c0019d4:	438d                	li	t2,3
 c0019d6:	8ec6                	mv	t4,a7
 c0019d8:	0113f363          	bgeu	t2,a7,c0019de <LzmaDec_DecodeReal2+0x198>
 c0019dc:	4e8d                	li	t4,3
 c0019de:	00265383          	lhu	t2,2(a2) # 1002 <__BSS_SIZE__-0x406e>
 c0019e2:	41d888bb          	subw	a7,a7,t4
 c0019e6:	8e9e                	mv	t4,t2
 c0019e8:	00d4fb63          	bgeu	s1,a3,c0019fe <LzmaDec_DecodeReal2+0x1b8>
 c0019ec:	0082949b          	slliw	s1,t0,0x8
 c0019f0:	9817428b          	lbuia	t0,(a4),1,0
 c0019f4:	0087979b          	slliw	a5,a5,0x8
 c0019f8:	00f2e7b3          	or	a5,t0,a5
 c0019fc:	2781                	sext.w	a5,a5
 c0019fe:	00b4d29b          	srliw	t0,s1,0xb
 c001a02:	03d2893b          	mulw	s2,t0,t4
 c001a06:	2327f663          	bgeu	a5,s2,c001c32 <LzmaDec_DecodeReal2+0x3ec>
 c001a0a:	41d40ebb          	subw	t4,s0,t4
 c001a0e:	005ede9b          	srliw	t4,t4,0x5
 c001a12:	007e83bb          	addw	t2,t4,t2
 c001a16:	3c03b38b          	extu	t2,t2,15,0
 c001a1a:	4e89                	li	t4,2
 c001a1c:	00761123          	sh	t2,2(a2)
 c001a20:	b3d6448b          	lurhu	s1,a2,t4,1
 c001a24:	03d61b8b          	addsl	s7,a2,t4,1
 c001a28:	0004829b          	sext.w	t0,s1
 c001a2c:	00d97b63          	bgeu	s2,a3,c001a42 <LzmaDec_DecodeReal2+0x1fc>
 c001a30:	9817438b          	lbuia	t2,(a4),1,0
 c001a34:	0087979b          	slliw	a5,a5,0x8
 c001a38:	0089191b          	slliw	s2,s2,0x8
 c001a3c:	00f3e7b3          	or	a5,t2,a5
 c001a40:	2781                	sext.w	a5,a5
 c001a42:	00b95b1b          	srliw	s6,s2,0xb
 c001a46:	025b03bb          	mulw	t2,s6,t0
 c001a4a:	001e9c1b          	slliw	s8,t4,0x1
 c001a4e:	0e86                	slli	t4,t4,0x1
 c001a50:	1e77fd63          	bgeu	a5,t2,c001c4a <LzmaDec_DecodeReal2+0x404>
 c001a54:	405402bb          	subw	t0,s0,t0
 c001a58:	0052d29b          	srliw	t0,t0,0x5
 c001a5c:	009284bb          	addw	s1,t0,s1
 c001a60:	3c04b48b          	extu	s1,s1,15,0
 c001a64:	009b9023          	sh	s1,0(s7)
 c001a68:	b3d6490b          	lurhu	s2,a2,t4,1
 c001a6c:	7c0ebc0b          	extu	s8,t4,31,0
 c001a70:	03861c0b          	addsl	s8,a2,s8,1
 c001a74:	0009029b          	sext.w	t0,s2
 c001a78:	00d3fa63          	bgeu	t2,a3,c001a8c <LzmaDec_DecodeReal2+0x246>
 c001a7c:	9817448b          	lbuia	s1,(a4),1,0
 c001a80:	0087979b          	slliw	a5,a5,0x8
 c001a84:	0083939b          	slliw	t2,t2,0x8
 c001a88:	8fc5                	or	a5,a5,s1
 c001a8a:	2781                	sext.w	a5,a5
 c001a8c:	00b3db9b          	srliw	s7,t2,0xb
 c001a90:	025b84bb          	mulw	s1,s7,t0
 c001a94:	001e9b1b          	slliw	s6,t4,0x1
 c001a98:	1c97f663          	bgeu	a5,s1,c001c64 <LzmaDec_DecodeReal2+0x41e>
 c001a9c:	405402bb          	subw	t0,s0,t0
 c001aa0:	0052d29b          	srliw	t0,t0,0x5
 c001aa4:	0122893b          	addw	s2,t0,s2
 c001aa8:	3c09390b          	extu	s2,s2,15,0
 c001aac:	012c1023          	sh	s2,0(s8)
 c001ab0:	b366428b          	lurhu	t0,a2,s6,1
 c001ab4:	7c0b3c0b          	extu	s8,s6,31,0
 c001ab8:	03861c0b          	addsl	s8,a2,s8,1
 c001abc:	00028e9b          	sext.w	t4,t0
 c001ac0:	00d4fb63          	bgeu	s1,a3,c001ad6 <LzmaDec_DecodeReal2+0x290>
 c001ac4:	9817438b          	lbuia	t2,(a4),1,0
 c001ac8:	0087979b          	slliw	a5,a5,0x8
 c001acc:	0084949b          	slliw	s1,s1,0x8
 c001ad0:	00f3e7b3          	or	a5,t2,a5
 c001ad4:	2781                	sext.w	a5,a5
 c001ad6:	00b4db9b          	srliw	s7,s1,0xb
 c001ada:	03db83bb          	mulw	t2,s7,t4
 c001ade:	001b191b          	slliw	s2,s6,0x1
 c001ae2:	1877fc63          	bgeu	a5,t2,c001c7a <LzmaDec_DecodeReal2+0x434>
 c001ae6:	41d40ebb          	subw	t4,s0,t4
 c001aea:	005ede9b          	srliw	t4,t4,0x5
 c001aee:	005e82bb          	addw	t0,t4,t0
 c001af2:	3c02b28b          	extu	t0,t0,15,0
 c001af6:	005c1023          	sh	t0,0(s8)
 c001afa:	b326448b          	lurhu	s1,a2,s2,1
 c001afe:	7c093b8b          	extu	s7,s2,31,0
 c001b02:	03761b8b          	addsl	s7,a2,s7,1
 c001b06:	00048e9b          	sext.w	t4,s1
 c001b0a:	00d3fb63          	bgeu	t2,a3,c001b20 <LzmaDec_DecodeReal2+0x2da>
 c001b0e:	9817428b          	lbuia	t0,(a4),1,0
 c001b12:	0087979b          	slliw	a5,a5,0x8
 c001b16:	0083939b          	slliw	t2,t2,0x8
 c001b1a:	00f2e7b3          	or	a5,t0,a5
 c001b1e:	2781                	sext.w	a5,a5
 c001b20:	00b3db1b          	srliw	s6,t2,0xb
 c001b24:	03db02bb          	mulw	t0,s6,t4
 c001b28:	0019191b          	slliw	s2,s2,0x1
 c001b2c:	1657f363          	bgeu	a5,t0,c001c92 <LzmaDec_DecodeReal2+0x44c>
 c001b30:	41d40ebb          	subw	t4,s0,t4
 c001b34:	005ede9b          	srliw	t4,t4,0x5
 c001b38:	009e84bb          	addw	s1,t4,s1
 c001b3c:	3c04b48b          	extu	s1,s1,15,0
 c001b40:	009b9023          	sh	s1,0(s7)
 c001b44:	b326448b          	lurhu	s1,a2,s2,1
 c001b48:	7c093b8b          	extu	s7,s2,31,0
 c001b4c:	03761b8b          	addsl	s7,a2,s7,1
 c001b50:	00048e9b          	sext.w	t4,s1
 c001b54:	00d2fb63          	bgeu	t0,a3,c001b6a <LzmaDec_DecodeReal2+0x324>
 c001b58:	9817438b          	lbuia	t2,(a4),1,0
 c001b5c:	0087979b          	slliw	a5,a5,0x8
 c001b60:	0082929b          	slliw	t0,t0,0x8
 c001b64:	00f3e7b3          	or	a5,t2,a5
 c001b68:	2781                	sext.w	a5,a5
 c001b6a:	00b2db1b          	srliw	s6,t0,0xb
 c001b6e:	03db03bb          	mulw	t2,s6,t4
 c001b72:	0019191b          	slliw	s2,s2,0x1
 c001b76:	1277fa63          	bgeu	a5,t2,c001caa <LzmaDec_DecodeReal2+0x464>
 c001b7a:	41d40ebb          	subw	t4,s0,t4
 c001b7e:	005ede9b          	srliw	t4,t4,0x5
 c001b82:	009e84bb          	addw	s1,t4,s1
 c001b86:	3c04b48b          	extu	s1,s1,15,0
 c001b8a:	009b9023          	sh	s1,0(s7)
 c001b8e:	b326448b          	lurhu	s1,a2,s2,1
 c001b92:	7c093b8b          	extu	s7,s2,31,0
 c001b96:	03761b8b          	addsl	s7,a2,s7,1
 c001b9a:	00048e9b          	sext.w	t4,s1
 c001b9e:	00d3fb63          	bgeu	t2,a3,c001bb4 <LzmaDec_DecodeReal2+0x36e>
 c001ba2:	9817428b          	lbuia	t0,(a4),1,0
 c001ba6:	0087979b          	slliw	a5,a5,0x8
 c001baa:	0083939b          	slliw	t2,t2,0x8
 c001bae:	00f2e7b3          	or	a5,t0,a5
 c001bb2:	2781                	sext.w	a5,a5
 c001bb4:	00b3db1b          	srliw	s6,t2,0xb
 c001bb8:	03db02bb          	mulw	t0,s6,t4
 c001bbc:	0019191b          	slliw	s2,s2,0x1
 c001bc0:	1057f163          	bgeu	a5,t0,c001cc2 <LzmaDec_DecodeReal2+0x47c>
 c001bc4:	41d40ebb          	subw	t4,s0,t4
 c001bc8:	005ede9b          	srliw	t4,t4,0x5
 c001bcc:	009e84bb          	addw	s1,t4,s1
 c001bd0:	3c04b48b          	extu	s1,s1,15,0
 c001bd4:	009b9023          	sh	s1,0(s7)
 c001bd8:	b3264b8b          	lurhu	s7,a2,s2,1
 c001bdc:	7c093b0b          	extu	s6,s2,31,0
 c001be0:	03661b0b          	addsl	s6,a2,s6,1
 c001be4:	000b8e9b          	sext.w	t4,s7
 c001be8:	00d2fa63          	bgeu	t0,a3,c001bfc <LzmaDec_DecodeReal2+0x3b6>
 c001bec:	9817460b          	lbuia	a2,(a4),1,0
 c001bf0:	0087979b          	slliw	a5,a5,0x8
 c001bf4:	0082929b          	slliw	t0,t0,0x8
 c001bf8:	8fd1                	or	a5,a5,a2
 c001bfa:	2781                	sext.w	a5,a5
 c001bfc:	00b2d39b          	srliw	t2,t0,0xb
 c001c00:	03d3863b          	mulw	a2,t2,t4
 c001c04:	0019149b          	slliw	s1,s2,0x1
 c001c08:	0cc7f963          	bgeu	a5,a2,c001cda <LzmaDec_DecodeReal2+0x494>
 c001c0c:	41d40ebb          	subw	t4,s0,t4
 c001c10:	005ede9b          	srliw	t4,t4,0x5
 c001c14:	017e8ebb          	addw	t4,t4,s7
 c001c18:	01db1023          	sh	t4,0(s6)
 c001c1c:	010a548b          	srb	s1,s4,a6,0
 c001c20:	0805                	addi	a6,a6,1
 c001c22:	64a2                	ld	s1,8(sp)
 c001c24:	64987ee3          	bgeu	a6,s1,c002a80 <LzmaDec_DecodeReal2+0x123a>
 c001c28:	74c2                	ld	s1,48(sp)
 c001c2a:	d09769e3          	bltu	a4,s1,c00193c <LzmaDec_DecodeReal2+0xf6>
 c001c2e:	6530006f          	j	c002a80 <LzmaDec_DecodeReal2+0x123a>
 c001c32:	005ede9b          	srliw	t4,t4,0x5
 c001c36:	41d383bb          	subw	t2,t2,t4
 c001c3a:	412787bb          	subw	a5,a5,s2
 c001c3e:	3c03b38b          	extu	t2,t2,15,0
 c001c42:	4124893b          	subw	s2,s1,s2
 c001c46:	4e8d                	li	t4,3
 c001c48:	bbd1                	j	c001a1c <LzmaDec_DecodeReal2+0x1d6>
 c001c4a:	0052d29b          	srliw	t0,t0,0x5
 c001c4e:	405484bb          	subw	s1,s1,t0
 c001c52:	407787bb          	subw	a5,a5,t2
 c001c56:	3c04b48b          	extu	s1,s1,15,0
 c001c5a:	001c0e9b          	addiw	t4,s8,1
 c001c5e:	407903bb          	subw	t2,s2,t2
 c001c62:	b509                	j	c001a64 <LzmaDec_DecodeReal2+0x21e>
 c001c64:	0052d29b          	srliw	t0,t0,0x5
 c001c68:	4059093b          	subw	s2,s2,t0
 c001c6c:	9f85                	subw	a5,a5,s1
 c001c6e:	3c09390b          	extu	s2,s2,15,0
 c001c72:	2b05                	addiw	s6,s6,1
 c001c74:	409384bb          	subw	s1,t2,s1
 c001c78:	bd15                	j	c001aac <LzmaDec_DecodeReal2+0x266>
 c001c7a:	005ede9b          	srliw	t4,t4,0x5
 c001c7e:	41d282bb          	subw	t0,t0,t4
 c001c82:	407787bb          	subw	a5,a5,t2
 c001c86:	3c02b28b          	extu	t0,t0,15,0
 c001c8a:	2905                	addiw	s2,s2,1
 c001c8c:	407483bb          	subw	t2,s1,t2
 c001c90:	b59d                	j	c001af6 <LzmaDec_DecodeReal2+0x2b0>
 c001c92:	005ede9b          	srliw	t4,t4,0x5
 c001c96:	41d484bb          	subw	s1,s1,t4
 c001c9a:	405787bb          	subw	a5,a5,t0
 c001c9e:	3c04b48b          	extu	s1,s1,15,0
 c001ca2:	2905                	addiw	s2,s2,1
 c001ca4:	405382bb          	subw	t0,t2,t0
 c001ca8:	bd61                	j	c001b40 <LzmaDec_DecodeReal2+0x2fa>
 c001caa:	005ede9b          	srliw	t4,t4,0x5
 c001cae:	41d484bb          	subw	s1,s1,t4
 c001cb2:	407787bb          	subw	a5,a5,t2
 c001cb6:	3c04b48b          	extu	s1,s1,15,0
 c001cba:	2905                	addiw	s2,s2,1
 c001cbc:	407283bb          	subw	t2,t0,t2
 c001cc0:	b5e9                	j	c001b8a <LzmaDec_DecodeReal2+0x344>
 c001cc2:	005ede9b          	srliw	t4,t4,0x5
 c001cc6:	41d484bb          	subw	s1,s1,t4
 c001cca:	405787bb          	subw	a5,a5,t0
 c001cce:	3c04b48b          	extu	s1,s1,15,0
 c001cd2:	2905                	addiw	s2,s2,1
 c001cd4:	405382bb          	subw	t0,t2,t0
 c001cd8:	bdf5                	j	c001bd4 <LzmaDec_DecodeReal2+0x38e>
 c001cda:	005ede9b          	srliw	t4,t4,0x5
 c001cde:	41db8ebb          	subw	t4,s7,t4
 c001ce2:	9f91                	subw	a5,a5,a2
 c001ce4:	01db1023          	sh	t4,0(s6)
 c001ce8:	2485                	addiw	s1,s1,1
 c001cea:	40c2863b          	subw	a2,t0,a2
 c001cee:	b73d                	j	c001c1c <LzmaDec_DecodeReal2+0x3d6>
 c001cf0:	7c0fb90b          	extu	s2,t6,31,0
 c001cf4:	41280eb3          	sub	t4,a6,s2
 c001cf8:	83d6                	mv	t2,s5
 c001cfa:	01286363          	bltu	a6,s2,c001d00 <LzmaDec_DecodeReal2+0x4ba>
 c001cfe:	4381                	li	t2,0
 c001d00:	9ed2                	add	t4,t4,s4
 c001d02:	4925                	li	s2,9
 c001d04:	807ece8b          	lrbu	t4,t4,t2,0
 c001d08:	438d                	li	t2,3
 c001d0a:	01197363          	bgeu	s2,a7,c001d10 <LzmaDec_DecodeReal2+0x4ca>
 c001d0e:	4399                	li	t2,6
 c001d10:	001e9b1b          	slliw	s6,t4,0x1
 c001d14:	100b7b13          	andi	s6,s6,256
 c001d18:	407888bb          	subw	a7,a7,t2
 c001d1c:	101b039b          	addiw	t2,s6,257
 c001d20:	b2764c0b          	lurhu	s8,a2,t2,1
 c001d24:	101b0b93          	addi	s7,s6,257
 c001d28:	03761b8b          	addsl	s7,a2,s7,1
 c001d2c:	000c039b          	sext.w	t2,s8
 c001d30:	00d4fb63          	bgeu	s1,a3,c001d46 <LzmaDec_DecodeReal2+0x500>
 c001d34:	0082949b          	slliw	s1,t0,0x8
 c001d38:	9817428b          	lbuia	t0,(a4),1,0
 c001d3c:	0087979b          	slliw	a5,a5,0x8
 c001d40:	00f2e7b3          	or	a5,t0,a5
 c001d44:	2781                	sext.w	a5,a5
 c001d46:	00b4d29b          	srliw	t0,s1,0xb
 c001d4a:	0272893b          	mulw	s2,t0,t2
 c001d4e:	2b27ff63          	bgeu	a5,s2,c00200c <LzmaDec_DecodeReal2+0x7c6>
 c001d52:	407403bb          	subw	t2,s0,t2
 c001d56:	0053d39b          	srliw	t2,t2,0x5
 c001d5a:	01838c3b          	addw	s8,t2,s8
 c001d5e:	3c0c3c0b          	extu	s8,s8,15,0
 c001d62:	100b4b13          	xori	s6,s6,256
 c001d66:	4289                	li	t0,2
 c001d68:	002e939b          	slliw	t2,t4,0x2
 c001d6c:	007b73b3          	and	t2,s6,t2
 c001d70:	005b04bb          	addw	s1,s6,t0
 c001d74:	018b9023          	sh	s8,0(s7)
 c001d78:	00038c1b          	sext.w	s8,t2
 c001d7c:	007483bb          	addw	t2,s1,t2
 c001d80:	b2764b8b          	lurhu	s7,a2,t2,1
 c001d84:	7c03bd0b          	extu	s10,t2,31,0
 c001d88:	03a61d0b          	addsl	s10,a2,s10,1
 c001d8c:	000b839b          	sext.w	t2,s7
 c001d90:	00d97a63          	bgeu	s2,a3,c001da4 <LzmaDec_DecodeReal2+0x55e>
 c001d94:	9817448b          	lbuia	s1,(a4),1,0
 c001d98:	0087979b          	slliw	a5,a5,0x8
 c001d9c:	0089191b          	slliw	s2,s2,0x8
 c001da0:	8fc5                	or	a5,a5,s1
 c001da2:	2781                	sext.w	a5,a5
 c001da4:	00b95c9b          	srliw	s9,s2,0xb
 c001da8:	027c84bb          	mulw	s1,s9,t2
 c001dac:	00129d9b          	slliw	s11,t0,0x1
 c001db0:	0286                	slli	t0,t0,0x1
 c001db2:	2697f963          	bgeu	a5,s1,c002024 <LzmaDec_DecodeReal2+0x7de>
 c001db6:	407403bb          	subw	t2,s0,t2
 c001dba:	0053d39b          	srliw	t2,t2,0x5
 c001dbe:	01738bbb          	addw	s7,t2,s7
 c001dc2:	3c0bbb8b          	extu	s7,s7,15,0
 c001dc6:	018b4c33          	xor	s8,s6,s8
 c001dca:	003e939b          	slliw	t2,t4,0x3
 c001dce:	007c73b3          	and	t2,s8,t2
 c001dd2:	005c093b          	addw	s2,s8,t0
 c001dd6:	017d1023          	sh	s7,0(s10)
 c001dda:	00038b1b          	sext.w	s6,t2
 c001dde:	007903bb          	addw	t2,s2,t2
 c001de2:	b2764c8b          	lurhu	s9,a2,t2,1
 c001de6:	7c03bd8b          	extu	s11,t2,31,0
 c001dea:	03b61d8b          	addsl	s11,a2,s11,1
 c001dee:	000c839b          	sext.w	t2,s9
 c001df2:	00d4fb63          	bgeu	s1,a3,c001e08 <LzmaDec_DecodeReal2+0x5c2>
 c001df6:	9817490b          	lbuia	s2,(a4),1,0
 c001dfa:	0087979b          	slliw	a5,a5,0x8
 c001dfe:	0084949b          	slliw	s1,s1,0x8
 c001e02:	00f967b3          	or	a5,s2,a5
 c001e06:	2781                	sext.w	a5,a5
 c001e08:	00b4dd1b          	srliw	s10,s1,0xb
 c001e0c:	027d093b          	mulw	s2,s10,t2
 c001e10:	00129b9b          	slliw	s7,t0,0x1
 c001e14:	2327f463          	bgeu	a5,s2,c00203c <LzmaDec_DecodeReal2+0x7f6>
 c001e18:	407403bb          	subw	t2,s0,t2
 c001e1c:	0053d39b          	srliw	t2,t2,0x5
 c001e20:	01938cbb          	addw	s9,t2,s9
 c001e24:	3c0cbc8b          	extu	s9,s9,15,0
 c001e28:	016c4b33          	xor	s6,s8,s6
 c001e2c:	004e929b          	slliw	t0,t4,0x4
 c001e30:	005b72b3          	and	t0,s6,t0
 c001e34:	017b03bb          	addw	t2,s6,s7
 c001e38:	019d9023          	sh	s9,0(s11)
 c001e3c:	00028c1b          	sext.w	s8,t0
 c001e40:	005382bb          	addw	t0,t2,t0
 c001e44:	b256438b          	lurhu	t2,a2,t0,1
 c001e48:	7c02bd0b          	extu	s10,t0,31,0
 c001e4c:	03a61d0b          	addsl	s10,a2,s10,1
 c001e50:	0003829b          	sext.w	t0,t2
 c001e54:	00d97a63          	bgeu	s2,a3,c001e68 <LzmaDec_DecodeReal2+0x622>
 c001e58:	9817448b          	lbuia	s1,(a4),1,0
 c001e5c:	0087979b          	slliw	a5,a5,0x8
 c001e60:	0089191b          	slliw	s2,s2,0x8
 c001e64:	8fc5                	or	a5,a5,s1
 c001e66:	2781                	sext.w	a5,a5
 c001e68:	00b95c9b          	srliw	s9,s2,0xb
 c001e6c:	025c84bb          	mulw	s1,s9,t0
 c001e70:	001b9b9b          	slliw	s7,s7,0x1
 c001e74:	1e97f063          	bgeu	a5,s1,c002054 <LzmaDec_DecodeReal2+0x80e>
 c001e78:	405402bb          	subw	t0,s0,t0
 c001e7c:	0052d29b          	srliw	t0,t0,0x5
 c001e80:	007283bb          	addw	t2,t0,t2
 c001e84:	3c03b38b          	extu	t2,t2,15,0
 c001e88:	018b4c33          	xor	s8,s6,s8
 c001e8c:	005e929b          	slliw	t0,t4,0x5
 c001e90:	007d1023          	sh	t2,0(s10)
 c001e94:	005c72b3          	and	t0,s8,t0
 c001e98:	017c03bb          	addw	t2,s8,s7
 c001e9c:	00028b1b          	sext.w	s6,t0
 c001ea0:	005382bb          	addw	t0,t2,t0
 c001ea4:	b256490b          	lurhu	s2,a2,t0,1
 c001ea8:	7c02bd0b          	extu	s10,t0,31,0
 c001eac:	03a61d0b          	addsl	s10,a2,s10,1
 c001eb0:	0009029b          	sext.w	t0,s2
 c001eb4:	00d4fb63          	bgeu	s1,a3,c001eca <LzmaDec_DecodeReal2+0x684>
 c001eb8:	9817438b          	lbuia	t2,(a4),1,0
 c001ebc:	0087979b          	slliw	a5,a5,0x8
 c001ec0:	0084949b          	slliw	s1,s1,0x8
 c001ec4:	00f3e7b3          	or	a5,t2,a5
 c001ec8:	2781                	sext.w	a5,a5
 c001eca:	00b4dc9b          	srliw	s9,s1,0xb
 c001ece:	025c83bb          	mulw	t2,s9,t0
 c001ed2:	001b9b9b          	slliw	s7,s7,0x1
 c001ed6:	1877fa63          	bgeu	a5,t2,c00206a <LzmaDec_DecodeReal2+0x824>
 c001eda:	405402bb          	subw	t0,s0,t0
 c001ede:	0052d29b          	srliw	t0,t0,0x5
 c001ee2:	0122893b          	addw	s2,t0,s2
 c001ee6:	3c09390b          	extu	s2,s2,15,0
 c001eea:	016c4b33          	xor	s6,s8,s6
 c001eee:	006e929b          	slliw	t0,t4,0x6
 c001ef2:	005b72b3          	and	t0,s6,t0
 c001ef6:	017b04bb          	addw	s1,s6,s7
 c001efa:	012d1023          	sh	s2,0(s10)
 c001efe:	00028c1b          	sext.w	s8,t0
 c001f02:	005482bb          	addw	t0,s1,t0
 c001f06:	b256448b          	lurhu	s1,a2,t0,1
 c001f0a:	7c02bd0b          	extu	s10,t0,31,0
 c001f0e:	03a61d0b          	addsl	s10,a2,s10,1
 c001f12:	0004829b          	sext.w	t0,s1
 c001f16:	00d3fb63          	bgeu	t2,a3,c001f2c <LzmaDec_DecodeReal2+0x6e6>
 c001f1a:	9817490b          	lbuia	s2,(a4),1,0
 c001f1e:	0087979b          	slliw	a5,a5,0x8
 c001f22:	0083939b          	slliw	t2,t2,0x8
 c001f26:	00f967b3          	or	a5,s2,a5
 c001f2a:	2781                	sext.w	a5,a5
 c001f2c:	00b3dc9b          	srliw	s9,t2,0xb
 c001f30:	025c893b          	mulw	s2,s9,t0
 c001f34:	001b9b9b          	slliw	s7,s7,0x1
 c001f38:	1527f563          	bgeu	a5,s2,c002082 <LzmaDec_DecodeReal2+0x83c>
 c001f3c:	405402bb          	subw	t0,s0,t0
 c001f40:	0052d29b          	srliw	t0,t0,0x5
 c001f44:	009284bb          	addw	s1,t0,s1
 c001f48:	3c04b48b          	extu	s1,s1,15,0
 c001f4c:	018b4c33          	xor	s8,s6,s8
 c001f50:	007e929b          	slliw	t0,t4,0x7
 c001f54:	005c72b3          	and	t0,s8,t0
 c001f58:	017c03bb          	addw	t2,s8,s7
 c001f5c:	009d1023          	sh	s1,0(s10)
 c001f60:	0002849b          	sext.w	s1,t0
 c001f64:	005382bb          	addw	t0,t2,t0
 c001f68:	b2564b0b          	lurhu	s6,a2,t0,1
 c001f6c:	7c02bd8b          	extu	s11,t0,31,0
 c001f70:	03b61d8b          	addsl	s11,a2,s11,1
 c001f74:	000b029b          	sext.w	t0,s6
 c001f78:	00d97b63          	bgeu	s2,a3,c001f8e <LzmaDec_DecodeReal2+0x748>
 c001f7c:	9817438b          	lbuia	t2,(a4),1,0
 c001f80:	0087979b          	slliw	a5,a5,0x8
 c001f84:	0089191b          	slliw	s2,s2,0x8
 c001f88:	00f3e7b3          	or	a5,t2,a5
 c001f8c:	2781                	sext.w	a5,a5
 c001f8e:	00b95d1b          	srliw	s10,s2,0xb
 c001f92:	025d03bb          	mulw	t2,s10,t0
 c001f96:	001b9c9b          	slliw	s9,s7,0x1
 c001f9a:	1077f063          	bgeu	a5,t2,c00209a <LzmaDec_DecodeReal2+0x854>
 c001f9e:	405402bb          	subw	t0,s0,t0
 c001fa2:	0052d29b          	srliw	t0,t0,0x5
 c001fa6:	01628b3b          	addw	s6,t0,s6
 c001faa:	3c0b3b0b          	extu	s6,s6,15,0
 c001fae:	009c44b3          	xor	s1,s8,s1
 c001fb2:	008e9e9b          	slliw	t4,t4,0x8
 c001fb6:	01d4feb3          	and	t4,s1,t4
 c001fba:	019484bb          	addw	s1,s1,s9
 c001fbe:	01d48ebb          	addw	t4,s1,t4
 c001fc2:	016d9023          	sh	s6,0(s11)
 c001fc6:	b3d64b0b          	lurhu	s6,a2,t4,1
 c001fca:	7c0eb90b          	extu	s2,t4,31,0
 c001fce:	0326190b          	addsl	s2,a2,s2,1
 c001fd2:	000b0e9b          	sext.w	t4,s6
 c001fd6:	00d3fa63          	bgeu	t2,a3,c001fea <LzmaDec_DecodeReal2+0x7a4>
 c001fda:	9817460b          	lbuia	a2,(a4),1,0
 c001fde:	0087979b          	slliw	a5,a5,0x8
 c001fe2:	0083939b          	slliw	t2,t2,0x8
 c001fe6:	8fd1                	or	a5,a5,a2
 c001fe8:	2781                	sext.w	a5,a5
 c001fea:	00b3d29b          	srliw	t0,t2,0xb
 c001fee:	03d2863b          	mulw	a2,t0,t4
 c001ff2:	001c949b          	slliw	s1,s9,0x1
 c001ff6:	0ac7fe63          	bgeu	a5,a2,c0020b2 <LzmaDec_DecodeReal2+0x86c>
 c001ffa:	41d40ebb          	subw	t4,s0,t4
 c001ffe:	005ede9b          	srliw	t4,t4,0x5
 c002002:	016e8ebb          	addw	t4,t4,s6
 c002006:	01d91023          	sh	t4,0(s2)
 c00200a:	b909                	j	c001c1c <LzmaDec_DecodeReal2+0x3d6>
 c00200c:	0053d39b          	srliw	t2,t2,0x5
 c002010:	407c0c3b          	subw	s8,s8,t2
 c002014:	412787bb          	subw	a5,a5,s2
 c002018:	3c0c3c0b          	extu	s8,s8,15,0
 c00201c:	4124893b          	subw	s2,s1,s2
 c002020:	428d                	li	t0,3
 c002022:	b399                	j	c001d68 <LzmaDec_DecodeReal2+0x522>
 c002024:	0053d39b          	srliw	t2,t2,0x5
 c002028:	407b8bbb          	subw	s7,s7,t2
 c00202c:	9f85                	subw	a5,a5,s1
 c00202e:	3c0bbb8b          	extu	s7,s7,15,0
 c002032:	001d829b          	addiw	t0,s11,1
 c002036:	409904bb          	subw	s1,s2,s1
 c00203a:	bb41                	j	c001dca <LzmaDec_DecodeReal2+0x584>
 c00203c:	0053d39b          	srliw	t2,t2,0x5
 c002040:	407c8cbb          	subw	s9,s9,t2
 c002044:	412787bb          	subw	a5,a5,s2
 c002048:	3c0cbc8b          	extu	s9,s9,15,0
 c00204c:	2b85                	addiw	s7,s7,1
 c00204e:	4124893b          	subw	s2,s1,s2
 c002052:	bbe9                	j	c001e2c <LzmaDec_DecodeReal2+0x5e6>
 c002054:	0052d29b          	srliw	t0,t0,0x5
 c002058:	405383bb          	subw	t2,t2,t0
 c00205c:	9f85                	subw	a5,a5,s1
 c00205e:	3c03b38b          	extu	t2,t2,15,0
 c002062:	2b85                	addiw	s7,s7,1
 c002064:	409904bb          	subw	s1,s2,s1
 c002068:	b515                	j	c001e8c <LzmaDec_DecodeReal2+0x646>
 c00206a:	0052d29b          	srliw	t0,t0,0x5
 c00206e:	4059093b          	subw	s2,s2,t0
 c002072:	407787bb          	subw	a5,a5,t2
 c002076:	3c09390b          	extu	s2,s2,15,0
 c00207a:	2b85                	addiw	s7,s7,1
 c00207c:	407483bb          	subw	t2,s1,t2
 c002080:	b5bd                	j	c001eee <LzmaDec_DecodeReal2+0x6a8>
 c002082:	0052d29b          	srliw	t0,t0,0x5
 c002086:	405484bb          	subw	s1,s1,t0
 c00208a:	412787bb          	subw	a5,a5,s2
 c00208e:	3c04b48b          	extu	s1,s1,15,0
 c002092:	2b85                	addiw	s7,s7,1
 c002094:	4123893b          	subw	s2,t2,s2
 c002098:	bd65                	j	c001f50 <LzmaDec_DecodeReal2+0x70a>
 c00209a:	0052d29b          	srliw	t0,t0,0x5
 c00209e:	405b0b3b          	subw	s6,s6,t0
 c0020a2:	407787bb          	subw	a5,a5,t2
 c0020a6:	3c0b3b0b          	extu	s6,s6,15,0
 c0020aa:	2c85                	addiw	s9,s9,1
 c0020ac:	407903bb          	subw	t2,s2,t2
 c0020b0:	b709                	j	c001fb2 <LzmaDec_DecodeReal2+0x76c>
 c0020b2:	005ede9b          	srliw	t4,t4,0x5
 c0020b6:	41db0ebb          	subw	t4,s6,t4
 c0020ba:	9f91                	subw	a5,a5,a2
 c0020bc:	01d91023          	sh	t4,0(s2)
 c0020c0:	2485                	addiw	s1,s1,1
 c0020c2:	40c3863b          	subw	a2,t2,a2
 c0020c6:	be99                	j	c001c1c <LzmaDec_DecodeReal2+0x3d6>
 c0020c8:	0053d39b          	srliw	t2,t2,0x5
 c0020cc:	407b03bb          	subw	t2,s6,t2
 c0020d0:	2175d38b          	srh	t2,a1,s7,0
 c0020d4:	7c08bb8b          	extu	s7,a7,31,0
 c0020d8:	0bc1                	addi	s7,s7,16
 c0020da:	a375cc0b          	lrhu	s8,a1,s7,1
 c0020de:	409604bb          	subw	s1,a2,s1
 c0020e2:	405787bb          	subw	a5,a5,t0
 c0020e6:	001b9b13          	slli	s6,s7,0x1
 c0020ea:	83e2                	mv	t2,s8
 c0020ec:	00d4fc63          	bgeu	s1,a3,c002104 <LzmaDec_DecodeReal2+0x8be>
 c0020f0:	0087929b          	slliw	t0,a5,0x8
 c0020f4:	9817478b          	lbuia	a5,(a4),1,0
 c0020f8:	0084949b          	slliw	s1,s1,0x8
 c0020fc:	0057e2b3          	or	t0,a5,t0
 c002100:	0002879b          	sext.w	a5,t0
 c002104:	00b4d29b          	srliw	t0,s1,0xb
 c002108:	0272863b          	mulw	a2,t0,t2
 c00210c:	38c7f463          	bgeu	a5,a2,c002494 <LzmaDec_DecodeReal2+0xc4e>
 c002110:	407403bb          	subw	t2,s0,t2
 c002114:	0053d39b          	srliw	t2,t2,0x5
 c002118:	62c6                	ld	t0,80(sp)
 c00211a:	018383bb          	addw	t2,t2,s8
 c00211e:	2375d38b          	srh	t2,a1,s7,1
 c002122:	28b1                	addiw	a7,a7,12
 c002124:	8b7e                	mv	s6,t6
 c002126:	0002d383          	lhu	t2,0(t0)
 c00212a:	8f9e                	mv	t6,t2
 c00212c:	00d67b63          	bgeu	a2,a3,c002142 <LzmaDec_DecodeReal2+0x8fc>
 c002130:	9817430b          	lbuia	t1,(a4),1,0
 c002134:	0087979b          	slliw	a5,a5,0x8
 c002138:	0086161b          	slliw	a2,a2,0x8
 c00213c:	00f367b3          	or	a5,t1,a5
 c002140:	2781                	sext.w	a5,a5
 c002142:	00b6531b          	srliw	t1,a2,0xb
 c002146:	03f304bb          	mulw	s1,t1,t6
 c00214a:	8326                	mv	t1,s1
 c00214c:	5297fe63          	bgeu	a5,s1,c002688 <LzmaDec_DecodeReal2+0xe42>
 c002150:	41f40fbb          	subw	t6,s0,t6
 c002154:	005fdf9b          	srliw	t6,t6,0x5
 c002158:	7c0ebe8b          	extu	t4,t4,31,0
 c00215c:	007f8fbb          	addw	t6,t6,t2
 c002160:	01f29023          	sh	t6,0(t0)
 c002164:	03d2928b          	addsl	t0,t0,t4,1
 c002168:	0022de83          	lhu	t4,2(t0)
 c00216c:	8676                	mv	a2,t4
 c00216e:	00d4fb63          	bgeu	s1,a3,c002184 <LzmaDec_DecodeReal2+0x93e>
 c002172:	9817430b          	lbuia	t1,(a4),1,0
 c002176:	0087979b          	slliw	a5,a5,0x8
 c00217a:	0084949b          	slliw	s1,s1,0x8
 c00217e:	00f367b3          	or	a5,t1,a5
 c002182:	2781                	sext.w	a5,a5
 c002184:	00b4d31b          	srliw	t1,s1,0xb
 c002188:	02c30fbb          	mulw	t6,t1,a2
 c00218c:	4bf7fa63          	bgeu	a5,t6,c002640 <LzmaDec_DecodeReal2+0xdfa>
 c002190:	40c4063b          	subw	a2,s0,a2
 c002194:	0056561b          	srliw	a2,a2,0x5
 c002198:	01d60ebb          	addw	t4,a2,t4
 c00219c:	3c0ebe8b          	extu	t4,t4,15,0
 c0021a0:	4309                	li	t1,2
 c0021a2:	01d29123          	sh	t4,2(t0)
 c0021a6:	b262c38b          	lurhu	t2,t0,t1,1
 c0021aa:	7c03390b          	extu	s2,t1,31,0
 c0021ae:	0003861b          	sext.w	a2,t2
 c0021b2:	00dffb63          	bgeu	t6,a3,c0021c8 <LzmaDec_DecodeReal2+0x982>
 c0021b6:	98174e8b          	lbuia	t4,(a4),1,0
 c0021ba:	0087979b          	slliw	a5,a5,0x8
 c0021be:	008f9f9b          	slliw	t6,t6,0x8
 c0021c2:	00fee7b3          	or	a5,t4,a5
 c0021c6:	2781                	sext.w	a5,a5
 c0021c8:	00bfd49b          	srliw	s1,t6,0xb
 c0021cc:	02c48ebb          	mulw	t4,s1,a2
 c0021d0:	00131b9b          	slliw	s7,t1,0x1
 c0021d4:	0306                	slli	t1,t1,0x1
 c0021d6:	49d7f163          	bgeu	a5,t4,c002658 <LzmaDec_DecodeReal2+0xe12>
 c0021da:	40c4063b          	subw	a2,s0,a2
 c0021de:	0056561b          	srliw	a2,a2,0x5
 c0021e2:	007603bb          	addw	t2,a2,t2
 c0021e6:	3c03b38b          	extu	t2,t2,15,0
 c0021ea:	2322d38b          	srh	t2,t0,s2,1
 c0021ee:	b262c38b          	lurhu	t2,t0,t1,1
 c0021f2:	7c033b8b          	extu	s7,t1,31,0
 c0021f6:	00038f9b          	sext.w	t6,t2
 c0021fa:	00defa63          	bgeu	t4,a3,c00220e <LzmaDec_DecodeReal2+0x9c8>
 c0021fe:	9817460b          	lbuia	a2,(a4),1,0
 c002202:	0087979b          	slliw	a5,a5,0x8
 c002206:	008e9e9b          	slliw	t4,t4,0x8
 c00220a:	8fd1                	or	a5,a5,a2
 c00220c:	2781                	sext.w	a5,a5
 c00220e:	00bed91b          	srliw	s2,t4,0xb
 c002212:	03f9063b          	mulw	a2,s2,t6
 c002216:	0013131b          	slliw	t1,t1,0x1
 c00221a:	44c7fc63          	bgeu	a5,a2,c002672 <LzmaDec_DecodeReal2+0xe2c>
 c00221e:	41f40fbb          	subw	t6,s0,t6
 c002222:	005fdf9b          	srliw	t6,t6,0x5
 c002226:	007f83bb          	addw	t2,t6,t2
 c00222a:	3c03b38b          	extu	t2,t2,15,0
 c00222e:	2372d38b          	srh	t2,t0,s7,1
 c002232:	3361                	addiw	t1,t1,-8
 c002234:	44ad                	li	s1,11
 c002236:	1314f0e3          	bgeu	s1,a7,c002b56 <LzmaDec_DecodeReal2+0x1310>
 c00223a:	448d                	li	s1,3
 c00223c:	8f9a                	mv	t6,t1
 c00223e:	0064f363          	bgeu	s1,t1,c002244 <LzmaDec_DecodeReal2+0x9fe>
 c002242:	4f8d                	li	t6,3
 c002244:	006f9f9b          	slliw	t6,t6,0x6
 c002248:	040f8f9b          	addiw	t6,t6,64
 c00224c:	7c0fbf8b          	extu	t6,t6,31,0
 c002250:	03f59f8b          	addsl	t6,a1,t6,1
 c002254:	002fd383          	lhu	t2,2(t6)
 c002258:	8e9e                	mv	t4,t2
 c00225a:	00d67b63          	bgeu	a2,a3,c002270 <LzmaDec_DecodeReal2+0xa2a>
 c00225e:	9817428b          	lbuia	t0,(a4),1,0
 c002262:	0087979b          	slliw	a5,a5,0x8
 c002266:	0086161b          	slliw	a2,a2,0x8
 c00226a:	00f2e7b3          	or	a5,t0,a5
 c00226e:	2781                	sext.w	a5,a5
 c002270:	00b6549b          	srliw	s1,a2,0xb
 c002274:	03d482bb          	mulw	t0,s1,t4
 c002278:	5e57ff63          	bgeu	a5,t0,c002876 <LzmaDec_DecodeReal2+0x1030>
 c00227c:	41d40ebb          	subw	t4,s0,t4
 c002280:	005ede9b          	srliw	t4,t4,0x5
 c002284:	007e83bb          	addw	t2,t4,t2
 c002288:	3c03b38b          	extu	t2,t2,15,0
 c00228c:	4609                	li	a2,2
 c00228e:	007f9123          	sh	t2,2(t6)
 c002292:	b2cfc48b          	lurhu	s1,t6,a2,1
 c002296:	7c063b8b          	extu	s7,a2,31,0
 c00229a:	00048e9b          	sext.w	t4,s1
 c00229e:	00d2fb63          	bgeu	t0,a3,c0022b4 <LzmaDec_DecodeReal2+0xa6e>
 c0022a2:	9817438b          	lbuia	t2,(a4),1,0
 c0022a6:	0087979b          	slliw	a5,a5,0x8
 c0022aa:	0082929b          	slliw	t0,t0,0x8
 c0022ae:	00f3e7b3          	or	a5,t2,a5
 c0022b2:	2781                	sext.w	a5,a5
 c0022b4:	00b2d91b          	srliw	s2,t0,0xb
 c0022b8:	03d903bb          	mulw	t2,s2,t4
 c0022bc:	00161c1b          	slliw	s8,a2,0x1
 c0022c0:	0606                	slli	a2,a2,0x1
 c0022c2:	5c77f663          	bgeu	a5,t2,c00288e <LzmaDec_DecodeReal2+0x1048>
 c0022c6:	41d40ebb          	subw	t4,s0,t4
 c0022ca:	005ede9b          	srliw	t4,t4,0x5
 c0022ce:	009e84bb          	addw	s1,t4,s1
 c0022d2:	3c04b48b          	extu	s1,s1,15,0
 c0022d6:	237fd48b          	srh	s1,t6,s7,1
 c0022da:	b2cfc48b          	lurhu	s1,t6,a2,1
 c0022de:	7c063c0b          	extu	s8,a2,31,0
 c0022e2:	00048e9b          	sext.w	t4,s1
 c0022e6:	00d3fb63          	bgeu	t2,a3,c0022fc <LzmaDec_DecodeReal2+0xab6>
 c0022ea:	9817428b          	lbuia	t0,(a4),1,0
 c0022ee:	0087979b          	slliw	a5,a5,0x8
 c0022f2:	0083939b          	slliw	t2,t2,0x8
 c0022f6:	00f2e7b3          	or	a5,t0,a5
 c0022fa:	2781                	sext.w	a5,a5
 c0022fc:	00b3db9b          	srliw	s7,t2,0xb
 c002300:	03db82bb          	mulw	t0,s7,t4
 c002304:	0016191b          	slliw	s2,a2,0x1
 c002308:	5a57f063          	bgeu	a5,t0,c0028a8 <LzmaDec_DecodeReal2+0x1062>
 c00230c:	41d40ebb          	subw	t4,s0,t4
 c002310:	005ede9b          	srliw	t4,t4,0x5
 c002314:	009e84bb          	addw	s1,t4,s1
 c002318:	3c04b48b          	extu	s1,s1,15,0
 c00231c:	238fd48b          	srh	s1,t6,s8,1
 c002320:	b32fc38b          	lurhu	t2,t6,s2,1
 c002324:	7c093c0b          	extu	s8,s2,31,0
 c002328:	0003861b          	sext.w	a2,t2
 c00232c:	00d2fb63          	bgeu	t0,a3,c002342 <LzmaDec_DecodeReal2+0xafc>
 c002330:	98174e8b          	lbuia	t4,(a4),1,0
 c002334:	0087979b          	slliw	a5,a5,0x8
 c002338:	0082929b          	slliw	t0,t0,0x8
 c00233c:	00fee7b3          	or	a5,t4,a5
 c002340:	2781                	sext.w	a5,a5
 c002342:	00b2db9b          	srliw	s7,t0,0xb
 c002346:	02cb8ebb          	mulw	t4,s7,a2
 c00234a:	0019149b          	slliw	s1,s2,0x1
 c00234e:	57d7f963          	bgeu	a5,t4,c0028c0 <LzmaDec_DecodeReal2+0x107a>
 c002352:	40c4063b          	subw	a2,s0,a2
 c002356:	0056561b          	srliw	a2,a2,0x5
 c00235a:	007603bb          	addw	t2,a2,t2
 c00235e:	3c03b38b          	extu	t2,t2,15,0
 c002362:	238fd38b          	srh	t2,t6,s8,1
 c002366:	b29fc28b          	lurhu	t0,t6,s1,1
 c00236a:	7c04bc0b          	extu	s8,s1,31,0
 c00236e:	0002861b          	sext.w	a2,t0
 c002372:	00defb63          	bgeu	t4,a3,c002388 <LzmaDec_DecodeReal2+0xb42>
 c002376:	9817438b          	lbuia	t2,(a4),1,0
 c00237a:	0087979b          	slliw	a5,a5,0x8
 c00237e:	008e9e9b          	slliw	t4,t4,0x8
 c002382:	00f3e7b3          	or	a5,t2,a5
 c002386:	2781                	sext.w	a5,a5
 c002388:	00bedb9b          	srliw	s7,t4,0xb
 c00238c:	02cb83bb          	mulw	t2,s7,a2
 c002390:	0014991b          	slliw	s2,s1,0x1
 c002394:	5477f263          	bgeu	a5,t2,c0028d8 <LzmaDec_DecodeReal2+0x1092>
 c002398:	40c4063b          	subw	a2,s0,a2
 c00239c:	0056561b          	srliw	a2,a2,0x5
 c0023a0:	005602bb          	addw	t0,a2,t0
 c0023a4:	3c02b28b          	extu	t0,t0,15,0
 c0023a8:	238fd28b          	srh	t0,t6,s8,1
 c0023ac:	b32fc48b          	lurhu	s1,t6,s2,1
 c0023b0:	7c093c0b          	extu	s8,s2,31,0
 c0023b4:	0004829b          	sext.w	t0,s1
 c0023b8:	00d3fa63          	bgeu	t2,a3,c0023cc <LzmaDec_DecodeReal2+0xb86>
 c0023bc:	9817460b          	lbuia	a2,(a4),1,0
 c0023c0:	0087979b          	slliw	a5,a5,0x8
 c0023c4:	0083939b          	slliw	t2,t2,0x8
 c0023c8:	8fd1                	or	a5,a5,a2
 c0023ca:	2781                	sext.w	a5,a5
 c0023cc:	00b3db9b          	srliw	s7,t2,0xb
 c0023d0:	025b863b          	mulw	a2,s7,t0
 c0023d4:	00191e9b          	slliw	t4,s2,0x1
 c0023d8:	50c7fc63          	bgeu	a5,a2,c0028f0 <LzmaDec_DecodeReal2+0x10aa>
 c0023dc:	405402bb          	subw	t0,s0,t0
 c0023e0:	0052d29b          	srliw	t0,t0,0x5
 c0023e4:	009284bb          	addw	s1,t0,s1
 c0023e8:	3c04b48b          	extu	s1,s1,15,0
 c0023ec:	fc0e8e9b          	addiw	t4,t4,-64
 c0023f0:	238fd48b          	srh	s1,t6,s8,1
 c0023f4:	83f6                	mv	t2,t4
 c0023f6:	448d                	li	s1,3
 c0023f8:	0674ff63          	bgeu	s1,t2,c002476 <LzmaDec_DecodeReal2+0xc30>
 c0023fc:	001eff93          	andi	t6,t4,1
 c002400:	44b5                	li	s1,13
 c002402:	001ed29b          	srliw	t0,t4,0x1
 c002406:	002fef93          	ori	t6,t6,2
 c00240a:	5074ed63          	bltu	s1,t2,c002924 <LzmaDec_DecodeReal2+0x10de>
 c00240e:	32fd                	addiw	t0,t0,-1
 c002410:	005f9fbb          	sllw	t6,t6,t0
 c002414:	2f85                	addiw	t6,t6,1
 c002416:	4c05                	li	s8,1
 c002418:	74fd                	lui	s1,0xfffff
 c00241a:	30048493          	addi	s1,s1,768 # fffffffffffff300 <__BL2_END__+0xfffffffff3ff0090>
 c00241e:	7c0fbb8b          	extu	s7,t6,31,0
 c002422:	03749b8b          	addsl	s7,s1,s7,1
 c002426:	a175c48b          	lrhu	s1,a1,s7,0
 c00242a:	83a6                	mv	t2,s1
 c00242c:	00d67b63          	bgeu	a2,a3,c002442 <LzmaDec_DecodeReal2+0xbfc>
 c002430:	98174e8b          	lbuia	t4,(a4),1,0
 c002434:	0087979b          	slliw	a5,a5,0x8
 c002438:	0086161b          	slliw	a2,a2,0x8
 c00243c:	00fee7b3          	or	a5,t4,a5
 c002440:	2781                	sext.w	a5,a5
 c002442:	00b6591b          	srliw	s2,a2,0xb
 c002446:	02790d3b          	mulw	s10,s2,t2
 c00244a:	001c1e9b          	slliw	t4,s8,0x1
 c00244e:	4ba7fe63          	bgeu	a5,s10,c00290a <LzmaDec_DecodeReal2+0x10c4>
 c002452:	407403bb          	subw	t2,s0,t2
 c002456:	0053d39b          	srliw	t2,t2,0x5
 c00245a:	009384bb          	addw	s1,t2,s1
 c00245e:	3c04b48b          	extu	s1,s1,15,0
 c002462:	018f8fbb          	addw	t6,t6,s8
 c002466:	866a                	mv	a2,s10
 c002468:	2175d48b          	srh	s1,a1,s7,0
 c00246c:	32fd                	addiw	t0,t0,-1
 c00246e:	48029c63          	bnez	t0,c002906 <LzmaDec_DecodeReal2+0x10c0>
 c002472:	41df83bb          	subw	t2,t6,t4
 c002476:	44c9                	li	s1,18
 c002478:	00138f9b          	addiw	t6,t2,1
 c00247c:	6d14fb63          	bgeu	s1,a7,c002b52 <LzmaDec_DecodeReal2+0x130c>
 c002480:	48a9                	li	a7,10
 c002482:	6ee2                	ld	t4,24(sp)
 c002484:	41de1e8b          	mveqz	t4,t3,t4
 c002488:	73d3e863          	bltu	t2,t4,c002bb8 <LzmaDec_DecodeReal2+0x1372>
 c00248c:	03053423          	sd	a6,40(a0)
 c002490:	c18ff06f          	j	c0018a8 <LzmaDec_DecodeReal2+0x62>
 c002494:	0053d39b          	srliw	t2,t2,0x5
 c002498:	407c03bb          	subw	t2,s8,t2
 c00249c:	2375d38b          	srh	t2,a1,s7,1
 c0024a0:	018b0c13          	addi	s8,s6,24
 c0024a4:	a185cb8b          	lrhu	s7,a1,s8,0
 c0024a8:	40c48cbb          	subw	s9,s1,a2
 c0024ac:	9f91                	subw	a5,a5,a2
 c0024ae:	83de                	mv	t2,s7
 c0024b0:	00dcfc63          	bgeu	s9,a3,c0024c8 <LzmaDec_DecodeReal2+0xc82>
 c0024b4:	0087929b          	slliw	t0,a5,0x8
 c0024b8:	9817478b          	lbuia	a5,(a4),1,0
 c0024bc:	008c9c9b          	slliw	s9,s9,0x8
 c0024c0:	0057e2b3          	or	t0,a5,t0
 c0024c4:	0002879b          	sext.w	a5,t0
 c0024c8:	00bcd61b          	srliw	a2,s9,0xb
 c0024cc:	027602bb          	mulw	t0,a2,t2
 c0024d0:	8616                	mv	a2,t0
 c0024d2:	0a57f463          	bgeu	a5,t0,c00257a <LzmaDec_DecodeReal2+0xd34>
 c0024d6:	407403bb          	subw	t2,s0,t2
 c0024da:	0053d39b          	srliw	t2,t2,0x5
 c0024de:	74fd                	lui	s1,0xfffff
 c0024e0:	017383bb          	addw	t2,t2,s7
 c0024e4:	40048493          	addi	s1,s1,1024 # fffffffffffff400 <__BL2_END__+0xfffffffff3ff0190>
 c0024e8:	2185d38b          	srh	t2,a1,s8,0
 c0024ec:	9926                	add	s2,s2,s1
 c0024ee:	a125c48b          	lrhu	s1,a1,s2,0
 c0024f2:	83a6                	mv	t2,s1
 c0024f4:	00d2fa63          	bgeu	t0,a3,c002508 <LzmaDec_DecodeReal2+0xcc2>
 c0024f8:	9817460b          	lbuia	a2,(a4),1,0
 c0024fc:	0087979b          	slliw	a5,a5,0x8
 c002500:	0082929b          	slliw	t0,t0,0x8
 c002504:	8fd1                	or	a5,a5,a2
 c002506:	2781                	sext.w	a5,a5
 c002508:	00b2db1b          	srliw	s6,t0,0xb
 c00250c:	027b063b          	mulw	a2,s6,t2
 c002510:	8b32                	mv	s6,a2
 c002512:	02c7ff63          	bgeu	a5,a2,c002550 <LzmaDec_DecodeReal2+0xd0a>
 c002516:	407403bb          	subw	t2,s0,t2
 c00251a:	0053d39b          	srliw	t2,t2,0x5
 c00251e:	009383bb          	addw	t2,t2,s1
 c002522:	2125d38b          	srh	t2,a1,s2,0
 c002526:	7c0fb38b          	extu	t2,t6,31,0
 c00252a:	40780eb3          	sub	t4,a6,t2
 c00252e:	82d6                	mv	t0,s5
 c002530:	00786363          	bltu	a6,t2,c002536 <LzmaDec_DecodeReal2+0xcf0>
 c002534:	4281                	li	t0,0
 c002536:	9ed2                	add	t4,t4,s4
 c002538:	805ece8b          	lrbu	t4,t4,t0,0
 c00253c:	2e05                	addiw	t3,t3,1
 c00253e:	010a5e8b          	srb	t4,s4,a6,0
 c002542:	4e99                	li	t4,6
 c002544:	0805                	addi	a6,a6,1
 c002546:	6b1ef063          	bgeu	t4,a7,c002be6 <LzmaDec_DecodeReal2+0x13a0>
 c00254a:	48ad                	li	a7,11
 c00254c:	ed6ff06f          	j	c001c22 <LzmaDec_DecodeReal2+0x3dc>
 c002550:	0053d39b          	srliw	t2,t2,0x5
 c002554:	837a                	mv	t1,t5
 c002556:	407483bb          	subw	t2,s1,t2
 c00255a:	8f7e                	mv	t5,t6
 c00255c:	40c2863b          	subw	a2,t0,a2
 c002560:	416787bb          	subw	a5,a5,s6
 c002564:	2125d38b          	srh	t2,a1,s2,0
 c002568:	8f9a                	mv	t6,t1
 c00256a:	4319                	li	t1,6
 c00256c:	0d137863          	bgeu	t1,a7,c00263c <LzmaDec_DecodeReal2+0xdf6>
 c002570:	48ad                	li	a7,11
 c002572:	8b7a                	mv	s6,t5
 c002574:	62a6                	ld	t0,72(sp)
 c002576:	8f7e                	mv	t5,t6
 c002578:	b67d                	j	c002126 <LzmaDec_DecodeReal2+0x8e0>
 c00257a:	0053d39b          	srliw	t2,t2,0x5
 c00257e:	407b83bb          	subw	t2,s7,t2
 c002582:	2185d38b          	srh	t2,a1,s8,0
 c002586:	030b0493          	addi	s1,s6,48
 c00258a:	a095c38b          	lrhu	t2,a1,s1,0
 c00258e:	405c82bb          	subw	t0,s9,t0
 c002592:	9f91                	subw	a5,a5,a2
 c002594:	831e                	mv	t1,t2
 c002596:	00d2fb63          	bgeu	t0,a3,c0025ac <LzmaDec_DecodeReal2+0xd66>
 c00259a:	0087961b          	slliw	a2,a5,0x8
 c00259e:	9817478b          	lbuia	a5,(a4),1,0
 c0025a2:	0082929b          	slliw	t0,t0,0x8
 c0025a6:	8e5d                	or	a2,a2,a5
 c0025a8:	0006079b          	sext.w	a5,a2
 c0025ac:	00b2d91b          	srliw	s2,t0,0xb
 c0025b0:	0269063b          	mulw	a2,s2,t1
 c0025b4:	00c7fb63          	bgeu	a5,a2,c0025ca <LzmaDec_DecodeReal2+0xd84>
 c0025b8:	4064033b          	subw	t1,s0,t1
 c0025bc:	0053531b          	srliw	t1,t1,0x5
 c0025c0:	0073033b          	addw	t1,t1,t2
 c0025c4:	2095d30b          	srh	t1,a1,s1,0
 c0025c8:	b74d                	j	c00256a <LzmaDec_DecodeReal2+0xd24>
 c0025ca:	0053531b          	srliw	t1,t1,0x5
 c0025ce:	4063833b          	subw	t1,t2,t1
 c0025d2:	2095d30b          	srh	t1,a1,s1,0
 c0025d6:	048b0b13          	addi	s6,s6,72
 c0025da:	a165c38b          	lrhu	t2,a1,s6,0
 c0025de:	40c28bbb          	subw	s7,t0,a2
 c0025e2:	9f91                	subw	a5,a5,a2
 c0025e4:	831e                	mv	t1,t2
 c0025e6:	00dbfc63          	bgeu	s7,a3,c0025fe <LzmaDec_DecodeReal2+0xdb8>
 c0025ea:	0087991b          	slliw	s2,a5,0x8
 c0025ee:	9817478b          	lbuia	a5,(a4),1,0
 c0025f2:	008b9b9b          	slliw	s7,s7,0x8
 c0025f6:	0127e933          	or	s2,a5,s2
 c0025fa:	0009079b          	sext.w	a5,s2
 c0025fe:	00bbd29b          	srliw	t0,s7,0xb
 c002602:	0262863b          	mulw	a2,t0,t1
 c002606:	00c7fe63          	bgeu	a5,a2,c002622 <LzmaDec_DecodeReal2+0xddc>
 c00260a:	4064033b          	subw	t1,s0,t1
 c00260e:	0053531b          	srliw	t1,t1,0x5
 c002612:	0073033b          	addw	t1,t1,t2
 c002616:	2165d30b          	srh	t1,a1,s6,0
 c00261a:	837a                	mv	t1,t5
 c00261c:	8f4e                	mv	t5,s3
 c00261e:	899a                	mv	s3,t1
 c002620:	b7a9                	j	c00256a <LzmaDec_DecodeReal2+0xd24>
 c002622:	0053531b          	srliw	t1,t1,0x5
 c002626:	4063833b          	subw	t1,t2,t1
 c00262a:	9f91                	subw	a5,a5,a2
 c00262c:	2165d30b          	srh	t1,a1,s6,0
 c002630:	40cb863b          	subw	a2,s7,a2
 c002634:	837a                	mv	t1,t5
 c002636:	7f02                	ld	t5,32(sp)
 c002638:	f04e                	sd	s3,32(sp)
 c00263a:	b7d5                	j	c00261e <LzmaDec_DecodeReal2+0xdd8>
 c00263c:	48a1                	li	a7,8
 c00263e:	bf15                	j	c002572 <LzmaDec_DecodeReal2+0xd2c>
 c002640:	0056561b          	srliw	a2,a2,0x5
 c002644:	40ce8ebb          	subw	t4,t4,a2
 c002648:	41f787bb          	subw	a5,a5,t6
 c00264c:	3c0ebe8b          	extu	t4,t4,15,0
 c002650:	41f48fbb          	subw	t6,s1,t6
 c002654:	430d                	li	t1,3
 c002656:	b6b1                	j	c0021a2 <LzmaDec_DecodeReal2+0x95c>
 c002658:	0056561b          	srliw	a2,a2,0x5
 c00265c:	40c383bb          	subw	t2,t2,a2
 c002660:	41d787bb          	subw	a5,a5,t4
 c002664:	3c03b38b          	extu	t2,t2,15,0
 c002668:	001b831b          	addiw	t1,s7,1
 c00266c:	41df8ebb          	subw	t4,t6,t4
 c002670:	bead                	j	c0021ea <LzmaDec_DecodeReal2+0x9a4>
 c002672:	005fdf9b          	srliw	t6,t6,0x5
 c002676:	41f383bb          	subw	t2,t2,t6
 c00267a:	9f91                	subw	a5,a5,a2
 c00267c:	3c03b38b          	extu	t2,t2,15,0
 c002680:	2305                	addiw	t1,t1,1
 c002682:	40ce863b          	subw	a2,t4,a2
 c002686:	b665                	j	c00222e <LzmaDec_DecodeReal2+0x9e8>
 c002688:	005fdf9b          	srliw	t6,t6,0x5
 c00268c:	41f38fbb          	subw	t6,t2,t6
 c002690:	0102d383          	lhu	t2,16(t0)
 c002694:	01f29023          	sh	t6,0(t0)
 c002698:	9e05                	subw	a2,a2,s1
 c00269a:	406787bb          	subw	a5,a5,t1
 c00269e:	8f9e                	mv	t6,t2
 c0026a0:	00d67c63          	bgeu	a2,a3,c0026b8 <LzmaDec_DecodeReal2+0xe72>
 c0026a4:	0087931b          	slliw	t1,a5,0x8
 c0026a8:	9817478b          	lbuia	a5,(a4),1,0
 c0026ac:	0086161b          	slliw	a2,a2,0x8
 c0026b0:	0067e333          	or	t1,a5,t1
 c0026b4:	0003079b          	sext.w	a5,t1
 c0026b8:	00b6531b          	srliw	t1,a2,0xb
 c0026bc:	03f304bb          	mulw	s1,t1,t6
 c0026c0:	1297f763          	bgeu	a5,s1,c0027ee <LzmaDec_DecodeReal2+0xfa8>
 c0026c4:	41f40fbb          	subw	t6,s0,t6
 c0026c8:	005fdf9b          	srliw	t6,t6,0x5
 c0026cc:	7c0ebe8b          	extu	t4,t4,31,0
 c0026d0:	007f8fbb          	addw	t6,t6,t2
 c0026d4:	0ea1                	addi	t4,t4,8
 c0026d6:	01f29823          	sh	t6,16(t0)
 c0026da:	03d2928b          	addsl	t0,t0,t4,1
 c0026de:	0022df83          	lhu	t6,2(t0)
 c0026e2:	867e                	mv	a2,t6
 c0026e4:	00d4fb63          	bgeu	s1,a3,c0026fa <LzmaDec_DecodeReal2+0xeb4>
 c0026e8:	9817430b          	lbuia	t1,(a4),1,0
 c0026ec:	0087979b          	slliw	a5,a5,0x8
 c0026f0:	0084949b          	slliw	s1,s1,0x8
 c0026f4:	00f367b3          	or	a5,t1,a5
 c0026f8:	2781                	sext.w	a5,a5
 c0026fa:	00b4d31b          	srliw	t1,s1,0xb
 c0026fe:	02c30ebb          	mulw	t4,t1,a2
 c002702:	0bd7f263          	bgeu	a5,t4,c0027a6 <LzmaDec_DecodeReal2+0xf60>
 c002706:	40c4063b          	subw	a2,s0,a2
 c00270a:	0056561b          	srliw	a2,a2,0x5
 c00270e:	01f60fbb          	addw	t6,a2,t6
 c002712:	3c0fbf8b          	extu	t6,t6,15,0
 c002716:	4309                	li	t1,2
 c002718:	01f29123          	sh	t6,2(t0)
 c00271c:	b262c38b          	lurhu	t2,t0,t1,1
 c002720:	7c03390b          	extu	s2,t1,31,0
 c002724:	0003861b          	sext.w	a2,t2
 c002728:	00defb63          	bgeu	t4,a3,c00273e <LzmaDec_DecodeReal2+0xef8>
 c00272c:	98174f8b          	lbuia	t6,(a4),1,0
 c002730:	0087979b          	slliw	a5,a5,0x8
 c002734:	008e9e9b          	slliw	t4,t4,0x8
 c002738:	00ffe7b3          	or	a5,t6,a5
 c00273c:	2781                	sext.w	a5,a5
 c00273e:	00bed49b          	srliw	s1,t4,0xb
 c002742:	02c48fbb          	mulw	t6,s1,a2
 c002746:	00131b9b          	slliw	s7,t1,0x1
 c00274a:	0306                	slli	t1,t1,0x1
 c00274c:	07f7f963          	bgeu	a5,t6,c0027be <LzmaDec_DecodeReal2+0xf78>
 c002750:	40c4063b          	subw	a2,s0,a2
 c002754:	0056561b          	srliw	a2,a2,0x5
 c002758:	007603bb          	addw	t2,a2,t2
 c00275c:	3c03b38b          	extu	t2,t2,15,0
 c002760:	2322d38b          	srh	t2,t0,s2,1
 c002764:	b262c48b          	lurhu	s1,t0,t1,1
 c002768:	7c03390b          	extu	s2,t1,31,0
 c00276c:	00048e9b          	sext.w	t4,s1
 c002770:	00dffa63          	bgeu	t6,a3,c002784 <LzmaDec_DecodeReal2+0xf3e>
 c002774:	9817460b          	lbuia	a2,(a4),1,0
 c002778:	0087979b          	slliw	a5,a5,0x8
 c00277c:	008f9f9b          	slliw	t6,t6,0x8
 c002780:	8fd1                	or	a5,a5,a2
 c002782:	2781                	sext.w	a5,a5
 c002784:	00bfd39b          	srliw	t2,t6,0xb
 c002788:	03d3863b          	mulw	a2,t2,t4
 c00278c:	0013131b          	slliw	t1,t1,0x1
 c002790:	04c7f463          	bgeu	a5,a2,c0027d8 <LzmaDec_DecodeReal2+0xf92>
 c002794:	41d40ebb          	subw	t4,s0,t4
 c002798:	005ede9b          	srliw	t4,t4,0x5
 c00279c:	009e8ebb          	addw	t4,t4,s1
 c0027a0:	2322de8b          	srh	t4,t0,s2,1
 c0027a4:	bc41                	j	c002234 <LzmaDec_DecodeReal2+0x9ee>
 c0027a6:	0056561b          	srliw	a2,a2,0x5
 c0027aa:	40cf8fbb          	subw	t6,t6,a2
 c0027ae:	41d787bb          	subw	a5,a5,t4
 c0027b2:	3c0fbf8b          	extu	t6,t6,15,0
 c0027b6:	41d48ebb          	subw	t4,s1,t4
 c0027ba:	430d                	li	t1,3
 c0027bc:	bfb1                	j	c002718 <LzmaDec_DecodeReal2+0xed2>
 c0027be:	0056561b          	srliw	a2,a2,0x5
 c0027c2:	40c383bb          	subw	t2,t2,a2
 c0027c6:	41f787bb          	subw	a5,a5,t6
 c0027ca:	3c03b38b          	extu	t2,t2,15,0
 c0027ce:	001b831b          	addiw	t1,s7,1
 c0027d2:	41fe8fbb          	subw	t6,t4,t6
 c0027d6:	b769                	j	c002760 <LzmaDec_DecodeReal2+0xf1a>
 c0027d8:	005ede9b          	srliw	t4,t4,0x5
 c0027dc:	41d48ebb          	subw	t4,s1,t4
 c0027e0:	9f91                	subw	a5,a5,a2
 c0027e2:	2322de8b          	srh	t4,t0,s2,1
 c0027e6:	2305                	addiw	t1,t1,1
 c0027e8:	40cf863b          	subw	a2,t6,a2
 c0027ec:	b4a1                	j	c002234 <LzmaDec_DecodeReal2+0x9ee>
 c0027ee:	005fdf9b          	srliw	t6,t6,0x5
 c0027f2:	41f38fbb          	subw	t6,t2,t6
 c0027f6:	9e05                	subw	a2,a2,s1
 c0027f8:	9f85                	subw	a5,a5,s1
 c0027fa:	01f29823          	sh	t6,16(t0)
 c0027fe:	4305                	li	t1,1
 c002800:	0ff00b93          	li	s7,255
 c002804:	7c033e8b          	extu	t4,t1,31,0
 c002808:	0e86                	slli	t4,t4,0x1
 c00280a:	200e8e93          	addi	t4,t4,512
 c00280e:	a1d2cf8b          	lrhu	t6,t0,t4,0
 c002812:	01d28c33          	add	s8,t0,t4
 c002816:	8efe                	mv	t4,t6
 c002818:	00d67b63          	bgeu	a2,a3,c00282e <LzmaDec_DecodeReal2+0xfe8>
 c00281c:	9817438b          	lbuia	t2,(a4),1,0
 c002820:	0087979b          	slliw	a5,a5,0x8
 c002824:	0086161b          	slliw	a2,a2,0x8
 c002828:	00f3e7b3          	or	a5,t2,a5
 c00282c:	2781                	sext.w	a5,a5
 c00282e:	00b6539b          	srliw	t2,a2,0xb
 c002832:	03d3893b          	mulw	s2,t2,t4
 c002836:	0013131b          	slliw	t1,t1,0x1
 c00283a:	0327f263          	bgeu	a5,s2,c00285e <LzmaDec_DecodeReal2+0x1018>
 c00283e:	41d40ebb          	subw	t4,s0,t4
 c002842:	005ede9b          	srliw	t4,t4,0x5
 c002846:	01fe8fbb          	addw	t6,t4,t6
 c00284a:	3c0fbf8b          	extu	t6,t6,15,0
 c00284e:	864a                	mv	a2,s2
 c002850:	01fc1023          	sh	t6,0(s8)
 c002854:	fa6bf8e3          	bgeu	s7,t1,c002804 <LzmaDec_DecodeReal2+0xfbe>
 c002858:	f103031b          	addiw	t1,t1,-240
 c00285c:	bae1                	j	c002234 <LzmaDec_DecodeReal2+0x9ee>
 c00285e:	005ede9b          	srliw	t4,t4,0x5
 c002862:	41df8fbb          	subw	t6,t6,t4
 c002866:	4126063b          	subw	a2,a2,s2
 c00286a:	412787bb          	subw	a5,a5,s2
 c00286e:	3c0fbf8b          	extu	t6,t6,15,0
 c002872:	2305                	addiw	t1,t1,1
 c002874:	bff1                	j	c002850 <LzmaDec_DecodeReal2+0x100a>
 c002876:	005ede9b          	srliw	t4,t4,0x5
 c00287a:	41d383bb          	subw	t2,t2,t4
 c00287e:	405787bb          	subw	a5,a5,t0
 c002882:	3c03b38b          	extu	t2,t2,15,0
 c002886:	405602bb          	subw	t0,a2,t0
 c00288a:	460d                	li	a2,3
 c00288c:	b409                	j	c00228e <LzmaDec_DecodeReal2+0xa48>
 c00288e:	005ede9b          	srliw	t4,t4,0x5
 c002892:	41d484bb          	subw	s1,s1,t4
 c002896:	407787bb          	subw	a5,a5,t2
 c00289a:	3c04b48b          	extu	s1,s1,15,0
 c00289e:	001c061b          	addiw	a2,s8,1
 c0028a2:	407283bb          	subw	t2,t0,t2
 c0028a6:	bc05                	j	c0022d6 <LzmaDec_DecodeReal2+0xa90>
 c0028a8:	005ede9b          	srliw	t4,t4,0x5
 c0028ac:	41d484bb          	subw	s1,s1,t4
 c0028b0:	405787bb          	subw	a5,a5,t0
 c0028b4:	3c04b48b          	extu	s1,s1,15,0
 c0028b8:	2905                	addiw	s2,s2,1
 c0028ba:	405382bb          	subw	t0,t2,t0
 c0028be:	bcb9                	j	c00231c <LzmaDec_DecodeReal2+0xad6>
 c0028c0:	0056561b          	srliw	a2,a2,0x5
 c0028c4:	40c383bb          	subw	t2,t2,a2
 c0028c8:	41d787bb          	subw	a5,a5,t4
 c0028cc:	3c03b38b          	extu	t2,t2,15,0
 c0028d0:	2485                	addiw	s1,s1,1
 c0028d2:	41d28ebb          	subw	t4,t0,t4
 c0028d6:	b471                	j	c002362 <LzmaDec_DecodeReal2+0xb1c>
 c0028d8:	0056561b          	srliw	a2,a2,0x5
 c0028dc:	40c282bb          	subw	t0,t0,a2
 c0028e0:	407787bb          	subw	a5,a5,t2
 c0028e4:	3c02b28b          	extu	t0,t0,15,0
 c0028e8:	2905                	addiw	s2,s2,1
 c0028ea:	407e83bb          	subw	t2,t4,t2
 c0028ee:	bc6d                	j	c0023a8 <LzmaDec_DecodeReal2+0xb62>
 c0028f0:	0052d29b          	srliw	t0,t0,0x5
 c0028f4:	405484bb          	subw	s1,s1,t0
 c0028f8:	9f91                	subw	a5,a5,a2
 c0028fa:	3c04b48b          	extu	s1,s1,15,0
 c0028fe:	2e85                	addiw	t4,t4,1
 c002900:	40c3863b          	subw	a2,t2,a2
 c002904:	b4e5                	j	c0023ec <LzmaDec_DecodeReal2+0xba6>
 c002906:	8c76                	mv	s8,t4
 c002908:	be01                	j	c002418 <LzmaDec_DecodeReal2+0xbd2>
 c00290a:	0053d39b          	srliw	t2,t2,0x5
 c00290e:	407484bb          	subw	s1,s1,t2
 c002912:	41a6063b          	subw	a2,a2,s10
 c002916:	41a787bb          	subw	a5,a5,s10
 c00291a:	3c04b48b          	extu	s1,s1,15,0
 c00291e:	01fe8fbb          	addw	t6,t4,t6
 c002922:	b699                	j	c002468 <LzmaDec_DecodeReal2+0xc22>
 c002924:	32ed                	addiw	t0,t0,-5
 c002926:	00d67b63          	bgeu	a2,a3,c00293c <LzmaDec_DecodeReal2+0x10f6>
 c00292a:	98174e8b          	lbuia	t4,(a4),1,0
 c00292e:	0087979b          	slliw	a5,a5,0x8
 c002932:	0086161b          	slliw	a2,a2,0x8
 c002936:	00fee7b3          	or	a5,t4,a5
 c00293a:	2781                	sext.w	a5,a5
 c00293c:	0016539b          	srliw	t2,a2,0x1
 c002940:	407787bb          	subw	a5,a5,t2
 c002944:	41f7d49b          	sraiw	s1,a5,0x1f
 c002948:	001f9f9b          	slliw	t6,t6,0x1
 c00294c:	861e                	mv	a2,t2
 c00294e:	2f85                	addiw	t6,t6,1
 c002950:	0093f3b3          	and	t2,t2,s1
 c002954:	32fd                	addiw	t0,t0,-1
 c002956:	01f48fbb          	addw	t6,s1,t6
 c00295a:	007787bb          	addw	a5,a5,t2
 c00295e:	fc0294e3          	bnez	t0,c002926 <LzmaDec_DecodeReal2+0x10e0>
 c002962:	0025d283          	lhu	t0,2(a1)
 c002966:	004f9f9b          	slliw	t6,t6,0x4
 c00296a:	8e96                	mv	t4,t0
 c00296c:	00d67b63          	bgeu	a2,a3,c002982 <LzmaDec_DecodeReal2+0x113c>
 c002970:	9817438b          	lbuia	t2,(a4),1,0
 c002974:	0087979b          	slliw	a5,a5,0x8
 c002978:	0086161b          	slliw	a2,a2,0x8
 c00297c:	00f3e7b3          	or	a5,t2,a5
 c002980:	2781                	sext.w	a5,a5
 c002982:	00b6549b          	srliw	s1,a2,0xb
 c002986:	03d483bb          	mulw	t2,s1,t4
 c00298a:	1677f763          	bgeu	a5,t2,c002af8 <LzmaDec_DecodeReal2+0x12b2>
 c00298e:	41d40ebb          	subw	t4,s0,t4
 c002992:	005ede9b          	srliw	t4,t4,0x5
 c002996:	005e82bb          	addw	t0,t4,t0
 c00299a:	3c02b28b          	extu	t0,t0,15,0
 c00299e:	4e89                	li	t4,2
 c0029a0:	00559123          	sh	t0,2(a1)
 c0029a4:	b3d5c48b          	lurhu	s1,a1,t4,1
 c0029a8:	7c0ebb8b          	extu	s7,t4,31,0
 c0029ac:	0004861b          	sext.w	a2,s1
 c0029b0:	00d3fb63          	bgeu	t2,a3,c0029c6 <LzmaDec_DecodeReal2+0x1180>
 c0029b4:	9817428b          	lbuia	t0,(a4),1,0
 c0029b8:	0087979b          	slliw	a5,a5,0x8
 c0029bc:	0083939b          	slliw	t2,t2,0x8
 c0029c0:	00f2e7b3          	or	a5,t0,a5
 c0029c4:	2781                	sext.w	a5,a5
 c0029c6:	00b3d91b          	srliw	s2,t2,0xb
 c0029ca:	02c902bb          	mulw	t0,s2,a2
 c0029ce:	1457f163          	bgeu	a5,t0,c002b10 <LzmaDec_DecodeReal2+0x12ca>
 c0029d2:	40c4063b          	subw	a2,s0,a2
 c0029d6:	0056561b          	srliw	a2,a2,0x5
 c0029da:	9cb1                	addw	s1,s1,a2
 c0029dc:	3c04b48b          	extu	s1,s1,15,0
 c0029e0:	0e89                	addi	t4,t4,2
 c0029e2:	2375d48b          	srh	s1,a1,s7,1
 c0029e6:	b3d5cb8b          	lurhu	s7,a1,t4,1
 c0029ea:	7c0eb90b          	extu	s2,t4,31,0
 c0029ee:	000b861b          	sext.w	a2,s7
 c0029f2:	00d2fb63          	bgeu	t0,a3,c002a08 <LzmaDec_DecodeReal2+0x11c2>
 c0029f6:	9817438b          	lbuia	t2,(a4),1,0
 c0029fa:	0087979b          	slliw	a5,a5,0x8
 c0029fe:	0082929b          	slliw	t0,t0,0x8
 c002a02:	00f3e7b3          	or	a5,t2,a5
 c002a06:	2781                	sext.w	a5,a5
 c002a08:	00b2d49b          	srliw	s1,t0,0xb
 c002a0c:	02c483bb          	mulw	t2,s1,a2
 c002a10:	1077fb63          	bgeu	a5,t2,c002b26 <LzmaDec_DecodeReal2+0x12e0>
 c002a14:	40c4063b          	subw	a2,s0,a2
 c002a18:	0056561b          	srliw	a2,a2,0x5
 c002a1c:	01760bbb          	addw	s7,a2,s7
 c002a20:	3c0bbb8b          	extu	s7,s7,15,0
 c002a24:	2e91                	addiw	t4,t4,4
 c002a26:	2325db8b          	srh	s7,a1,s2,1
 c002a2a:	b3d5c48b          	lurhu	s1,a1,t4,1
 c002a2e:	7c0ebb8b          	extu	s7,t4,31,0
 c002a32:	0004829b          	sext.w	t0,s1
 c002a36:	00d3fa63          	bgeu	t2,a3,c002a4a <LzmaDec_DecodeReal2+0x1204>
 c002a3a:	9817460b          	lbuia	a2,(a4),1,0
 c002a3e:	0087979b          	slliw	a5,a5,0x8
 c002a42:	0083939b          	slliw	t2,t2,0x8
 c002a46:	8fd1                	or	a5,a5,a2
 c002a48:	2781                	sext.w	a5,a5
 c002a4a:	00b3d91b          	srliw	s2,t2,0xb
 c002a4e:	0259063b          	mulw	a2,s2,t0
 c002a52:	0ec7f663          	bgeu	a5,a2,c002b3e <LzmaDec_DecodeReal2+0x12f8>
 c002a56:	405402bb          	subw	t0,s0,t0
 c002a5a:	0052d29b          	srliw	t0,t0,0x5
 c002a5e:	009284bb          	addw	s1,t0,s1
 c002a62:	3c04b48b          	extu	s1,s1,15,0
 c002a66:	3ee1                	addiw	t4,t4,-8
 c002a68:	2375d48b          	srh	s1,a1,s7,1
 c002a6c:	01feefb3          	or	t6,t4,t6
 c002a70:	54fd                	li	s1,-1
 c002a72:	83fe                	mv	t2,t6
 c002a74:	a09f91e3          	bne	t6,s1,c002476 <LzmaDec_DecodeReal2+0xc30>
 c002a78:	38d1                	addiw	a7,a7,-12
 c002a7a:	8fda                	mv	t6,s6
 c002a7c:	11200313          	li	t1,274
 c002a80:	010006b7          	lui	a3,0x1000
 c002a84:	00d67a63          	bgeu	a2,a3,c002a98 <LzmaDec_DecodeReal2+0x1252>
 c002a88:	0087969b          	slliw	a3,a5,0x8
 c002a8c:	9817478b          	lbuia	a5,(a4),1,0
 c002a90:	0086161b          	slliw	a2,a2,0x8
 c002a94:	8fd5                	or	a5,a5,a3
 c002a96:	2781                	sext.w	a5,a5
 c002a98:	dd5c                	sw	a5,60(a0)
 c002a9a:	7782                	ld	a5,32(sp)
 c002a9c:	f918                	sd	a4,48(a0)
 c002a9e:	dd10                	sw	a2,56(a0)
 c002aa0:	c97c                	sw	a5,84(a0)
 c002aa2:	417c                	lw	a5,68(a0)
 c002aa4:	04652e23          	sw	t1,92(a0)
 c002aa8:	03053423          	sd	a6,40(a0)
 c002aac:	05c52023          	sw	t3,64(a0)
 c002ab0:	05f52423          	sw	t6,72(a0)
 c002ab4:	05e52623          	sw	t5,76(a0)
 c002ab8:	05352823          	sw	s3,80(a0)
 c002abc:	05152c23          	sw	a7,88(a0)
 c002ac0:	e789                	bnez	a5,c002aca <LzmaDec_DecodeReal2+0x1284>
 c002ac2:	415c                	lw	a5,4(a0)
 c002ac4:	00fe6363          	bltu	t3,a5,c002aca <LzmaDec_DecodeReal2+0x1284>
 c002ac8:	c17c                	sw	a5,68(a0)
 c002aca:	65c2                	ld	a1,16(sp)
 c002acc:	e42a                	sd	a0,8(sp)
 c002ace:	d07fe0ef          	jal	ra,c0017d4 <LzmaDec_WriteRem>
 c002ad2:	6522                	ld	a0,8(sp)
 c002ad4:	6742                	ld	a4,16(sp)
 c002ad6:	751c                	ld	a5,40(a0)
 c002ad8:	00e7fd63          	bgeu	a5,a4,c002af2 <LzmaDec_DecodeReal2+0x12ac>
 c002adc:	791c                	ld	a5,48(a0)
 c002ade:	7742                	ld	a4,48(sp)
 c002ae0:	00e7f963          	bgeu	a5,a4,c002af2 <LzmaDec_DecodeReal2+0x12ac>
 c002ae4:	4d78                	lw	a4,92(a0)
 c002ae6:	11100793          	li	a5,273
 c002aea:	00e7e463          	bltu	a5,a4,c002af2 <LzmaDec_DecodeReal2+0x12ac>
 c002aee:	d7ffe06f          	j	c00186c <LzmaDec_DecodeReal2+0x26>
 c002af2:	4501                	li	a0,0
 c002af4:	db7fe06f          	j	c0018aa <LzmaDec_DecodeReal2+0x64>
 c002af8:	005ede9b          	srliw	t4,t4,0x5
 c002afc:	41d282bb          	subw	t0,t0,t4
 c002b00:	407787bb          	subw	a5,a5,t2
 c002b04:	3c02b28b          	extu	t0,t0,15,0
 c002b08:	407603bb          	subw	t2,a2,t2
 c002b0c:	4e8d                	li	t4,3
 c002b0e:	bd49                	j	c0029a0 <LzmaDec_DecodeReal2+0x115a>
 c002b10:	0056561b          	srliw	a2,a2,0x5
 c002b14:	9c91                	subw	s1,s1,a2
 c002b16:	405787bb          	subw	a5,a5,t0
 c002b1a:	3c04b48b          	extu	s1,s1,15,0
 c002b1e:	0e91                	addi	t4,t4,4
 c002b20:	405382bb          	subw	t0,t2,t0
 c002b24:	bd7d                	j	c0029e2 <LzmaDec_DecodeReal2+0x119c>
 c002b26:	0056561b          	srliw	a2,a2,0x5
 c002b2a:	40cb8bbb          	subw	s7,s7,a2
 c002b2e:	407787bb          	subw	a5,a5,t2
 c002b32:	3c0bbb8b          	extu	s7,s7,15,0
 c002b36:	2ea1                	addiw	t4,t4,8
 c002b38:	407283bb          	subw	t2,t0,t2
 c002b3c:	b5ed                	j	c002a26 <LzmaDec_DecodeReal2+0x11e0>
 c002b3e:	0052d29b          	srliw	t0,t0,0x5
 c002b42:	405484bb          	subw	s1,s1,t0
 c002b46:	9f91                	subw	a5,a5,a2
 c002b48:	3c04b48b          	extu	s1,s1,15,0
 c002b4c:	40c3863b          	subw	a2,t2,a2
 c002b50:	bf21                	j	c002a68 <LzmaDec_DecodeReal2+0x1222>
 c002b52:	489d                	li	a7,7
 c002b54:	b23d                	j	c002482 <LzmaDec_DecodeReal2+0xc3c>
 c002b56:	8fda                	mv	t6,s6
 c002b58:	64a2                	ld	s1,8(sp)
 c002b5a:	00230e9b          	addiw	t4,t1,2
 c002b5e:	8376                	mv	t1,t4
 c002b60:	410483b3          	sub	t2,s1,a6
 c002b64:	930484e3          	beq	s1,a6,c00248c <LzmaDec_DecodeReal2+0xc46>
 c002b68:	7c0eb28b          	extu	t0,t4,31,0
 c002b6c:	0053f463          	bgeu	t2,t0,c002b74 <LzmaDec_DecodeReal2+0x132e>
 c002b70:	00038e9b          	sext.w	t4,t2
 c002b74:	7c0fb48b          	extu	s1,t6,31,0
 c002b78:	409803b3          	sub	t2,a6,s1
 c002b7c:	82d6                	mv	t0,s5
 c002b7e:	00986363          	bltu	a6,s1,c002b84 <LzmaDec_DecodeReal2+0x133e>
 c002b82:	4281                	li	t0,0
 c002b84:	9396                	add	t2,t2,t0
 c002b86:	7c0eb48b          	extu	s1,t4,31,0
 c002b8a:	407a8933          	sub	s2,s5,t2
 c002b8e:	01de0e3b          	addw	t3,t3,t4
 c002b92:	41d3033b          	subw	t1,t1,t4
 c002b96:	010a02b3          	add	t0,s4,a6
 c002b9a:	02996363          	bltu	s2,s1,c002bc0 <LzmaDec_DecodeReal2+0x137a>
 c002b9e:	410383b3          	sub	t2,t2,a6
 c002ba2:	00928eb3          	add	t4,t0,s1
 c002ba6:	9826                	add	a6,a6,s1
 c002ba8:	8072c48b          	lrbu	s1,t0,t2,0
 c002bac:	1812d48b          	sbia	s1,(t0),1,0
 c002bb0:	fe5e9ce3          	bne	t4,t0,c002ba8 <LzmaDec_DecodeReal2+0x1362>
 c002bb4:	86eff06f          	j	c001c22 <LzmaDec_DecodeReal2+0x3dc>
 c002bb8:	f04e                	sd	s3,32(sp)
 c002bba:	89fa                	mv	s3,t5
 c002bbc:	8f5a                	mv	t5,s6
 c002bbe:	bf69                	j	c002b58 <LzmaDec_DecodeReal2+0x1312>
 c002bc0:	84f6                	mv	s1,t4
 c002bc2:	807a490b          	lrbu	s2,s4,t2,0
 c002bc6:	0385                	addi	t2,t2,1
 c002bc8:	01228023          	sb	s2,0(t0)
 c002bcc:	007a9363          	bne	s5,t2,c002bd2 <LzmaDec_DecodeReal2+0x138c>
 c002bd0:	4381                	li	t2,0
 c002bd2:	34fd                	addiw	s1,s1,-1
 c002bd4:	0285                	addi	t0,t0,1
 c002bd6:	f4f5                	bnez	s1,c002bc2 <LzmaDec_DecodeReal2+0x137c>
 c002bd8:	3efd                	addiw	t4,t4,-1
 c002bda:	0805                	addi	a6,a6,1
 c002bdc:	7c0ebe8b          	extu	t4,t4,31,0
 c002be0:	9876                	add	a6,a6,t4
 c002be2:	840ff06f          	j	c001c22 <LzmaDec_DecodeReal2+0x3dc>
 c002be6:	48a5                	li	a7,9
 c002be8:	83aff06f          	j	c001c22 <LzmaDec_DecodeReal2+0x3dc>

000000000c002bec <LzmaDec_TryDummy>:
 c002bec:	00254703          	lbu	a4,2(a0)
 c002bf0:	04052f03          	lw	t5,64(a0)
 c002bf4:	4805                	li	a6,1
 c002bf6:	00e8183b          	sllw	a6,a6,a4
 c002bfa:	05852e83          	lw	t4,88(a0)
 c002bfe:	387d                	addiw	a6,a6,-1
 c002c00:	010f7833          	and	a6,t5,a6
 c002c04:	01053883          	ld	a7,16(a0)
 c002c08:	0048181b          	slliw	a6,a6,0x4
 c002c0c:	010e8e3b          	addw	t3,t4,a6
 c002c10:	5d14                	lw	a3,56(a0)
 c002c12:	7c0e3e0b          	extu	t3,t3,31,0
 c002c16:	03c89e0b          	addsl	t3,a7,t3,1
 c002c1a:	01000737          	lui	a4,0x1000
 c002c1e:	5d5c                	lw	a5,60(a0)
 c002c20:	e00e5f83          	lhu	t6,-512(t3)
 c002c24:	832a                	mv	t1,a0
 c002c26:	962e                	add	a2,a2,a1
 c002c28:	00e6fd63          	bgeu	a3,a4,c002c42 <LzmaDec_TryDummy+0x56>
 c002c2c:	4501                	li	a0,0
 c002c2e:	0cc5f663          	bgeu	a1,a2,c002cfa <LzmaDec_TryDummy+0x10e>
 c002c32:	0087971b          	slliw	a4,a5,0x8
 c002c36:	9815c78b          	lbuia	a5,(a1),1,0
 c002c3a:	0086969b          	slliw	a3,a3,0x8
 c002c3e:	8fd9                	or	a5,a5,a4
 c002c40:	2781                	sext.w	a5,a5
 c002c42:	00b6d71b          	srliw	a4,a3,0xb
 c002c46:	03f7073b          	mulw	a4,a4,t6
 c002c4a:	14e7f163          	bgeu	a5,a4,c002d8c <LzmaDec_TryDummy+0x1a0>
 c002c4e:	04033683          	ld	a3,64(t1)
 c002c52:	28088893          	addi	a7,a7,640
 c002c56:	caa1                	beqz	a3,c002ca6 <LzmaDec_TryDummy+0xba>
 c002c58:	00134683          	lbu	a3,1(t1)
 c002c5c:	4805                	li	a6,1
 c002c5e:	00034e03          	lbu	t3,0(t1)
 c002c62:	00d8183b          	sllw	a6,a6,a3
 c002c66:	387d                	addiw	a6,a6,-1
 c002c68:	010f76b3          	and	a3,t5,a6
 c002c6c:	01c6983b          	sllw	a6,a3,t3
 c002c70:	02833683          	ld	a3,40(t1)
 c002c74:	01833f03          	ld	t5,24(t1)
 c002c78:	fff68513          	addi	a0,a3,-1 # ffffff <__BSS_SIZE__+0xffaf8f>
 c002c7c:	e681                	bnez	a3,c002c84 <LzmaDec_TryDummy+0x98>
 c002c7e:	02033503          	ld	a0,32(t1)
 c002c82:	157d                	addi	a0,a0,-1
 c002c84:	80af468b          	lrbu	a3,t5,a0,0
 c002c88:	4521                	li	a0,8
 c002c8a:	41c5053b          	subw	a0,a0,t3
 c002c8e:	40a6d6bb          	sraw	a3,a3,a0
 c002c92:	010686bb          	addw	a3,a3,a6
 c002c96:	30000513          	li	a0,768
 c002c9a:	02a686bb          	mulw	a3,a3,a0
 c002c9e:	7c06b68b          	extu	a3,a3,31,0
 c002ca2:	02d8988b          	addsl	a7,a7,a3,1
 c002ca6:	4699                	li	a3,6
 c002ca8:	05d6ec63          	bltu	a3,t4,c002d00 <LzmaDec_TryDummy+0x114>
 c002cac:	4685                	li	a3,1
 c002cae:	01000eb7          	lui	t4,0x1000
 c002cb2:	0ff00e13          	li	t3,255
 c002cb6:	b2d8c80b          	lurhu	a6,a7,a3,1
 c002cba:	01d77c63          	bgeu	a4,t4,c002cd2 <LzmaDec_TryDummy+0xe6>
 c002cbe:	2ec5fa63          	bgeu	a1,a2,c002fb2 <LzmaDec_TryDummy+0x3c6>
 c002cc2:	0087951b          	slliw	a0,a5,0x8
 c002cc6:	9815c78b          	lbuia	a5,(a1),1,0
 c002cca:	0087171b          	slliw	a4,a4,0x8
 c002cce:	8fc9                	or	a5,a5,a0
 c002cd0:	2781                	sext.w	a5,a5
 c002cd2:	00b7551b          	srliw	a0,a4,0xb
 c002cd6:	0305083b          	mulw	a6,a0,a6
 c002cda:	0016969b          	slliw	a3,a3,0x1
 c002cde:	0107ef63          	bltu	a5,a6,c002cfc <LzmaDec_TryDummy+0x110>
 c002ce2:	4107073b          	subw	a4,a4,a6
 c002ce6:	410787bb          	subw	a5,a5,a6
 c002cea:	2685                	addiw	a3,a3,1
 c002cec:	fcde75e3          	bgeu	t3,a3,c002cb6 <LzmaDec_TryDummy+0xca>
 c002cf0:	4505                	li	a0,1
 c002cf2:	010007b7          	lui	a5,0x1000
 c002cf6:	2af76c63          	bltu	a4,a5,c002fae <LzmaDec_TryDummy+0x3c2>
 c002cfa:	8082                	ret
 c002cfc:	8742                	mv	a4,a6
 c002cfe:	b7fd                	j	c002cec <LzmaDec_TryDummy+0x100>
 c002d00:	02833e03          	ld	t3,40(t1)
 c002d04:	04836803          	lwu	a6,72(t1)
 c002d08:	01833683          	ld	a3,24(t1)
 c002d0c:	4501                	li	a0,0
 c002d0e:	410e0eb3          	sub	t4,t3,a6
 c002d12:	010e7463          	bgeu	t3,a6,c002d1a <LzmaDec_TryDummy+0x12e>
 c002d16:	02033503          	ld	a0,32(t1)
 c002d1a:	96f6                	add	a3,a3,t4
 c002d1c:	80a6ce0b          	lrbu	t3,a3,a0,0
 c002d20:	010002b7          	lui	t0,0x1000
 c002d24:	4685                	li	a3,1
 c002d26:	10000513          	li	a0,256
 c002d2a:	0ff00f93          	li	t6,255
 c002d2e:	001e181b          	slliw	a6,t3,0x1
 c002d32:	00d5033b          	addw	t1,a0,a3
 c002d36:	8e42                	mv	t3,a6
 c002d38:	01057833          	and	a6,a0,a6
 c002d3c:	00080e9b          	sext.w	t4,a6
 c002d40:	0103083b          	addw	a6,t1,a6
 c002d44:	b308c30b          	lurhu	t1,a7,a6,1
 c002d48:	00577d63          	bgeu	a4,t0,c002d62 <LzmaDec_TryDummy+0x176>
 c002d4c:	26c5f363          	bgeu	a1,a2,c002fb2 <LzmaDec_TryDummy+0x3c6>
 c002d50:	0087981b          	slliw	a6,a5,0x8
 c002d54:	9815c78b          	lbuia	a5,(a1),1,0
 c002d58:	0087171b          	slliw	a4,a4,0x8
 c002d5c:	0107e7b3          	or	a5,a5,a6
 c002d60:	2781                	sext.w	a5,a5
 c002d62:	00b7581b          	srliw	a6,a4,0xb
 c002d66:	02680f3b          	mulw	t5,a6,t1
 c002d6a:	0016969b          	slliw	a3,a3,0x1
 c002d6e:	01e7f863          	bgeu	a5,t5,c002d7e <LzmaDec_TryDummy+0x192>
 c002d72:	01d54533          	xor	a0,a0,t4
 c002d76:	877a                	mv	a4,t5
 c002d78:	fadffbe3          	bgeu	t6,a3,c002d2e <LzmaDec_TryDummy+0x142>
 c002d7c:	bf95                	j	c002cf0 <LzmaDec_TryDummy+0x104>
 c002d7e:	41e7073b          	subw	a4,a4,t5
 c002d82:	41e787bb          	subw	a5,a5,t5
 c002d86:	2685                	addiw	a3,a3,1
 c002d88:	8576                	mv	a0,t4
 c002d8a:	b7fd                	j	c002d78 <LzmaDec_TryDummy+0x18c>
 c002d8c:	7c0eb50b          	extu	a0,t4,31,0
 c002d90:	0541                	addi	a0,a0,16
 c002d92:	a2a8cf0b          	lrhu	t5,a7,a0,1
 c002d96:	00151e93          	slli	t4,a0,0x1
 c002d9a:	40e6833b          	subw	t1,a3,a4
 c002d9e:	01000537          	lui	a0,0x1000
 c002da2:	9f99                	subw	a5,a5,a4
 c002da4:	00a37d63          	bgeu	t1,a0,c002dbe <LzmaDec_TryDummy+0x1d2>
 c002da8:	4501                	li	a0,0
 c002daa:	f4c5f8e3          	bgeu	a1,a2,c002cfa <LzmaDec_TryDummy+0x10e>
 c002dae:	9815c70b          	lbuia	a4,(a1),1,0
 c002db2:	0087979b          	slliw	a5,a5,0x8
 c002db6:	0083131b          	slliw	t1,t1,0x8
 c002dba:	8fd9                	or	a5,a5,a4
 c002dbc:	2781                	sext.w	a5,a5
 c002dbe:	00b3571b          	srliw	a4,t1,0xb
 c002dc2:	03e706bb          	mulw	a3,a4,t5
 c002dc6:	16d7f763          	bgeu	a5,a3,c002f34 <LzmaDec_TryDummy+0x348>
 c002dca:	a0088313          	addi	t1,a7,-1536
 c002dce:	4509                	li	a0,2
 c002dd0:	4f01                	li	t5,0
 c002dd2:	01000e37          	lui	t3,0x1000
 c002dd6:	00035703          	lhu	a4,0(t1)
 c002dda:	01c6fd63          	bgeu	a3,t3,c002df4 <LzmaDec_TryDummy+0x208>
 c002dde:	1cc5fa63          	bgeu	a1,a2,c002fb2 <LzmaDec_TryDummy+0x3c6>
 c002de2:	00879e1b          	slliw	t3,a5,0x8
 c002de6:	9815c78b          	lbuia	a5,(a1),1,0
 c002dea:	0086969b          	slliw	a3,a3,0x8
 c002dee:	01c7e7b3          	or	a5,a5,t3
 c002df2:	2781                	sext.w	a5,a5
 c002df4:	00b6de1b          	srliw	t3,a3,0xb
 c002df8:	02ee073b          	mulw	a4,t3,a4
 c002dfc:	24e7f463          	bgeu	a5,a4,c003044 <LzmaDec_TryDummy+0x458>
 c002e00:	7c08380b          	extu	a6,a6,31,0
 c002e04:	0303130b          	addsl	t1,t1,a6,1
 c002e08:	4801                	li	a6,0
 c002e0a:	46a1                	li	a3,8
 c002e0c:	4e05                	li	t3,1
 c002e0e:	010003b7          	lui	t2,0x1000
 c002e12:	b3c34f8b          	lurhu	t6,t1,t3,1
 c002e16:	00777d63          	bgeu	a4,t2,c002e30 <LzmaDec_TryDummy+0x244>
 c002e1a:	18c5fc63          	bgeu	a1,a2,c002fb2 <LzmaDec_TryDummy+0x3c6>
 c002e1e:	00879e9b          	slliw	t4,a5,0x8
 c002e22:	9815c78b          	lbuia	a5,(a1),1,0
 c002e26:	0087171b          	slliw	a4,a4,0x8
 c002e2a:	01d7e7b3          	or	a5,a5,t4
 c002e2e:	2781                	sext.w	a5,a5
 c002e30:	00b75e9b          	srliw	t4,a4,0xb
 c002e34:	03fe8fbb          	mulw	t6,t4,t6
 c002e38:	001e1e1b          	slliw	t3,t3,0x1
 c002e3c:	25f7ef63          	bltu	a5,t6,c00309a <LzmaDec_TryDummy+0x4ae>
 c002e40:	41f7073b          	subw	a4,a4,t6
 c002e44:	41f787bb          	subw	a5,a5,t6
 c002e48:	2e05                	addiw	t3,t3,1
 c002e4a:	fcde64e3          	bltu	t3,a3,c002e12 <LzmaDec_TryDummy+0x226>
 c002e4e:	430d                	li	t1,3
 c002e50:	ebe361e3          	bltu	t1,t5,c002cf2 <LzmaDec_TryDummy+0x106>
 c002e54:	40d806bb          	subw	a3,a6,a3
 c002e58:	01c6883b          	addw	a6,a3,t3
 c002e5c:	86c2                	mv	a3,a6
 c002e5e:	01037363          	bgeu	t1,a6,c002e64 <LzmaDec_TryDummy+0x278>
 c002e62:	468d                	li	a3,3
 c002e64:	0066981b          	slliw	a6,a3,0x6
 c002e68:	0408081b          	addiw	a6,a6,64
 c002e6c:	7c08380b          	extu	a6,a6,31,0
 c002e70:	4685                	li	a3,1
 c002e72:	01000fb7          	lui	t6,0x1000
 c002e76:	03f00f13          	li	t5,63
 c002e7a:	7c06b30b          	extu	t1,a3,31,0
 c002e7e:	9342                	add	t1,t1,a6
 c002e80:	a268ce0b          	lrhu	t3,a7,t1,1
 c002e84:	01f77d63          	bgeu	a4,t6,c002e9e <LzmaDec_TryDummy+0x2b2>
 c002e88:	12c5f563          	bgeu	a1,a2,c002fb2 <LzmaDec_TryDummy+0x3c6>
 c002e8c:	0087931b          	slliw	t1,a5,0x8
 c002e90:	9815c78b          	lbuia	a5,(a1),1,0
 c002e94:	0087171b          	slliw	a4,a4,0x8
 c002e98:	0067e7b3          	or	a5,a5,t1
 c002e9c:	2781                	sext.w	a5,a5
 c002e9e:	00b7531b          	srliw	t1,a4,0xb
 c002ea2:	03c30e3b          	mulw	t3,t1,t3
 c002ea6:	0016969b          	slliw	a3,a3,0x1
 c002eaa:	1fc7ea63          	bltu	a5,t3,c00309e <LzmaDec_TryDummy+0x4b2>
 c002eae:	41c7073b          	subw	a4,a4,t3
 c002eb2:	41c787bb          	subw	a5,a5,t3
 c002eb6:	2685                	addiw	a3,a3,1
 c002eb8:	fcdf71e3          	bgeu	t5,a3,c002e7a <LzmaDec_TryDummy+0x28e>
 c002ebc:	fc06869b          	addiw	a3,a3,-64
 c002ec0:	8336                	mv	t1,a3
 c002ec2:	480d                	li	a6,3
 c002ec4:	e26877e3          	bgeu	a6,t1,c002cf2 <LzmaDec_TryDummy+0x106>
 c002ec8:	4e35                	li	t3,13
 c002eca:	0016d81b          	srliw	a6,a3,0x1
 c002ece:	1c6e6a63          	bltu	t3,t1,c0030a2 <LzmaDec_TryDummy+0x4b6>
 c002ed2:	8a85                	andi	a3,a3,1
 c002ed4:	387d                	addiw	a6,a6,-1
 c002ed6:	0026e693          	ori	a3,a3,2
 c002eda:	010696bb          	sllw	a3,a3,a6
 c002ede:	737d                	lui	t1,0xfffff
 c002ee0:	7c06b68b          	extu	a3,a3,31,0
 c002ee4:	30030313          	addi	t1,t1,768 # fffffffffffff300 <__BL2_END__+0xfffffffff3ff0090>
 c002ee8:	02d3168b          	addsl	a3,t1,a3,1
 c002eec:	98b6                	add	a7,a7,a3
 c002eee:	4e05                	li	t3,1
 c002ef0:	4685                	li	a3,1
 c002ef2:	010002b7          	lui	t0,0x1000
 c002ef6:	b2d8ce8b          	lurhu	t4,a7,a3,1
 c002efa:	00577d63          	bgeu	a4,t0,c002f14 <LzmaDec_TryDummy+0x328>
 c002efe:	0ac5fa63          	bgeu	a1,a2,c002fb2 <LzmaDec_TryDummy+0x3c6>
 c002f02:	0087931b          	slliw	t1,a5,0x8
 c002f06:	9815c78b          	lbuia	a5,(a1),1,0
 c002f0a:	0087171b          	slliw	a4,a4,0x8
 c002f0e:	0067e7b3          	or	a5,a5,t1
 c002f12:	2781                	sext.w	a5,a5
 c002f14:	00b7531b          	srliw	t1,a4,0xb
 c002f18:	03d30f3b          	mulw	t5,t1,t4
 c002f1c:	001e1f9b          	slliw	t6,t3,0x1
 c002f20:	1de7f063          	bgeu	a5,t5,c0030e0 <LzmaDec_TryDummy+0x4f4>
 c002f24:	01c686bb          	addw	a3,a3,t3
 c002f28:	877a                	mv	a4,t5
 c002f2a:	387d                	addiw	a6,a6,-1
 c002f2c:	dc0803e3          	beqz	a6,c002cf2 <LzmaDec_TryDummy+0x106>
 c002f30:	8e7e                	mv	t3,t6
 c002f32:	b7d1                	j	c002ef6 <LzmaDec_TryDummy+0x30a>
 c002f34:	40d3053b          	subw	a0,t1,a3
 c002f38:	9ec6                	add	t4,t4,a7
 c002f3a:	01000f37          	lui	t5,0x1000
 c002f3e:	40d7873b          	subw	a4,a5,a3
 c002f42:	832a                	mv	t1,a0
 c002f44:	018ed683          	lhu	a3,24(t4) # 1000018 <__BSS_SIZE__+0xffafa8>
 c002f48:	01e57e63          	bgeu	a0,t5,c002f64 <LzmaDec_TryDummy+0x378>
 c002f4c:	4501                	li	a0,0
 c002f4e:	dac5f6e3          	bgeu	a1,a2,c002cfa <LzmaDec_TryDummy+0x10e>
 c002f52:	0087179b          	slliw	a5,a4,0x8
 c002f56:	9815c70b          	lbuia	a4,(a1),1,0
 c002f5a:	0083151b          	slliw	a0,t1,0x8
 c002f5e:	8fd9                	or	a5,a5,a4
 c002f60:	0007871b          	sext.w	a4,a5
 c002f64:	00b5531b          	srliw	t1,a0,0xb
 c002f68:	02d306bb          	mulw	a3,t1,a3
 c002f6c:	8336                	mv	t1,a3
 c002f6e:	04d77f63          	bgeu	a4,a3,c002fcc <LzmaDec_TryDummy+0x3e0>
 c002f72:	800e0e13          	addi	t3,t3,-2048 # fff800 <__BSS_SIZE__+0xffa790>
 c002f76:	010007b7          	lui	a5,0x1000
 c002f7a:	c00e5e03          	lhu	t3,-1024(t3)
 c002f7e:	00f6fd63          	bgeu	a3,a5,c002f98 <LzmaDec_TryDummy+0x3ac>
 c002f82:	4501                	li	a0,0
 c002f84:	d6c5fbe3          	bgeu	a1,a2,c002cfa <LzmaDec_TryDummy+0x10e>
 c002f88:	0087179b          	slliw	a5,a4,0x8
 c002f8c:	9815c70b          	lbuia	a4,(a1),1,0
 c002f90:	0086969b          	slliw	a3,a3,0x8
 c002f94:	8f5d                	or	a4,a4,a5
 c002f96:	2701                	sext.w	a4,a4
 c002f98:	00b6d79b          	srliw	a5,a3,0xb
 c002f9c:	03c7833b          	mulw	t1,a5,t3
 c002fa0:	00677b63          	bgeu	a4,t1,c002fb6 <LzmaDec_TryDummy+0x3ca>
 c002fa4:	010007b7          	lui	a5,0x1000
 c002fa8:	450d                	li	a0,3
 c002faa:	d4f378e3          	bgeu	t1,a5,c002cfa <LzmaDec_TryDummy+0x10e>
 c002fae:	d4c5e6e3          	bltu	a1,a2,c002cfa <LzmaDec_TryDummy+0x10e>
 c002fb2:	4501                	li	a0,0
 c002fb4:	b399                	j	c002cfa <LzmaDec_TryDummy+0x10e>
 c002fb6:	406686bb          	subw	a3,a3,t1
 c002fba:	406707bb          	subw	a5,a4,t1
 c002fbe:	737d                	lui	t1,0xfffff
 c002fc0:	60030313          	addi	t1,t1,1536 # fffffffffffff600 <__BL2_END__+0xfffffffff3ff0390>
 c002fc4:	9346                	add	t1,t1,a7
 c002fc6:	450d                	li	a0,3
 c002fc8:	4f31                	li	t5,12
 c002fca:	b521                	j	c002dd2 <LzmaDec_TryDummy+0x1e6>
 c002fcc:	9d15                	subw	a0,a0,a3
 c002fce:	01000e37          	lui	t3,0x1000
 c002fd2:	406707bb          	subw	a5,a4,t1
 c002fd6:	86aa                	mv	a3,a0
 c002fd8:	030ed303          	lhu	t1,48(t4)
 c002fdc:	01c57e63          	bgeu	a0,t3,c002ff8 <LzmaDec_TryDummy+0x40c>
 c002fe0:	4501                	li	a0,0
 c002fe2:	d0c5fce3          	bgeu	a1,a2,c002cfa <LzmaDec_TryDummy+0x10e>
 c002fe6:	0087971b          	slliw	a4,a5,0x8
 c002fea:	9815c78b          	lbuia	a5,(a1),1,0
 c002fee:	0086951b          	slliw	a0,a3,0x8
 c002ff2:	8f5d                	or	a4,a4,a5
 c002ff4:	0007079b          	sext.w	a5,a4
 c002ff8:	00b5571b          	srliw	a4,a0,0xb
 c002ffc:	026706bb          	mulw	a3,a4,t1
 c003000:	8736                	mv	a4,a3
 c003002:	fad7eee3          	bltu	a5,a3,c002fbe <LzmaDec_TryDummy+0x3d2>
 c003006:	9d15                	subw	a0,a0,a3
 c003008:	01000e37          	lui	t3,0x1000
 c00300c:	048ed303          	lhu	t1,72(t4)
 c003010:	86aa                	mv	a3,a0
 c003012:	9f99                	subw	a5,a5,a4
 c003014:	01c57e63          	bgeu	a0,t3,c003030 <LzmaDec_TryDummy+0x444>
 c003018:	4501                	li	a0,0
 c00301a:	cec5f0e3          	bgeu	a1,a2,c002cfa <LzmaDec_TryDummy+0x10e>
 c00301e:	0087971b          	slliw	a4,a5,0x8
 c003022:	9815c78b          	lbuia	a5,(a1),1,0
 c003026:	0086951b          	slliw	a0,a3,0x8
 c00302a:	8f5d                	or	a4,a4,a5
 c00302c:	0007079b          	sext.w	a5,a4
 c003030:	00b5571b          	srliw	a4,a0,0xb
 c003034:	026706bb          	mulw	a3,a4,t1
 c003038:	f8d7e3e3          	bltu	a5,a3,c002fbe <LzmaDec_TryDummy+0x3d2>
 c00303c:	9f95                	subw	a5,a5,a3
 c00303e:	40d506bb          	subw	a3,a0,a3
 c003042:	bfb5                	j	c002fbe <LzmaDec_TryDummy+0x3d2>
 c003044:	40e68ebb          	subw	t4,a3,a4
 c003048:	01000fb7          	lui	t6,0x1000
 c00304c:	9f99                	subw	a5,a5,a4
 c00304e:	01035703          	lhu	a4,16(t1)
 c003052:	01fefe63          	bgeu	t4,t6,c00306e <LzmaDec_TryDummy+0x482>
 c003056:	f4c5fee3          	bgeu	a1,a2,c002fb2 <LzmaDec_TryDummy+0x3c6>
 c00305a:	00879e1b          	slliw	t3,a5,0x8
 c00305e:	9815c78b          	lbuia	a5,(a1),1,0
 c003062:	008e9e9b          	slliw	t4,t4,0x8
 c003066:	01c7ee33          	or	t3,a5,t3
 c00306a:	000e079b          	sext.w	a5,t3
 c00306e:	00bed69b          	srliw	a3,t4,0xb
 c003072:	02e6873b          	mulw	a4,a3,a4
 c003076:	00e7f963          	bgeu	a5,a4,c003088 <LzmaDec_TryDummy+0x49c>
 c00307a:	7c08368b          	extu	a3,a6,31,0
 c00307e:	06a1                	addi	a3,a3,8
 c003080:	02d3130b          	addsl	t1,t1,a3,1
 c003084:	4821                	li	a6,8
 c003086:	b351                	j	c002e0a <LzmaDec_TryDummy+0x21e>
 c003088:	9f99                	subw	a5,a5,a4
 c00308a:	20030313          	addi	t1,t1,512
 c00308e:	40ee873b          	subw	a4,t4,a4
 c003092:	4841                	li	a6,16
 c003094:	10000693          	li	a3,256
 c003098:	bb95                	j	c002e0c <LzmaDec_TryDummy+0x220>
 c00309a:	877e                	mv	a4,t6
 c00309c:	b37d                	j	c002e4a <LzmaDec_TryDummy+0x25e>
 c00309e:	8772                	mv	a4,t3
 c0030a0:	bd21                	j	c002eb8 <LzmaDec_TryDummy+0x2cc>
 c0030a2:	386d                	addiw	a6,a6,-5
 c0030a4:	01000e37          	lui	t3,0x1000
 c0030a8:	01c77c63          	bgeu	a4,t3,c0030c0 <LzmaDec_TryDummy+0x4d4>
 c0030ac:	f0c5f3e3          	bgeu	a1,a2,c002fb2 <LzmaDec_TryDummy+0x3c6>
 c0030b0:	0087969b          	slliw	a3,a5,0x8
 c0030b4:	9815c78b          	lbuia	a5,(a1),1,0
 c0030b8:	0087171b          	slliw	a4,a4,0x8
 c0030bc:	8fd5                	or	a5,a5,a3
 c0030be:	2781                	sext.w	a5,a5
 c0030c0:	0017531b          	srliw	t1,a4,0x1
 c0030c4:	406786bb          	subw	a3,a5,t1
 c0030c8:	01f6d69b          	srliw	a3,a3,0x1f
 c0030cc:	36fd                	addiw	a3,a3,-1
 c0030ce:	0066f6b3          	and	a3,a3,t1
 c0030d2:	387d                	addiw	a6,a6,-1
 c0030d4:	871a                	mv	a4,t1
 c0030d6:	9f95                	subw	a5,a5,a3
 c0030d8:	fc0818e3          	bnez	a6,c0030a8 <LzmaDec_TryDummy+0x4bc>
 c0030dc:	4811                	li	a6,4
 c0030de:	bd01                	j	c002eee <LzmaDec_TryDummy+0x302>
 c0030e0:	41e7073b          	subw	a4,a4,t5
 c0030e4:	41e787bb          	subw	a5,a5,t5
 c0030e8:	00df86bb          	addw	a3,t6,a3
 c0030ec:	bd3d                	j	c002f2a <LzmaDec_TryDummy+0x33e>

000000000c0030ee <LzmaDec_Init>:
 c0030ee:	11400793          	li	a5,276
 c0030f2:	02053423          	sd	zero,40(a0) # 1000028 <__BSS_SIZE__+0xffafb8>
 c0030f6:	06052223          	sw	zero,100(a0)
 c0030fa:	04053023          	sd	zero,64(a0)
 c0030fe:	cd7c                	sw	a5,92(a0)
 c003100:	8082                	ret

000000000c003102 <LzmaDec_DecodeToDic>:
 c003102:	7175                	addi	sp,sp,-144
 c003104:	e122                	sd	s0,128(sp)
 c003106:	f8ca                	sd	s2,112(sp)
 c003108:	f4ce                	sd	s3,104(sp)
 c00310a:	f0d2                	sd	s4,96(sp)
 c00310c:	f86a                	sd	s10,48(sp)
 c00310e:	f46e                	sd	s11,40(sp)
 c003110:	e506                	sd	ra,136(sp)
 c003112:	fca6                	sd	s1,120(sp)
 c003114:	ecd6                	sd	s5,88(sp)
 c003116:	e8da                	sd	s6,80(sp)
 c003118:	e4de                	sd	s7,72(sp)
 c00311a:	e0e2                	sd	s8,64(sp)
 c00311c:	fc66                	sd	s9,56(sp)
 c00311e:	0006bd83          	ld	s11,0(a3)
 c003122:	0006b023          	sd	zero,0(a3)
 c003126:	0007a023          	sw	zero,0(a5) # 1000000 <__BSS_SIZE__+0xffaf90>
 c00312a:	e43a                	sd	a4,8(sp)
 c00312c:	4d78                	lw	a4,92(a0)
 c00312e:	89be                	mv	s3,a5
 c003130:	11200793          	li	a5,274
 c003134:	8932                	mv	s2,a2
 c003136:	842a                	mv	s0,a0
 c003138:	8a2e                	mv	s4,a1
 c00313a:	8d36                	mv	s10,a3
 c00313c:	4611                	li	a2,4
 c00313e:	04e7e263          	bltu	a5,a4,c003182 <LzmaDec_DecodeToDic+0x80>
 c003142:	85d2                	mv	a1,s4
 c003144:	8522                	mv	a0,s0
 c003146:	e8efe0ef          	jal	ra,c0017d4 <LzmaDec_WriteRem>
 c00314a:	4b4d                	li	s6,19
 c00314c:	06840a93          	addi	s5,s0,104 # 1068 <__BSS_SIZE__-0x4008>
 c003150:	4c7c                	lw	a5,92(s0)
 c003152:	11200713          	li	a4,274
 c003156:	0ce79663          	bne	a5,a4,c003222 <LzmaDec_DecodeToDic+0x120>
 c00315a:	5c5c                	lw	a5,60(s0)
 c00315c:	eb9d                	bnez	a5,c003192 <LzmaDec_DecodeToDic+0x90>
 c00315e:	4785                	li	a5,1
 c003160:	a8a1                	j	c0031b8 <LzmaDec_DecodeToDic+0xb6>
 c003162:	0017859b          	addiw	a1,a5,1
 c003166:	d06c                	sw	a1,100(s0)
 c003168:	9819458b          	lbuia	a1,(s2),1,0
 c00316c:	7c07b78b          	extu	a5,a5,31,0
 c003170:	97a2                	add	a5,a5,s0
 c003172:	06b78423          	sb	a1,104(a5)
 c003176:	000d3783          	ld	a5,0(s10)
 c00317a:	1dfd                	addi	s11,s11,-1
 c00317c:	0785                	addi	a5,a5,1
 c00317e:	00fd3023          	sd	a5,0(s10)
 c003182:	507c                	lw	a5,100(s0)
 c003184:	020d8863          	beqz	s11,c0031b4 <LzmaDec_DecodeToDic+0xb2>
 c003188:	fcf67de3          	bgeu	a2,a5,c003162 <LzmaDec_DecodeToDic+0x60>
 c00318c:	06844603          	lbu	a2,104(s0)
 c003190:	ca05                	beqz	a2,c0031c0 <LzmaDec_DecodeToDic+0xbe>
 c003192:	4485                	li	s1,1
 c003194:	60aa                	ld	ra,136(sp)
 c003196:	640a                	ld	s0,128(sp)
 c003198:	7946                	ld	s2,112(sp)
 c00319a:	79a6                	ld	s3,104(sp)
 c00319c:	7a06                	ld	s4,96(sp)
 c00319e:	6ae6                	ld	s5,88(sp)
 c0031a0:	6b46                	ld	s6,80(sp)
 c0031a2:	6ba6                	ld	s7,72(sp)
 c0031a4:	6c06                	ld	s8,64(sp)
 c0031a6:	7ce2                	ld	s9,56(sp)
 c0031a8:	7d42                	ld	s10,48(sp)
 c0031aa:	7da2                	ld	s11,40(sp)
 c0031ac:	8526                	mv	a0,s1
 c0031ae:	74e6                	ld	s1,120(sp)
 c0031b0:	6149                	addi	sp,sp,144
 c0031b2:	8082                	ret
 c0031b4:	ffe1                	bnez	a5,c00318c <LzmaDec_DecodeToDic+0x8a>
 c0031b6:	478d                	li	a5,3
 c0031b8:	00f9a023          	sw	a5,0(s3)
 c0031bc:	4481                	li	s1,0
 c0031be:	bfd9                	j	c003194 <LzmaDec_DecodeToDic+0x92>
 c0031c0:	4611                	li	a2,4
 c0031c2:	fef67ae3          	bgeu	a2,a5,c0031b6 <LzmaDec_DecodeToDic+0xb4>
 c0031c6:	06942783          	lw	a5,105(s0)
 c0031ca:	06042223          	sw	zero,100(s0)
 c0031ce:	9007978b          	revw	a5,a5
 c0031d2:	dc5c                	sw	a5,60(s0)
 c0031d4:	57fd                	li	a5,-1
 c0031d6:	dc1c                	sw	a5,56(s0)
 c0031d8:	11300793          	li	a5,275
 c0031dc:	02f70c63          	beq	a4,a5,c003214 <LzmaDec_DecodeToDic+0x112>
 c0031e0:	00044783          	lbu	a5,0(s0)
 c0031e4:	00144703          	lbu	a4,1(s0)
 c0031e8:	6410                	ld	a2,8(s0)
 c0031ea:	40000593          	li	a1,1024
 c0031ee:	9f3d                	addw	a4,a4,a5
 c0031f0:	30000793          	li	a5,768
 c0031f4:	00e797bb          	sllw	a5,a5,a4
 c0031f8:	7c07879b          	addiw	a5,a5,1984
 c0031fc:	7c07b78b          	extu	a5,a5,31,0
 c003200:	4701                	li	a4,0
 c003202:	00f76c63          	bltu	a4,a5,c00321a <LzmaDec_DecodeToDic+0x118>
 c003206:	4785                	li	a5,1
 c003208:	1782                	slli	a5,a5,0x20
 c00320a:	0785                	addi	a5,a5,1
 c00320c:	e43c                	sd	a5,72(s0)
 c00320e:	e83c                	sd	a5,80(s0)
 c003210:	04042c23          	sw	zero,88(s0)
 c003214:	04042e23          	sw	zero,92(s0)
 c003218:	b72d                	j	c003142 <LzmaDec_DecodeToDic+0x40>
 c00321a:	22e6558b          	srh	a1,a2,a4,1
 c00321e:	0705                	addi	a4,a4,1
 c003220:	b7cd                	j	c003202 <LzmaDec_DecodeToDic+0x100>
 c003222:	7418                	ld	a4,40(s0)
 c003224:	01476b63          	bltu	a4,s4,c00323a <LzmaDec_DecodeToDic+0x138>
 c003228:	12079f63          	bnez	a5,c003366 <LzmaDec_DecodeToDic+0x264>
 c00322c:	5c5c                	lw	a5,60(s0)
 c00322e:	14079363          	bnez	a5,c003374 <LzmaDec_DecodeToDic+0x272>
 c003232:	4791                	li	a5,4
 c003234:	b751                	j	c0031b8 <LzmaDec_DecodeToDic+0xb6>
 c003236:	4789                	li	a5,2
 c003238:	b741                	j	c0031b8 <LzmaDec_DecodeToDic+0xb6>
 c00323a:	4c81                	li	s9,0
 c00323c:	06442b83          	lw	s7,100(s0)
 c003240:	0c0b9263          	bnez	s7,c003304 <LzmaDec_DecodeToDic+0x202>
 c003244:	01bb7463          	bgeu	s6,s11,c00324c <LzmaDec_DecodeToDic+0x14a>
 c003248:	040c8263          	beqz	s9,c00328c <LzmaDec_DecodeToDic+0x18a>
 c00324c:	866e                	mv	a2,s11
 c00324e:	85ca                	mv	a1,s2
 c003250:	8522                	mv	a0,s0
 c003252:	99bff0ef          	jal	ra,c002bec <LzmaDec_TryDummy>
 c003256:	0005049b          	sext.w	s1,a0
 c00325a:	e095                	bnez	s1,c00327e <LzmaDec_DecodeToDic+0x17c>
 c00325c:	866e                	mv	a2,s11
 c00325e:	85ca                	mv	a1,s2
 c003260:	06840513          	addi	a0,s0,104
 c003264:	a65fd0ef          	jal	ra,c000cc8 <memcpy>
 c003268:	000d3783          	ld	a5,0(s10)
 c00326c:	07b42223          	sw	s11,100(s0)
 c003270:	9dbe                	add	s11,s11,a5
 c003272:	01bd3023          	sd	s11,0(s10)
 c003276:	478d                	li	a5,3
 c003278:	00f9a023          	sw	a5,0(s3)
 c00327c:	bf21                	j	c003194 <LzmaDec_DecodeToDic+0x92>
 c00327e:	000c8563          	beqz	s9,c003288 <LzmaDec_DecodeToDic+0x186>
 c003282:	4789                	li	a5,2
 c003284:	0ef49463          	bne	s1,a5,c00336c <LzmaDec_DecodeToDic+0x26a>
 c003288:	864a                	mv	a2,s2
 c00328a:	a021                	j	c003292 <LzmaDec_DecodeToDic+0x190>
 c00328c:	fecd8613          	addi	a2,s11,-20
 c003290:	964a                	add	a2,a2,s2
 c003292:	03243823          	sd	s2,48(s0)
 c003296:	85d2                	mv	a1,s4
 c003298:	8522                	mv	a0,s0
 c00329a:	dacfe0ef          	jal	ra,c001846 <LzmaDec_DecodeReal2>
 c00329e:	ee051ae3          	bnez	a0,c003192 <LzmaDec_DecodeToDic+0x90>
 c0032a2:	7818                	ld	a4,48(s0)
 c0032a4:	000d3783          	ld	a5,0(s10)
 c0032a8:	41270933          	sub	s2,a4,s2
 c0032ac:	97ca                	add	a5,a5,s2
 c0032ae:	00fd3023          	sd	a5,0(s10)
 c0032b2:	412d8db3          	sub	s11,s11,s2
 c0032b6:	893a                	mv	s2,a4
 c0032b8:	bd61                	j	c003150 <LzmaDec_DecodeToDic+0x4e>
 c0032ba:	8109478b          	lrbu	a5,s2,a6,0
 c0032be:	0106578b          	srb	a5,a2,a6,0
 c0032c2:	0805                	addi	a6,a6,1
 c0032c4:	0008079b          	sext.w	a5,a6
 c0032c8:	e83e                	sd	a5,16(sp)
 c0032ca:	01780c3b          	addw	s8,a6,s7
 c0032ce:	018b6463          	bltu	s6,s8,c0032d6 <LzmaDec_DecodeToDic+0x1d4>
 c0032d2:	ffb814e3          	bne	a6,s11,c0032ba <LzmaDec_DecodeToDic+0x1b8>
 c0032d6:	07842223          	sw	s8,100(s0)
 c0032da:	018b7463          	bgeu	s6,s8,c0032e2 <LzmaDec_DecodeToDic+0x1e0>
 c0032de:	020c8f63          	beqz	s9,c00331c <LzmaDec_DecodeToDic+0x21a>
 c0032e2:	7c0c360b          	extu	a2,s8,31,0
 c0032e6:	85d6                	mv	a1,s5
 c0032e8:	8522                	mv	a0,s0
 c0032ea:	ec42                	sd	a6,24(sp)
 c0032ec:	901ff0ef          	jal	ra,c002bec <LzmaDec_TryDummy>
 c0032f0:	0005049b          	sext.w	s1,a0
 c0032f4:	6862                	ld	a6,24(sp)
 c0032f6:	ec91                	bnez	s1,c003312 <LzmaDec_DecodeToDic+0x210>
 c0032f8:	000d3783          	ld	a5,0(s10)
 c0032fc:	983e                	add	a6,a6,a5
 c0032fe:	010d3023          	sd	a6,0(s10)
 c003302:	bf95                	j	c003276 <LzmaDec_DecodeToDic+0x174>
 c003304:	7c0bb60b          	extu	a2,s7,31,0
 c003308:	06860613          	addi	a2,a2,104
 c00330c:	4801                	li	a6,0
 c00330e:	9622                	add	a2,a2,s0
 c003310:	bf55                	j	c0032c4 <LzmaDec_DecodeToDic+0x1c2>
 c003312:	000c8563          	beqz	s9,c00331c <LzmaDec_DecodeToDic+0x21a>
 c003316:	4789                	li	a5,2
 c003318:	04f49a63          	bne	s1,a5,c00336c <LzmaDec_DecodeToDic+0x26a>
 c00331c:	03543823          	sd	s5,48(s0)
 c003320:	8656                	mv	a2,s5
 c003322:	85d2                	mv	a1,s4
 c003324:	8522                	mv	a0,s0
 c003326:	d20fe0ef          	jal	ra,c001846 <LzmaDec_DecodeReal2>
 c00332a:	e60514e3          	bnez	a0,c003192 <LzmaDec_DecodeToDic+0x90>
 c00332e:	781c                	ld	a5,48(s0)
 c003330:	415787bb          	subw	a5,a5,s5
 c003334:	02fc6763          	bltu	s8,a5,c003362 <LzmaDec_DecodeToDic+0x260>
 c003338:	66c2                	ld	a3,16(sp)
 c00333a:	40fc073b          	subw	a4,s8,a5
 c00333e:	02e6e263          	bltu	a3,a4,c003362 <LzmaDec_DecodeToDic+0x260>
 c003342:	000d3703          	ld	a4,0(s10)
 c003346:	417787bb          	subw	a5,a5,s7
 c00334a:	7c07b78b          	extu	a5,a5,31,0
 c00334e:	973e                	add	a4,a4,a5
 c003350:	00ed3023          	sd	a4,0(s10)
 c003354:	40fd8db3          	sub	s11,s11,a5
 c003358:	00f90733          	add	a4,s2,a5
 c00335c:	06042223          	sw	zero,100(s0)
 c003360:	bf99                	j	c0032b6 <LzmaDec_DecodeToDic+0x1b4>
 c003362:	44ad                	li	s1,11
 c003364:	bd05                	j	c003194 <LzmaDec_DecodeToDic+0x92>
 c003366:	67a2                	ld	a5,8(sp)
 c003368:	ec0787e3          	beqz	a5,c003236 <LzmaDec_DecodeToDic+0x134>
 c00336c:	4789                	li	a5,2
 c00336e:	00f9a023          	sw	a5,0(s3)
 c003372:	b505                	j	c003192 <LzmaDec_DecodeToDic+0x90>
 c003374:	67a2                	ld	a5,8(sp)
 c003376:	ec0780e3          	beqz	a5,c003236 <LzmaDec_DecodeToDic+0x134>
 c00337a:	4c85                	li	s9,1
 c00337c:	b5c1                	j	c00323c <LzmaDec_DecodeToDic+0x13a>

000000000c00337e <LzmaDec_FreeProbs>:
 c00337e:	1141                	addi	sp,sp,-16
 c003380:	e022                	sd	s0,0(sp)
 c003382:	842a                	mv	s0,a0
 c003384:	659c                	ld	a5,8(a1)
 c003386:	852e                	mv	a0,a1
 c003388:	640c                	ld	a1,8(s0)
 c00338a:	e406                	sd	ra,8(sp)
 c00338c:	9782                	jalr	a5
 c00338e:	60a2                	ld	ra,8(sp)
 c003390:	00043423          	sd	zero,8(s0)
 c003394:	6402                	ld	s0,0(sp)
 c003396:	0141                	addi	sp,sp,16
 c003398:	8082                	ret

000000000c00339a <LzmaDec_AllocateProbs2.isra.0>:
 c00339a:	1101                	addi	sp,sp,-32
 c00339c:	e426                	sd	s1,8(sp)
 c00339e:	9db1                	addw	a1,a1,a2
 c0033a0:	30000493          	li	s1,768
 c0033a4:	6518                	ld	a4,8(a0)
 c0033a6:	00b494bb          	sllw	s1,s1,a1
 c0033aa:	e822                	sd	s0,16(sp)
 c0033ac:	7c04879b          	addiw	a5,s1,1984
 c0033b0:	ec06                	sd	ra,24(sp)
 c0033b2:	e04a                	sd	s2,0(sp)
 c0033b4:	842a                	mv	s0,a0
 c0033b6:	84be                	mv	s1,a5
 c0033b8:	c709                	beqz	a4,c0033c2 <LzmaDec_AllocateProbs2.isra.0+0x28>
 c0033ba:	5138                	lw	a4,96(a0)
 c0033bc:	4501                	li	a0,0
 c0033be:	02f70963          	beq	a4,a5,c0033f0 <LzmaDec_AllocateProbs2.isra.0+0x56>
 c0033c2:	85b6                	mv	a1,a3
 c0033c4:	8522                	mv	a0,s0
 c0033c6:	8936                	mv	s2,a3
 c0033c8:	fb7ff0ef          	jal	ra,c00337e <LzmaDec_FreeProbs>
 c0033cc:	00093783          	ld	a5,0(s2)
 c0033d0:	7c04b58b          	extu	a1,s1,31,0
 c0033d4:	0586                	slli	a1,a1,0x1
 c0033d6:	854a                	mv	a0,s2
 c0033d8:	9782                	jalr	a5
 c0033da:	87aa                	mv	a5,a0
 c0033dc:	e408                	sd	a0,8(s0)
 c0033de:	4509                	li	a0,2
 c0033e0:	cb81                	beqz	a5,c0033f0 <LzmaDec_AllocateProbs2.isra.0+0x56>
 c0033e2:	6505                	lui	a0,0x1
 c0033e4:	d0050513          	addi	a0,a0,-768 # d00 <__BSS_SIZE__-0x4370>
 c0033e8:	97aa                	add	a5,a5,a0
 c0033ea:	e81c                	sd	a5,16(s0)
 c0033ec:	d024                	sw	s1,96(s0)
 c0033ee:	4501                	li	a0,0
 c0033f0:	60e2                	ld	ra,24(sp)
 c0033f2:	6442                	ld	s0,16(sp)
 c0033f4:	64a2                	ld	s1,8(sp)
 c0033f6:	6902                	ld	s2,0(sp)
 c0033f8:	6105                	addi	sp,sp,32
 c0033fa:	8082                	ret

000000000c0033fc <LzmaProps_Decode>:
 c0033fc:	4791                	li	a5,4
 c0033fe:	00c7e463          	bltu	a5,a2,c003406 <LzmaProps_Decode+0xa>
 c003402:	4511                	li	a0,4
 c003404:	8082                	ret
 c003406:	0015a703          	lw	a4,1(a1)
 c00340a:	6685                	lui	a3,0x1
 c00340c:	87ba                	mv	a5,a4
 c00340e:	00d77363          	bgeu	a4,a3,c003414 <LzmaProps_Decode+0x18>
 c003412:	6785                	lui	a5,0x1
 c003414:	c15c                	sw	a5,4(a0)
 c003416:	0005c783          	lbu	a5,0(a1)
 c00341a:	0e000713          	li	a4,224
 c00341e:	fef762e3          	bltu	a4,a5,c003402 <LzmaProps_Decode+0x6>
 c003422:	4725                	li	a4,9
 c003424:	02e7f6bb          	remuw	a3,a5,a4
 c003428:	02e7d7bb          	divuw	a5,a5,a4
 c00342c:	4715                	li	a4,5
 c00342e:	00d50023          	sb	a3,0(a0)
 c003432:	02e7d6bb          	divuw	a3,a5,a4
 c003436:	02e7f7bb          	remuw	a5,a5,a4
 c00343a:	00d50123          	sb	a3,2(a0)
 c00343e:	00f500a3          	sb	a5,1(a0)
 c003442:	4501                	li	a0,0
 c003444:	8082                	ret

000000000c003446 <LzmaDec_AllocateProbs>:
 c003446:	7179                	addi	sp,sp,-48
 c003448:	f022                	sd	s0,32(sp)
 c00344a:	842a                	mv	s0,a0
 c00344c:	0828                	addi	a0,sp,24
 c00344e:	f406                	sd	ra,40(sp)
 c003450:	e436                	sd	a3,8(sp)
 c003452:	fabff0ef          	jal	ra,c0033fc <LzmaProps_Decode>
 c003456:	ed01                	bnez	a0,c00346e <LzmaDec_AllocateProbs+0x28>
 c003458:	66a2                	ld	a3,8(sp)
 c00345a:	01914603          	lbu	a2,25(sp)
 c00345e:	01814583          	lbu	a1,24(sp)
 c003462:	8522                	mv	a0,s0
 c003464:	f37ff0ef          	jal	ra,c00339a <LzmaDec_AllocateProbs2.isra.0>
 c003468:	e119                	bnez	a0,c00346e <LzmaDec_AllocateProbs+0x28>
 c00346a:	67e2                	ld	a5,24(sp)
 c00346c:	e01c                	sd	a5,0(s0)
 c00346e:	70a2                	ld	ra,40(sp)
 c003470:	7402                	ld	s0,32(sp)
 c003472:	6145                	addi	sp,sp,48
 c003474:	8082                	ret

000000000c003476 <LzmaDecode>:
 c003476:	7155                	addi	sp,sp,-208
 c003478:	e1a2                	sd	s0,192(sp)
 c00347a:	f152                	sd	s4,160(sp)
 c00347c:	ed56                	sd	s5,152(sp)
 c00347e:	e586                	sd	ra,200(sp)
 c003480:	fd26                	sd	s1,184(sp)
 c003482:	f94a                	sd	s2,176(sp)
 c003484:	f54e                	sd	s3,168(sp)
 c003486:	e95a                	sd	s6,144(sp)
 c003488:	e55e                	sd	s7,136(sp)
 c00348a:	e162                	sd	s8,128(sp)
 c00348c:	0005ba03          	ld	s4,0(a1)
 c003490:	0006ba83          	ld	s5,0(a3) # 1000 <__BSS_SIZE__-0x4070>
 c003494:	0006b023          	sd	zero,0(a3)
 c003498:	0005b023          	sd	zero,0(a1)
 c00349c:	833a                	mv	t1,a4
 c00349e:	0008a023          	sw	zero,0(a7)
 c0034a2:	4711                	li	a4,4
 c0034a4:	4419                	li	s0,6
 c0034a6:	07577063          	bgeu	a4,s5,c003506 <LzmaDecode+0x90>
 c0034aa:	84b6                	mv	s1,a3
 c0034ac:	66ce                	ld	a3,208(sp)
 c0034ae:	8bb2                	mv	s7,a2
 c0034b0:	8c2e                	mv	s8,a1
 c0034b2:	89aa                	mv	s3,a0
 c0034b4:	863e                	mv	a2,a5
 c0034b6:	859a                	mv	a1,t1
 c0034b8:	850a                	mv	a0,sp
 c0034ba:	8946                	mv	s2,a7
 c0034bc:	8b42                	mv	s6,a6
 c0034be:	ec02                	sd	zero,24(sp)
 c0034c0:	e402                	sd	zero,8(sp)
 c0034c2:	f85ff0ef          	jal	ra,c003446 <LzmaDec_AllocateProbs>
 c0034c6:	842a                	mv	s0,a0
 c0034c8:	ed1d                	bnez	a0,c003506 <LzmaDecode+0x90>
 c0034ca:	850a                	mv	a0,sp
 c0034cc:	ec4e                	sd	s3,24(sp)
 c0034ce:	f052                	sd	s4,32(sp)
 c0034d0:	c1fff0ef          	jal	ra,c0030ee <LzmaDec_Init>
 c0034d4:	87ca                	mv	a5,s2
 c0034d6:	0154b023          	sd	s5,0(s1)
 c0034da:	875a                	mv	a4,s6
 c0034dc:	86a6                	mv	a3,s1
 c0034de:	865e                	mv	a2,s7
 c0034e0:	85d2                	mv	a1,s4
 c0034e2:	850a                	mv	a0,sp
 c0034e4:	c1fff0ef          	jal	ra,c003102 <LzmaDec_DecodeToDic>
 c0034e8:	77a2                	ld	a5,40(sp)
 c0034ea:	842a                	mv	s0,a0
 c0034ec:	00fc3023          	sd	a5,0(s8)
 c0034f0:	e519                	bnez	a0,c0034fe <LzmaDecode+0x88>
 c0034f2:	00092703          	lw	a4,0(s2)
 c0034f6:	478d                	li	a5,3
 c0034f8:	00f71363          	bne	a4,a5,c0034fe <LzmaDecode+0x88>
 c0034fc:	4419                	li	s0,6
 c0034fe:	65ce                	ld	a1,208(sp)
 c003500:	850a                	mv	a0,sp
 c003502:	e7dff0ef          	jal	ra,c00337e <LzmaDec_FreeProbs>
 c003506:	60ae                	ld	ra,200(sp)
 c003508:	8522                	mv	a0,s0
 c00350a:	640e                	ld	s0,192(sp)
 c00350c:	74ea                	ld	s1,184(sp)
 c00350e:	794a                	ld	s2,176(sp)
 c003510:	79aa                	ld	s3,168(sp)
 c003512:	7a0a                	ld	s4,160(sp)
 c003514:	6aea                	ld	s5,152(sp)
 c003516:	6b4a                	ld	s6,144(sp)
 c003518:	6baa                	ld	s7,136(sp)
 c00351a:	6c0a                	ld	s8,128(sp)
 c00351c:	6169                	addi	sp,sp,208
 c00351e:	8082                	ret

000000000c003520 <LZ4F_readLE32>:
 c003520:	00154783          	lbu	a5,1(a0)
 c003524:	00254703          	lbu	a4,2(a0)
 c003528:	00054683          	lbu	a3,0(a0)
 c00352c:	00354503          	lbu	a0,3(a0)
 c003530:	0107171b          	slliw	a4,a4,0x10
 c003534:	0087979b          	slliw	a5,a5,0x8
 c003538:	9fb9                	addw	a5,a5,a4
 c00353a:	9fb5                	addw	a5,a5,a3
 c00353c:	0185151b          	slliw	a0,a0,0x18
 c003540:	9d3d                	addw	a0,a0,a5
 c003542:	8082                	ret

000000000c003544 <LZ4_decompress_safe_withSmallPrefix>:
 c003544:	40e58733          	sub	a4,a1,a4
 c003548:	26050763          	beqz	a0,c0037b6 <LZ4_decompress_safe_withSmallPrefix+0x272>
 c00354c:	00c50e33          	add	t3,a0,a2
 c003550:	7119                	addi	sp,sp,-128
 c003552:	ff0e0793          	addi	a5,t3,-16 # fffff0 <__BSS_SIZE__+0xffaf80>
 c003556:	ecce                	sd	s3,88(sp)
 c003558:	00d58eb3          	add	t4,a1,a3
 c00355c:	fc86                	sd	ra,120(sp)
 c00355e:	f8a2                	sd	s0,112(sp)
 c003560:	f4a6                	sd	s1,104(sp)
 c003562:	f0ca                	sd	s2,96(sp)
 c003564:	e8d2                	sd	s4,80(sp)
 c003566:	e4d6                	sd	s5,72(sp)
 c003568:	e0da                	sd	s6,64(sp)
 c00356a:	fc5e                	sd	s7,56(sp)
 c00356c:	f862                	sd	s8,48(sp)
 c00356e:	f466                	sd	s9,40(sp)
 c003570:	f06a                	sd	s10,32(sp)
 c003572:	ec6e                	sd	s11,24(sp)
 c003574:	e43e                	sd	a5,8(sp)
 c003576:	832a                	mv	t1,a0
 c003578:	fe0e8993          	addi	s3,t4,-32
 c00357c:	ea95                	bnez	a3,c0035b0 <LZ4_decompress_safe_withSmallPrefix+0x6c>
 c00357e:	4785                	li	a5,1
 c003580:	557d                	li	a0,-1
 c003582:	00f61863          	bne	a2,a5,c003592 <LZ4_decompress_safe_withSmallPrefix+0x4e>
 c003586:	00034503          	lbu	a0,0(t1)
 c00358a:	00a03533          	snez	a0,a0
 c00358e:	0005250b          	ext	a0,a0,0,0
 c003592:	70e6                	ld	ra,120(sp)
 c003594:	7446                	ld	s0,112(sp)
 c003596:	74a6                	ld	s1,104(sp)
 c003598:	7906                	ld	s2,96(sp)
 c00359a:	69e6                	ld	s3,88(sp)
 c00359c:	6a46                	ld	s4,80(sp)
 c00359e:	6aa6                	ld	s5,72(sp)
 c0035a0:	6b06                	ld	s6,64(sp)
 c0035a2:	7be2                	ld	s7,56(sp)
 c0035a4:	7c42                	ld	s8,48(sp)
 c0035a6:	7ca2                	ld	s9,40(sp)
 c0035a8:	7d02                	ld	s10,32(sp)
 c0035aa:	6de2                	ld	s11,24(sp)
 c0035ac:	6109                	addi	sp,sp,128
 c0035ae:	8082                	ret
 c0035b0:	557d                	li	a0,-1
 c0035b2:	d265                	beqz	a2,c003592 <LZ4_decompress_safe_withSmallPrefix+0x4e>
 c0035b4:	879a                	mv	a5,t1
 c0035b6:	882e                	mv	a6,a1
 c0035b8:	4fbd                	li	t6,15
 c0035ba:	429d                	li	t0,7
 c0035bc:	ff4e8393          	addi	t2,t4,-12
 c0035c0:	4a41                	li	s4,16
 c0035c2:	ff9e8f13          	addi	t5,t4,-7
 c0035c6:	ffbe8a93          	addi	s5,t4,-5
 c0035ca:	00004b17          	auipc	s6,0x4
 c0035ce:	6beb0b13          	addi	s6,s6,1726 # c007c88 <inc32table>
 c0035d2:	00004b97          	auipc	s7,0x4
 c0035d6:	696b8b93          	addi	s7,s7,1686 # c007c68 <dec64table>
 c0035da:	ffce0c13          	addi	s8,t3,-4
 c0035de:	0ff00493          	li	s1,255
 c0035e2:	ff8e0c93          	addi	s9,t3,-8
 c0035e6:	ff1e0913          	addi	s2,t3,-15
 c0035ea:	5d7d                	li	s10,-1
 c0035ec:	9817c50b          	lbuia	a0,(a5),1,0
 c0035f0:	00455693          	srli	a3,a0,0x4
 c0035f4:	0045561b          	srliw	a2,a0,0x4
 c0035f8:	07f68063          	beq	a3,t6,c003658 <LZ4_decompress_safe_withSmallPrefix+0x114>
 c0035fc:	0109b8b3          	sltu	a7,s3,a6
 c003600:	0018c893          	xori	a7,a7,1
 c003604:	0ff8f893          	andi	a7,a7,255
 c003608:	00c80433          	add	s0,a6,a2
 c00360c:	00c786b3          	add	a3,a5,a2
 c003610:	06088d63          	beqz	a7,c00368a <LZ4_decompress_safe_withSmallPrefix+0x146>
 c003614:	68a2                	ld	a7,8(sp)
 c003616:	0717fa63          	bgeu	a5,a7,c00368a <LZ4_decompress_safe_withSmallPrefix+0x146>
 c00361a:	6390                	ld	a2,0(a5)
 c00361c:	893d                	andi	a0,a0,15
 c00361e:	00c83023          	sd	a2,0(a6)
 c003622:	679c                	ld	a5,8(a5)
 c003624:	862a                	mv	a2,a0
 c003626:	00f83423          	sd	a5,8(a6)
 c00362a:	87b6                	mv	a5,a3
 c00362c:	b827c88b          	lhuia	a7,(a5),2,0
 c003630:	411406b3          	sub	a3,s0,a7
 c003634:	0bf50763          	beq	a0,t6,c0036e2 <LZ4_decompress_safe_withSmallPrefix+0x19e>
 c003638:	0d12f563          	bgeu	t0,a7,c003702 <LZ4_decompress_safe_withSmallPrefix+0x1be>
 c00363c:	0ce6e363          	bltu	a3,a4,c003702 <LZ4_decompress_safe_withSmallPrefix+0x1be>
 c003640:	6290                	ld	a2,0(a3)
 c003642:	0511                	addi	a0,a0,4
 c003644:	00a40833          	add	a6,s0,a0
 c003648:	e010                	sd	a2,0(s0)
 c00364a:	6690                	ld	a2,8(a3)
 c00364c:	e410                	sd	a2,8(s0)
 c00364e:	0106d683          	lhu	a3,16(a3)
 c003652:	00d41823          	sh	a3,16(s0)
 c003656:	bf59                	j	c0035ec <LZ4_decompress_safe_withSmallPrefix+0xa8>
 c003658:	0527fd63          	bgeu	a5,s2,c0036b2 <LZ4_decompress_safe_withSmallPrefix+0x16e>
 c00365c:	4601                	li	a2,0
 c00365e:	9817c88b          	lbuia	a7,(a5),1,0
 c003662:	00c8863b          	addw	a2,a7,a2
 c003666:	0527f963          	bgeu	a5,s2,c0036b8 <LZ4_decompress_safe_withSmallPrefix+0x174>
 c00366a:	fe988ae3          	beq	a7,s1,c00365e <LZ4_decompress_safe_withSmallPrefix+0x11a>
 c00366e:	4681                	li	a3,0
 c003670:	7c06360b          	extu	a2,a2,31,0
 c003674:	063d                	addi	a2,a2,15
 c003676:	13a68a63          	beq	a3,s10,c0037aa <LZ4_decompress_safe_withSmallPrefix+0x266>
 c00367a:	010606b3          	add	a3,a2,a6
 c00367e:	1306e663          	bltu	a3,a6,c0037aa <LZ4_decompress_safe_withSmallPrefix+0x266>
 c003682:	00f606b3          	add	a3,a2,a5
 c003686:	12f6e263          	bltu	a3,a5,c0037aa <LZ4_decompress_safe_withSmallPrefix+0x266>
 c00368a:	00c80433          	add	s0,a6,a2
 c00368e:	00c788b3          	add	a7,a5,a2
 c003692:	0083e463          	bltu	t2,s0,c00369a <LZ4_decompress_safe_withSmallPrefix+0x156>
 c003696:	031cf363          	bgeu	s9,a7,c0036bc <LZ4_decompress_safe_withSmallPrefix+0x178>
 c00369a:	111e1863          	bne	t3,a7,c0037aa <LZ4_decompress_safe_withSmallPrefix+0x266>
 c00369e:	108ee663          	bltu	t4,s0,c0037aa <LZ4_decompress_safe_withSmallPrefix+0x266>
 c0036a2:	84ae                	mv	s1,a1
 c0036a4:	8542                	mv	a0,a6
 c0036a6:	85be                	mv	a1,a5
 c0036a8:	e80fd0ef          	jal	ra,c000d28 <memmove>
 c0036ac:	4094053b          	subw	a0,s0,s1
 c0036b0:	b5cd                	j	c003592 <LZ4_decompress_safe_withSmallPrefix+0x4e>
 c0036b2:	56fd                	li	a3,-1
 c0036b4:	4601                	li	a2,0
 c0036b6:	bf6d                	j	c003670 <LZ4_decompress_safe_withSmallPrefix+0x12c>
 c0036b8:	56f9                	li	a3,-2
 c0036ba:	bf5d                	j	c003670 <LZ4_decompress_safe_withSmallPrefix+0x12c>
 c0036bc:	4681                	li	a3,0
 c0036be:	60d7c60b          	lrd	a2,a5,a3,0
 c0036c2:	60d8560b          	srd	a2,a6,a3,0
 c0036c6:	06a1                	addi	a3,a3,8
 c0036c8:	00d80633          	add	a2,a6,a3
 c0036cc:	fe8669e3          	bltu	a2,s0,c0036be <LZ4_decompress_safe_withSmallPrefix+0x17a>
 c0036d0:	87c6                	mv	a5,a7
 c0036d2:	b827c88b          	lhuia	a7,(a5),2,0
 c0036d6:	00f57613          	andi	a2,a0,15
 c0036da:	411406b3          	sub	a3,s0,a7
 c0036de:	03f61263          	bne	a2,t6,c003702 <LZ4_decompress_safe_withSmallPrefix+0x1be>
 c0036e2:	4601                	li	a2,0
 c0036e4:	9817c80b          	lbuia	a6,(a5),1,0
 c0036e8:	00c8063b          	addw	a2,a6,a2
 c0036ec:	0b87ff63          	bgeu	a5,s8,c0037aa <LZ4_decompress_safe_withSmallPrefix+0x266>
 c0036f0:	fe980ae3          	beq	a6,s1,c0036e4 <LZ4_decompress_safe_withSmallPrefix+0x1a0>
 c0036f4:	7c06360b          	extu	a2,a2,31,0
 c0036f8:	063d                	addi	a2,a2,15
 c0036fa:	00860533          	add	a0,a2,s0
 c0036fe:	0a856663          	bltu	a0,s0,c0037aa <LZ4_decompress_safe_withSmallPrefix+0x266>
 c003702:	0611                	addi	a2,a2,4
 c003704:	0ae6e363          	bltu	a3,a4,c0037aa <LZ4_decompress_safe_withSmallPrefix+0x266>
 c003708:	00c40833          	add	a6,s0,a2
 c00370c:	0712e463          	bltu	t0,a7,c003774 <LZ4_decompress_safe_withSmallPrefix+0x230>
 c003710:	00042023          	sw	zero,0(s0)
 c003714:	0006c503          	lbu	a0,0(a3)
 c003718:	00a40023          	sb	a0,0(s0)
 c00371c:	0016c503          	lbu	a0,1(a3)
 c003720:	00a400a3          	sb	a0,1(s0)
 c003724:	0026c503          	lbu	a0,2(a3)
 c003728:	00a40123          	sb	a0,2(s0)
 c00372c:	0036c503          	lbu	a0,3(a3)
 c003730:	00a401a3          	sb	a0,3(s0)
 c003734:	c51b450b          	lrwu	a0,s6,a7,2
 c003738:	00a68db3          	add	s11,a3,a0
 c00373c:	40a6c68b          	lrw	a3,a3,a0,0
 c003740:	c054                	sw	a3,4(s0)
 c003742:	451bc68b          	lrw	a3,s7,a7,2
 c003746:	40dd86b3          	sub	a3,s11,a3
 c00374a:	0503f363          	bgeu	t2,a6,c003790 <LZ4_decompress_safe_withSmallPrefix+0x24c>
 c00374e:	050aee63          	bltu	s5,a6,c0037aa <LZ4_decompress_safe_withSmallPrefix+0x266>
 c003752:	0421                	addi	s0,s0,8
 c003754:	01e47e63          	bgeu	s0,t5,c003770 <LZ4_decompress_safe_withSmallPrefix+0x22c>
 c003758:	8536                	mv	a0,a3
 c00375a:	8622                	mv	a2,s0
 c00375c:	7885488b          	ldia	a7,(a0),8,0
 c003760:	7886588b          	sdia	a7,(a2),8,0
 c003764:	ffe66ce3          	bltu	a2,t5,c00375c <LZ4_decompress_safe_withSmallPrefix+0x218>
 c003768:	408f0433          	sub	s0,t5,s0
 c00376c:	96a2                	add	a3,a3,s0
 c00376e:	847a                	mv	s0,t5
 c003770:	4601                	li	a2,0
 c003772:	a811                	j	c003786 <LZ4_decompress_safe_withSmallPrefix+0x242>
 c003774:	7886c50b          	ldia	a0,(a3),8,0
 c003778:	e008                	sd	a0,0(s0)
 c00377a:	bfc1                	j	c00374a <LZ4_decompress_safe_withSmallPrefix+0x206>
 c00377c:	80c6c50b          	lrbu	a0,a3,a2,0
 c003780:	00c4550b          	srb	a0,s0,a2,0
 c003784:	0605                	addi	a2,a2,1
 c003786:	00c40533          	add	a0,s0,a2
 c00378a:	ff0569e3          	bltu	a0,a6,c00377c <LZ4_decompress_safe_withSmallPrefix+0x238>
 c00378e:	bdb9                	j	c0035ec <LZ4_decompress_safe_withSmallPrefix+0xa8>
 c003790:	6288                	ld	a0,0(a3)
 c003792:	e408                	sd	a0,8(s0)
 c003794:	e4ca7ce3          	bgeu	s4,a2,c0035ec <LZ4_decompress_safe_withSmallPrefix+0xa8>
 c003798:	0441                	addi	s0,s0,16
 c00379a:	06a1                	addi	a3,a3,8
 c00379c:	7886c60b          	ldia	a2,(a3),8,0
 c0037a0:	7884560b          	sdia	a2,(s0),8,0
 c0037a4:	ff046ce3          	bltu	s0,a6,c00379c <LZ4_decompress_safe_withSmallPrefix+0x258>
 c0037a8:	b591                	j	c0035ec <LZ4_decompress_safe_withSmallPrefix+0xa8>
 c0037aa:	40678533          	sub	a0,a5,t1
 c0037ae:	fff54513          	not	a0,a0
 c0037b2:	2501                	sext.w	a0,a0
 c0037b4:	bbf9                	j	c003592 <LZ4_decompress_safe_withSmallPrefix+0x4e>
 c0037b6:	557d                	li	a0,-1
 c0037b8:	8082                	ret

000000000c0037ba <LZ4F_updateDict>:
 c0037ba:	06853803          	ld	a6,104(a0)
 c0037be:	7179                	addi	sp,sp,-48
 c0037c0:	f022                	sd	s0,32(sp)
 c0037c2:	f406                	sd	ra,40(sp)
 c0037c4:	ec26                	sd	s1,24(sp)
 c0037c6:	e84a                	sd	s2,16(sp)
 c0037c8:	e44e                	sd	s3,8(sp)
 c0037ca:	842a                	mv	s0,a0
 c0037cc:	00081363          	bnez	a6,c0037d2 <LZ4F_updateDict+0x18>
 c0037d0:	f12c                	sd	a1,96(a0)
 c0037d2:	7028                	ld	a0,96(s0)
 c0037d4:	010507b3          	add	a5,a0,a6
 c0037d8:	00f59663          	bne	a1,a5,c0037e4 <LZ4F_updateDict+0x2a>
 c0037dc:	00c807b3          	add	a5,a6,a2
 c0037e0:	f43c                	sd	a5,104(s0)
 c0037e2:	a811                	j	c0037f6 <LZ4F_updateDict+0x3c>
 c0037e4:	40d588b3          	sub	a7,a1,a3
 c0037e8:	98b2                	add	a7,a7,a2
 c0037ea:	67c1                	lui	a5,0x10
 c0037ec:	00f8ec63          	bltu	a7,a5,c003804 <LZ4F_updateDict+0x4a>
 c0037f0:	f034                	sd	a3,96(s0)
 c0037f2:	07143423          	sd	a7,104(s0)
 c0037f6:	70a2                	ld	ra,40(sp)
 c0037f8:	7402                	ld	s0,32(sp)
 c0037fa:	64e2                	ld	s1,24(sp)
 c0037fc:	6942                	ld	s2,16(sp)
 c0037fe:	69a2                	ld	s3,8(sp)
 c003800:	6145                	addi	sp,sp,48
 c003802:	8082                	ret
 c003804:	6c34                	ld	a3,88(s0)
 c003806:	84b2                	mv	s1,a2
 c003808:	89ae                	mv	s3,a1
 c00380a:	c739                	beqz	a4,c003858 <LZ4F_updateDict+0x9e>
 c00380c:	00d51563          	bne	a0,a3,c003816 <LZ4F_updateDict+0x5c>
 c003810:	00c807b3          	add	a5,a6,a2
 c003814:	b7f1                	j	c0037e0 <LZ4F_updateDict+0x26>
 c003816:	07043903          	ld	s2,112(s0)
 c00381a:	604c                	ld	a1,128(s0)
 c00381c:	7c38                	ld	a4,120(s0)
 c00381e:	40d90933          	sub	s2,s2,a3
 c003822:	40b805b3          	sub	a1,a6,a1
 c003826:	4601                	li	a2,0
 c003828:	00e7e863          	bltu	a5,a4,c003838 <LZ4F_updateDict+0x7e>
 c00382c:	40e78633          	sub	a2,a5,a4
 c003830:	00c937b3          	sltu	a5,s2,a2
 c003834:	42f9160b          	mvnez	a2,s2,a5
 c003838:	40c907b3          	sub	a5,s2,a2
 c00383c:	8d91                	sub	a1,a1,a2
 c00383e:	95aa                	add	a1,a1,a0
 c003840:	00f68533          	add	a0,a3,a5
 c003844:	c84fd0ef          	jal	ra,c000cc8 <memcpy>
 c003848:	6050                	ld	a2,128(s0)
 c00384a:	6c3c                	ld	a5,88(s0)
 c00384c:	94b2                	add	s1,s1,a2
 c00384e:	9926                	add	s2,s2,s1
 c003850:	f03c                	sd	a5,96(s0)
 c003852:	07243423          	sd	s2,104(s0)
 c003856:	b745                	j	c0037f6 <LZ4F_updateDict+0x3c>
 c003858:	02d51e63          	bne	a0,a3,c003894 <LZ4F_updateDict+0xda>
 c00385c:	7c14                	ld	a3,56(s0)
 c00385e:	00c80733          	add	a4,a6,a2
 c003862:	00e6fe63          	bgeu	a3,a4,c00387e <LZ4F_updateDict+0xc4>
 c003866:	40c78933          	sub	s2,a5,a2
 c00386a:	40f607b3          	sub	a5,a2,a5
 c00386e:	97c2                	add	a5,a5,a6
 c003870:	864a                	mv	a2,s2
 c003872:	00f505b3          	add	a1,a0,a5
 c003876:	c52fd0ef          	jal	ra,c000cc8 <memcpy>
 c00387a:	07243423          	sd	s2,104(s0)
 c00387e:	6c28                	ld	a0,88(s0)
 c003880:	743c                	ld	a5,104(s0)
 c003882:	8626                	mv	a2,s1
 c003884:	85ce                	mv	a1,s3
 c003886:	953e                	add	a0,a0,a5
 c003888:	c40fd0ef          	jal	ra,c000cc8 <memcpy>
 c00388c:	7430                	ld	a2,104(s0)
 c00388e:	94b2                	add	s1,s1,a2
 c003890:	f424                	sd	s1,104(s0)
 c003892:	b795                	j	c0037f6 <LZ4F_updateDict+0x3c>
 c003894:	8f91                	sub	a5,a5,a2
 c003896:	0107b733          	sltu	a4,a5,a6
 c00389a:	40e8178b          	mveqz	a5,a6,a4
 c00389e:	40f805b3          	sub	a1,a6,a5
 c0038a2:	863e                	mv	a2,a5
 c0038a4:	95aa                	add	a1,a1,a0
 c0038a6:	8536                	mv	a0,a3
 c0038a8:	893e                	mv	s2,a5
 c0038aa:	c1efd0ef          	jal	ra,c000cc8 <memcpy>
 c0038ae:	6c28                	ld	a0,88(s0)
 c0038b0:	8626                	mv	a2,s1
 c0038b2:	85ce                	mv	a1,s3
 c0038b4:	954a                	add	a0,a0,s2
 c0038b6:	c12fd0ef          	jal	ra,c000cc8 <memcpy>
 c0038ba:	6c3c                	ld	a5,88(s0)
 c0038bc:	94ca                	add	s1,s1,s2
 c0038be:	f03c                	sd	a5,96(s0)
 c0038c0:	bfc1                	j	c003890 <LZ4F_updateDict+0xd6>

000000000c0038c2 <LZ4_decompress_safe>:
 c0038c2:	26050463          	beqz	a0,c003b2a <LZ4_decompress_safe+0x268>
 c0038c6:	7159                	addi	sp,sp,-112
 c0038c8:	eca6                	sd	s1,88(sp)
 c0038ca:	00c50833          	add	a6,a0,a2
 c0038ce:	00d588b3          	add	a7,a1,a3
 c0038d2:	f486                	sd	ra,104(sp)
 c0038d4:	f0a2                	sd	s0,96(sp)
 c0038d6:	e8ca                	sd	s2,80(sp)
 c0038d8:	e4ce                	sd	s3,72(sp)
 c0038da:	e0d2                	sd	s4,64(sp)
 c0038dc:	fc56                	sd	s5,56(sp)
 c0038de:	f85a                	sd	s6,48(sp)
 c0038e0:	f45e                	sd	s7,40(sp)
 c0038e2:	f062                	sd	s8,32(sp)
 c0038e4:	ec66                	sd	s9,24(sp)
 c0038e6:	e86a                	sd	s10,16(sp)
 c0038e8:	e46e                	sd	s11,8(sp)
 c0038ea:	ff080393          	addi	t2,a6,-16
 c0038ee:	fe088493          	addi	s1,a7,-32
 c0038f2:	ea9d                	bnez	a3,c003928 <LZ4_decompress_safe+0x66>
 c0038f4:	4705                	li	a4,1
 c0038f6:	57fd                	li	a5,-1
 c0038f8:	00e61863          	bne	a2,a4,c003908 <LZ4_decompress_safe+0x46>
 c0038fc:	00054783          	lbu	a5,0(a0)
 c003900:	00f037b3          	snez	a5,a5
 c003904:	0007a78b          	ext	a5,a5,0,0
 c003908:	70a6                	ld	ra,104(sp)
 c00390a:	7406                	ld	s0,96(sp)
 c00390c:	64e6                	ld	s1,88(sp)
 c00390e:	6946                	ld	s2,80(sp)
 c003910:	69a6                	ld	s3,72(sp)
 c003912:	6a06                	ld	s4,64(sp)
 c003914:	7ae2                	ld	s5,56(sp)
 c003916:	7b42                	ld	s6,48(sp)
 c003918:	7ba2                	ld	s7,40(sp)
 c00391a:	7c02                	ld	s8,32(sp)
 c00391c:	6ce2                	ld	s9,24(sp)
 c00391e:	6d42                	ld	s10,16(sp)
 c003920:	6da2                	ld	s11,8(sp)
 c003922:	853e                	mv	a0,a5
 c003924:	6165                	addi	sp,sp,112
 c003926:	8082                	ret
 c003928:	57fd                	li	a5,-1
 c00392a:	de79                	beqz	a2,c003908 <LZ4_decompress_safe+0x46>
 c00392c:	87aa                	mv	a5,a0
 c00392e:	872e                	mv	a4,a1
 c003930:	4e3d                	li	t3,15
 c003932:	4e9d                	li	t4,7
 c003934:	ff488f13          	addi	t5,a7,-12
 c003938:	4941                	li	s2,16
 c00393a:	ff988313          	addi	t1,a7,-7
 c00393e:	ffb88993          	addi	s3,a7,-5
 c003942:	00004a17          	auipc	s4,0x4
 c003946:	346a0a13          	addi	s4,s4,838 # c007c88 <inc32table>
 c00394a:	00004a97          	auipc	s5,0x4
 c00394e:	31ea8a93          	addi	s5,s5,798 # c007c68 <dec64table>
 c003952:	ffc80b13          	addi	s6,a6,-4
 c003956:	0ff00f93          	li	t6,255
 c00395a:	ff880b93          	addi	s7,a6,-8
 c00395e:	ff180293          	addi	t0,a6,-15
 c003962:	5c7d                	li	s8,-1
 c003964:	9817c68b          	lbuia	a3,(a5),1,0
 c003968:	0046d413          	srli	s0,a3,0x4
 c00396c:	0046d61b          	srliw	a2,a3,0x4
 c003970:	05c40d63          	beq	s0,t3,c0039ca <LZ4_decompress_safe+0x108>
 c003974:	00e4bd33          	sltu	s10,s1,a4
 c003978:	001d4d13          	xori	s10,s10,1
 c00397c:	0ffd7d13          	andi	s10,s10,255
 c003980:	00c70433          	add	s0,a4,a2
 c003984:	00c78cb3          	add	s9,a5,a2
 c003988:	060d0a63          	beqz	s10,c0039fc <LZ4_decompress_safe+0x13a>
 c00398c:	0677f863          	bgeu	a5,t2,c0039fc <LZ4_decompress_safe+0x13a>
 c003990:	6390                	ld	a2,0(a5)
 c003992:	e310                	sd	a2,0(a4)
 c003994:	679c                	ld	a5,8(a5)
 c003996:	e71c                	sd	a5,8(a4)
 c003998:	87e6                	mv	a5,s9
 c00399a:	b827cc8b          	lhuia	s9,(a5),2,0
 c00399e:	00f6f713          	andi	a4,a3,15
 c0039a2:	86ba                	mv	a3,a4
 c0039a4:	41940633          	sub	a2,s0,s9
 c0039a8:	0bc70563          	beq	a4,t3,c003a52 <LZ4_decompress_safe+0x190>
 c0039ac:	0d9ef363          	bgeu	t4,s9,c003a72 <LZ4_decompress_safe+0x1b0>
 c0039b0:	0cb66163          	bltu	a2,a1,c003a72 <LZ4_decompress_safe+0x1b0>
 c0039b4:	6214                	ld	a3,0(a2)
 c0039b6:	0711                	addi	a4,a4,4
 c0039b8:	9722                	add	a4,a4,s0
 c0039ba:	e014                	sd	a3,0(s0)
 c0039bc:	6614                	ld	a3,8(a2)
 c0039be:	e414                	sd	a3,8(s0)
 c0039c0:	01065683          	lhu	a3,16(a2)
 c0039c4:	00d41823          	sh	a3,16(s0)
 c0039c8:	bf71                	j	c003964 <LZ4_decompress_safe+0xa2>
 c0039ca:	0457fd63          	bgeu	a5,t0,c003a24 <LZ4_decompress_safe+0x162>
 c0039ce:	4601                	li	a2,0
 c0039d0:	9817cc8b          	lbuia	s9,(a5),1,0
 c0039d4:	00cc863b          	addw	a2,s9,a2
 c0039d8:	0457f963          	bgeu	a5,t0,c003a2a <LZ4_decompress_safe+0x168>
 c0039dc:	fffc8ae3          	beq	s9,t6,c0039d0 <LZ4_decompress_safe+0x10e>
 c0039e0:	4401                	li	s0,0
 c0039e2:	7c06360b          	extu	a2,a2,31,0
 c0039e6:	063d                	addi	a2,a2,15
 c0039e8:	13840c63          	beq	s0,s8,c003b20 <LZ4_decompress_safe+0x25e>
 c0039ec:	00e60433          	add	s0,a2,a4
 c0039f0:	12e46863          	bltu	s0,a4,c003b20 <LZ4_decompress_safe+0x25e>
 c0039f4:	00f60433          	add	s0,a2,a5
 c0039f8:	12f46463          	bltu	s0,a5,c003b20 <LZ4_decompress_safe+0x25e>
 c0039fc:	00c70433          	add	s0,a4,a2
 c003a00:	00c78cb3          	add	s9,a5,a2
 c003a04:	008f6463          	bltu	t5,s0,c003a0c <LZ4_decompress_safe+0x14a>
 c003a08:	039bf363          	bgeu	s7,s9,c003a2e <LZ4_decompress_safe+0x16c>
 c003a0c:	11981a63          	bne	a6,s9,c003b20 <LZ4_decompress_safe+0x25e>
 c003a10:	1088e863          	bltu	a7,s0,c003b20 <LZ4_decompress_safe+0x25e>
 c003a14:	84ae                	mv	s1,a1
 c003a16:	853a                	mv	a0,a4
 c003a18:	85be                	mv	a1,a5
 c003a1a:	b0efd0ef          	jal	ra,c000d28 <memmove>
 c003a1e:	409407bb          	subw	a5,s0,s1
 c003a22:	b5dd                	j	c003908 <LZ4_decompress_safe+0x46>
 c003a24:	547d                	li	s0,-1
 c003a26:	4601                	li	a2,0
 c003a28:	bf6d                	j	c0039e2 <LZ4_decompress_safe+0x120>
 c003a2a:	5479                	li	s0,-2
 c003a2c:	bf5d                	j	c0039e2 <LZ4_decompress_safe+0x120>
 c003a2e:	4601                	li	a2,0
 c003a30:	60c7cd0b          	lrd	s10,a5,a2,0
 c003a34:	60c75d0b          	srd	s10,a4,a2,0
 c003a38:	0621                	addi	a2,a2,8
 c003a3a:	00c70d33          	add	s10,a4,a2
 c003a3e:	fe8d69e3          	bltu	s10,s0,c003a30 <LZ4_decompress_safe+0x16e>
 c003a42:	87e6                	mv	a5,s9
 c003a44:	b827cc8b          	lhuia	s9,(a5),2,0
 c003a48:	8abd                	andi	a3,a3,15
 c003a4a:	41940633          	sub	a2,s0,s9
 c003a4e:	03c69263          	bne	a3,t3,c003a72 <LZ4_decompress_safe+0x1b0>
 c003a52:	4681                	li	a3,0
 c003a54:	9817cd0b          	lbuia	s10,(a5),1,0
 c003a58:	00dd06bb          	addw	a3,s10,a3
 c003a5c:	0d67f263          	bgeu	a5,s6,c003b20 <LZ4_decompress_safe+0x25e>
 c003a60:	fffd0ae3          	beq	s10,t6,c003a54 <LZ4_decompress_safe+0x192>
 c003a64:	7c06b68b          	extu	a3,a3,31,0
 c003a68:	06bd                	addi	a3,a3,15
 c003a6a:	00868733          	add	a4,a3,s0
 c003a6e:	0a876963          	bltu	a4,s0,c003b20 <LZ4_decompress_safe+0x25e>
 c003a72:	0691                	addi	a3,a3,4
 c003a74:	0ab66663          	bltu	a2,a1,c003b20 <LZ4_decompress_safe+0x25e>
 c003a78:	00d40733          	add	a4,s0,a3
 c003a7c:	079ee463          	bltu	t4,s9,c003ae4 <LZ4_decompress_safe+0x222>
 c003a80:	00042023          	sw	zero,0(s0)
 c003a84:	00064d03          	lbu	s10,0(a2)
 c003a88:	01a40023          	sb	s10,0(s0)
 c003a8c:	00164d03          	lbu	s10,1(a2)
 c003a90:	01a400a3          	sb	s10,1(s0)
 c003a94:	00264d03          	lbu	s10,2(a2)
 c003a98:	01a40123          	sb	s10,2(s0)
 c003a9c:	00364d03          	lbu	s10,3(a2)
 c003aa0:	01a401a3          	sb	s10,3(s0)
 c003aa4:	c59a4d0b          	lrwu	s10,s4,s9,2
 c003aa8:	01a60db3          	add	s11,a2,s10
 c003aac:	41a6460b          	lrw	a2,a2,s10,0
 c003ab0:	c050                	sw	a2,4(s0)
 c003ab2:	459ac60b          	lrw	a2,s5,s9,2
 c003ab6:	40cd8633          	sub	a2,s11,a2
 c003aba:	04ef7463          	bgeu	t5,a4,c003b02 <LZ4_decompress_safe+0x240>
 c003abe:	06e9e163          	bltu	s3,a4,c003b20 <LZ4_decompress_safe+0x25e>
 c003ac2:	0421                	addi	s0,s0,8
 c003ac4:	00647e63          	bgeu	s0,t1,c003ae0 <LZ4_decompress_safe+0x21e>
 c003ac8:	8cb2                	mv	s9,a2
 c003aca:	86a2                	mv	a3,s0
 c003acc:	788ccd0b          	ldia	s10,(s9),8,0
 c003ad0:	7886dd0b          	sdia	s10,(a3),8,0
 c003ad4:	fe66ece3          	bltu	a3,t1,c003acc <LZ4_decompress_safe+0x20a>
 c003ad8:	40830433          	sub	s0,t1,s0
 c003adc:	9622                	add	a2,a2,s0
 c003ade:	841a                	mv	s0,t1
 c003ae0:	4681                	li	a3,0
 c003ae2:	a819                	j	c003af8 <LZ4_decompress_safe+0x236>
 c003ae4:	78864c8b          	ldia	s9,(a2),8,0
 c003ae8:	01943023          	sd	s9,0(s0)
 c003aec:	b7f9                	j	c003aba <LZ4_decompress_safe+0x1f8>
 c003aee:	80d64c8b          	lrbu	s9,a2,a3,0
 c003af2:	00d45c8b          	srb	s9,s0,a3,0
 c003af6:	0685                	addi	a3,a3,1
 c003af8:	00d40cb3          	add	s9,s0,a3
 c003afc:	feece9e3          	bltu	s9,a4,c003aee <LZ4_decompress_safe+0x22c>
 c003b00:	b595                	j	c003964 <LZ4_decompress_safe+0xa2>
 c003b02:	00063c83          	ld	s9,0(a2)
 c003b06:	01943423          	sd	s9,8(s0)
 c003b0a:	e4d97de3          	bgeu	s2,a3,c003964 <LZ4_decompress_safe+0xa2>
 c003b0e:	0441                	addi	s0,s0,16
 c003b10:	0621                	addi	a2,a2,8
 c003b12:	7886468b          	ldia	a3,(a2),8,0
 c003b16:	7884568b          	sdia	a3,(s0),8,0
 c003b1a:	fee46ce3          	bltu	s0,a4,c003b12 <LZ4_decompress_safe+0x250>
 c003b1e:	b599                	j	c003964 <LZ4_decompress_safe+0xa2>
 c003b20:	8f89                	sub	a5,a5,a0
 c003b22:	fff7c793          	not	a5,a5
 c003b26:	2781                	sext.w	a5,a5
 c003b28:	b3c5                	j	c003908 <LZ4_decompress_safe+0x46>
 c003b2a:	57fd                	li	a5,-1
 c003b2c:	853e                	mv	a0,a5
 c003b2e:	8082                	ret

000000000c003b30 <LZ4_decompress_safe_withPrefix64k>:
 c003b30:	77c1                	lui	a5,0xffff0
 c003b32:	7119                	addi	sp,sp,-128
 c003b34:	97ae                	add	a5,a5,a1
 c003b36:	fc86                	sd	ra,120(sp)
 c003b38:	f8a2                	sd	s0,112(sp)
 c003b3a:	f4a6                	sd	s1,104(sp)
 c003b3c:	f0ca                	sd	s2,96(sp)
 c003b3e:	ecce                	sd	s3,88(sp)
 c003b40:	e8d2                	sd	s4,80(sp)
 c003b42:	e4d6                	sd	s5,72(sp)
 c003b44:	e0da                	sd	s6,64(sp)
 c003b46:	fc5e                	sd	s7,56(sp)
 c003b48:	f862                	sd	s8,48(sp)
 c003b4a:	f466                	sd	s9,40(sp)
 c003b4c:	f06a                	sd	s10,32(sp)
 c003b4e:	ec6e                	sd	s11,24(sp)
 c003b50:	e43e                	sd	a5,8(sp)
 c003b52:	24050263          	beqz	a0,c003d96 <LZ4_decompress_safe_withPrefix64k+0x266>
 c003b56:	00c50333          	add	t1,a0,a2
 c003b5a:	00d58e33          	add	t3,a1,a3
 c003b5e:	88aa                	mv	a7,a0
 c003b60:	ff030913          	addi	s2,t1,-16
 c003b64:	fe0e0993          	addi	s3,t3,-32
 c003b68:	ea95                	bnez	a3,c003b9c <LZ4_decompress_safe_withPrefix64k+0x6c>
 c003b6a:	4785                	li	a5,1
 c003b6c:	557d                	li	a0,-1
 c003b6e:	00f61863          	bne	a2,a5,c003b7e <LZ4_decompress_safe_withPrefix64k+0x4e>
 c003b72:	0008c503          	lbu	a0,0(a7)
 c003b76:	00a03533          	snez	a0,a0
 c003b7a:	0005250b          	ext	a0,a0,0,0
 c003b7e:	70e6                	ld	ra,120(sp)
 c003b80:	7446                	ld	s0,112(sp)
 c003b82:	74a6                	ld	s1,104(sp)
 c003b84:	7906                	ld	s2,96(sp)
 c003b86:	69e6                	ld	s3,88(sp)
 c003b88:	6a46                	ld	s4,80(sp)
 c003b8a:	6aa6                	ld	s5,72(sp)
 c003b8c:	6b06                	ld	s6,64(sp)
 c003b8e:	7be2                	ld	s7,56(sp)
 c003b90:	7c42                	ld	s8,48(sp)
 c003b92:	7ca2                	ld	s9,40(sp)
 c003b94:	7d02                	ld	s10,32(sp)
 c003b96:	6de2                	ld	s11,24(sp)
 c003b98:	6109                	addi	sp,sp,128
 c003b9a:	8082                	ret
 c003b9c:	557d                	li	a0,-1
 c003b9e:	d265                	beqz	a2,c003b7e <LZ4_decompress_safe_withPrefix64k+0x4e>
 c003ba0:	87c6                	mv	a5,a7
 c003ba2:	882e                	mv	a6,a1
 c003ba4:	4f3d                	li	t5,15
 c003ba6:	4f9d                	li	t6,7
 c003ba8:	ff4e0293          	addi	t0,t3,-12
 c003bac:	4a41                	li	s4,16
 c003bae:	ff9e0e93          	addi	t4,t3,-7
 c003bb2:	ffbe0a93          	addi	s5,t3,-5
 c003bb6:	00004b17          	auipc	s6,0x4
 c003bba:	0d2b0b13          	addi	s6,s6,210 # c007c88 <inc32table>
 c003bbe:	00004b97          	auipc	s7,0x4
 c003bc2:	0aab8b93          	addi	s7,s7,170 # c007c68 <dec64table>
 c003bc6:	ffc30c13          	addi	s8,t1,-4
 c003bca:	0ff00393          	li	t2,255
 c003bce:	ff830c93          	addi	s9,t1,-8
 c003bd2:	ff130493          	addi	s1,t1,-15
 c003bd6:	5d7d                	li	s10,-1
 c003bd8:	9817c68b          	lbuia	a3,(a5),1,0
 c003bdc:	0046d713          	srli	a4,a3,0x4
 c003be0:	0046d61b          	srliw	a2,a3,0x4
 c003be4:	05e70b63          	beq	a4,t5,c003c3a <LZ4_decompress_safe_withPrefix64k+0x10a>
 c003be8:	0109b533          	sltu	a0,s3,a6
 c003bec:	00154513          	xori	a0,a0,1
 c003bf0:	0ff57513          	andi	a0,a0,255
 c003bf4:	00c80433          	add	s0,a6,a2
 c003bf8:	00c78733          	add	a4,a5,a2
 c003bfc:	c53d                	beqz	a0,c003c6a <LZ4_decompress_safe_withPrefix64k+0x13a>
 c003bfe:	0727f663          	bgeu	a5,s2,c003c6a <LZ4_decompress_safe_withPrefix64k+0x13a>
 c003c02:	6390                	ld	a2,0(a5)
 c003c04:	8abd                	andi	a3,a3,15
 c003c06:	00c83023          	sd	a2,0(a6)
 c003c0a:	679c                	ld	a5,8(a5)
 c003c0c:	00f83423          	sd	a5,8(a6)
 c003c10:	87ba                	mv	a5,a4
 c003c12:	b827c60b          	lhuia	a2,(a5),2,0
 c003c16:	40c40733          	sub	a4,s0,a2
 c003c1a:	0be68363          	beq	a3,t5,c003cc0 <LZ4_decompress_safe_withPrefix64k+0x190>
 c003c1e:	0ccff163          	bgeu	t6,a2,c003ce0 <LZ4_decompress_safe_withPrefix64k+0x1b0>
 c003c22:	6310                	ld	a2,0(a4)
 c003c24:	0691                	addi	a3,a3,4
 c003c26:	00d40833          	add	a6,s0,a3
 c003c2a:	e010                	sd	a2,0(s0)
 c003c2c:	6710                	ld	a2,8(a4)
 c003c2e:	e410                	sd	a2,8(s0)
 c003c30:	01075703          	lhu	a4,16(a4) # 1000010 <__BSS_SIZE__+0xffafa0>
 c003c34:	00e41823          	sh	a4,16(s0)
 c003c38:	b745                	j	c003bd8 <LZ4_decompress_safe_withPrefix64k+0xa8>
 c003c3a:	0497fc63          	bgeu	a5,s1,c003c92 <LZ4_decompress_safe_withPrefix64k+0x162>
 c003c3e:	4601                	li	a2,0
 c003c40:	9817c50b          	lbuia	a0,(a5),1,0
 c003c44:	9e29                	addw	a2,a2,a0
 c003c46:	0497f963          	bgeu	a5,s1,c003c98 <LZ4_decompress_safe_withPrefix64k+0x168>
 c003c4a:	fe750be3          	beq	a0,t2,c003c40 <LZ4_decompress_safe_withPrefix64k+0x110>
 c003c4e:	4701                	li	a4,0
 c003c50:	7c06360b          	extu	a2,a2,31,0
 c003c54:	063d                	addi	a2,a2,15
 c003c56:	13a70a63          	beq	a4,s10,c003d8a <LZ4_decompress_safe_withPrefix64k+0x25a>
 c003c5a:	01060733          	add	a4,a2,a6
 c003c5e:	13076663          	bltu	a4,a6,c003d8a <LZ4_decompress_safe_withPrefix64k+0x25a>
 c003c62:	00f60733          	add	a4,a2,a5
 c003c66:	12f76263          	bltu	a4,a5,c003d8a <LZ4_decompress_safe_withPrefix64k+0x25a>
 c003c6a:	00c80433          	add	s0,a6,a2
 c003c6e:	00c78533          	add	a0,a5,a2
 c003c72:	0082e463          	bltu	t0,s0,c003c7a <LZ4_decompress_safe_withPrefix64k+0x14a>
 c003c76:	02acf363          	bgeu	s9,a0,c003c9c <LZ4_decompress_safe_withPrefix64k+0x16c>
 c003c7a:	10a31863          	bne	t1,a0,c003d8a <LZ4_decompress_safe_withPrefix64k+0x25a>
 c003c7e:	108e6663          	bltu	t3,s0,c003d8a <LZ4_decompress_safe_withPrefix64k+0x25a>
 c003c82:	84ae                	mv	s1,a1
 c003c84:	8542                	mv	a0,a6
 c003c86:	85be                	mv	a1,a5
 c003c88:	8a0fd0ef          	jal	ra,c000d28 <memmove>
 c003c8c:	4094053b          	subw	a0,s0,s1
 c003c90:	b5fd                	j	c003b7e <LZ4_decompress_safe_withPrefix64k+0x4e>
 c003c92:	577d                	li	a4,-1
 c003c94:	4601                	li	a2,0
 c003c96:	bf6d                	j	c003c50 <LZ4_decompress_safe_withPrefix64k+0x120>
 c003c98:	5779                	li	a4,-2
 c003c9a:	bf5d                	j	c003c50 <LZ4_decompress_safe_withPrefix64k+0x120>
 c003c9c:	4701                	li	a4,0
 c003c9e:	60e7c60b          	lrd	a2,a5,a4,0
 c003ca2:	60e8560b          	srd	a2,a6,a4,0
 c003ca6:	0721                	addi	a4,a4,8
 c003ca8:	00e80633          	add	a2,a6,a4
 c003cac:	fe8669e3          	bltu	a2,s0,c003c9e <LZ4_decompress_safe_withPrefix64k+0x16e>
 c003cb0:	87aa                	mv	a5,a0
 c003cb2:	b827c60b          	lhuia	a2,(a5),2,0
 c003cb6:	8abd                	andi	a3,a3,15
 c003cb8:	40c40733          	sub	a4,s0,a2
 c003cbc:	03e69263          	bne	a3,t5,c003ce0 <LZ4_decompress_safe_withPrefix64k+0x1b0>
 c003cc0:	4681                	li	a3,0
 c003cc2:	9817c80b          	lbuia	a6,(a5),1,0
 c003cc6:	00d806bb          	addw	a3,a6,a3
 c003cca:	0d87f063          	bgeu	a5,s8,c003d8a <LZ4_decompress_safe_withPrefix64k+0x25a>
 c003cce:	fe780ae3          	beq	a6,t2,c003cc2 <LZ4_decompress_safe_withPrefix64k+0x192>
 c003cd2:	7c06b68b          	extu	a3,a3,31,0
 c003cd6:	06bd                	addi	a3,a3,15
 c003cd8:	00868533          	add	a0,a3,s0
 c003cdc:	0a856763          	bltu	a0,s0,c003d8a <LZ4_decompress_safe_withPrefix64k+0x25a>
 c003ce0:	6522                	ld	a0,8(sp)
 c003ce2:	0691                	addi	a3,a3,4
 c003ce4:	0aa76363          	bltu	a4,a0,c003d8a <LZ4_decompress_safe_withPrefix64k+0x25a>
 c003ce8:	00d40833          	add	a6,s0,a3
 c003cec:	06cfe463          	bltu	t6,a2,c003d54 <LZ4_decompress_safe_withPrefix64k+0x224>
 c003cf0:	00042023          	sw	zero,0(s0)
 c003cf4:	00074503          	lbu	a0,0(a4)
 c003cf8:	00a40023          	sb	a0,0(s0)
 c003cfc:	00174503          	lbu	a0,1(a4)
 c003d00:	00a400a3          	sb	a0,1(s0)
 c003d04:	00274503          	lbu	a0,2(a4)
 c003d08:	00a40123          	sb	a0,2(s0)
 c003d0c:	00374503          	lbu	a0,3(a4)
 c003d10:	00a401a3          	sb	a0,3(s0)
 c003d14:	c4cb450b          	lrwu	a0,s6,a2,2
 c003d18:	00a70db3          	add	s11,a4,a0
 c003d1c:	40a7470b          	lrw	a4,a4,a0,0
 c003d20:	c058                	sw	a4,4(s0)
 c003d22:	44cbc70b          	lrw	a4,s7,a2,2
 c003d26:	40ed8733          	sub	a4,s11,a4
 c003d2a:	0502f363          	bgeu	t0,a6,c003d70 <LZ4_decompress_safe_withPrefix64k+0x240>
 c003d2e:	050aee63          	bltu	s5,a6,c003d8a <LZ4_decompress_safe_withPrefix64k+0x25a>
 c003d32:	0421                	addi	s0,s0,8
 c003d34:	01d47e63          	bgeu	s0,t4,c003d50 <LZ4_decompress_safe_withPrefix64k+0x220>
 c003d38:	863a                	mv	a2,a4
 c003d3a:	86a2                	mv	a3,s0
 c003d3c:	7886450b          	ldia	a0,(a2),8,0
 c003d40:	7886d50b          	sdia	a0,(a3),8,0
 c003d44:	ffd6ece3          	bltu	a3,t4,c003d3c <LZ4_decompress_safe_withPrefix64k+0x20c>
 c003d48:	408e8433          	sub	s0,t4,s0
 c003d4c:	9722                	add	a4,a4,s0
 c003d4e:	8476                	mv	s0,t4
 c003d50:	4681                	li	a3,0
 c003d52:	a811                	j	c003d66 <LZ4_decompress_safe_withPrefix64k+0x236>
 c003d54:	7887460b          	ldia	a2,(a4),8,0
 c003d58:	e010                	sd	a2,0(s0)
 c003d5a:	bfc1                	j	c003d2a <LZ4_decompress_safe_withPrefix64k+0x1fa>
 c003d5c:	80d7460b          	lrbu	a2,a4,a3,0
 c003d60:	00d4560b          	srb	a2,s0,a3,0
 c003d64:	0685                	addi	a3,a3,1
 c003d66:	00d40633          	add	a2,s0,a3
 c003d6a:	ff0669e3          	bltu	a2,a6,c003d5c <LZ4_decompress_safe_withPrefix64k+0x22c>
 c003d6e:	b5ad                	j	c003bd8 <LZ4_decompress_safe_withPrefix64k+0xa8>
 c003d70:	6310                	ld	a2,0(a4)
 c003d72:	e410                	sd	a2,8(s0)
 c003d74:	e6da72e3          	bgeu	s4,a3,c003bd8 <LZ4_decompress_safe_withPrefix64k+0xa8>
 c003d78:	0441                	addi	s0,s0,16
 c003d7a:	0721                	addi	a4,a4,8
 c003d7c:	7887468b          	ldia	a3,(a4),8,0
 c003d80:	7884568b          	sdia	a3,(s0),8,0
 c003d84:	ff046ce3          	bltu	s0,a6,c003d7c <LZ4_decompress_safe_withPrefix64k+0x24c>
 c003d88:	bd81                	j	c003bd8 <LZ4_decompress_safe_withPrefix64k+0xa8>
 c003d8a:	41178533          	sub	a0,a5,a7
 c003d8e:	fff54513          	not	a0,a0
 c003d92:	2501                	sext.w	a0,a0
 c003d94:	b3ed                	j	c003b7e <LZ4_decompress_safe_withPrefix64k+0x4e>
 c003d96:	557d                	li	a0,-1
 c003d98:	b3dd                	j	c003b7e <LZ4_decompress_safe_withPrefix64k+0x4e>

000000000c003d9a <LZ4_decompress_safe_forceExtDict>:
 c003d9a:	30050963          	beqz	a0,c0040ac <LZ4_decompress_safe_forceExtDict+0x312>
 c003d9e:	7135                	addi	sp,sp,-160
 c003da0:	e526                	sd	s1,136(sp)
 c003da2:	fcce                	sd	s3,120(sp)
 c003da4:	f0da                	sd	s6,96(sp)
 c003da6:	ecde                	sd	s7,88(sp)
 c003da8:	e8e2                	sd	s8,80(sp)
 c003daa:	e0ea                	sd	s10,64(sp)
 c003dac:	ed06                	sd	ra,152(sp)
 c003dae:	e922                	sd	s0,144(sp)
 c003db0:	e14a                	sd	s2,128(sp)
 c003db2:	f8d2                	sd	s4,112(sp)
 c003db4:	f4d6                	sd	s5,104(sp)
 c003db6:	e4e6                	sd	s9,72(sp)
 c003db8:	fc6e                	sd	s11,56(sp)
 c003dba:	8b2a                	mv	s6,a0
 c003dbc:	8d2e                	mv	s10,a1
 c003dbe:	84ba                	mv	s1,a4
 c003dc0:	89be                	mv	s3,a5
 c003dc2:	00c50bb3          	add	s7,a0,a2
 c003dc6:	00d58c33          	add	s8,a1,a3
 c003dca:	c319                	beqz	a4,c003dd0 <LZ4_decompress_safe_forceExtDict+0x36>
 c003dcc:	00f704b3          	add	s1,a4,a5
 c003dd0:	ff0b8793          	addi	a5,s7,-16
 c003dd4:	e03e                	sd	a5,0(sp)
 c003dd6:	fe0c0793          	addi	a5,s8,-32
 c003dda:	e43e                	sd	a5,8(sp)
 c003ddc:	ea95                	bnez	a3,c003e10 <LZ4_decompress_safe_forceExtDict+0x76>
 c003dde:	4785                	li	a5,1
 c003de0:	557d                	li	a0,-1
 c003de2:	00f61863          	bne	a2,a5,c003df2 <LZ4_decompress_safe_forceExtDict+0x58>
 c003de6:	000b4503          	lbu	a0,0(s6)
 c003dea:	00a03533          	snez	a0,a0
 c003dee:	0005250b          	ext	a0,a0,0,0
 c003df2:	60ea                	ld	ra,152(sp)
 c003df4:	644a                	ld	s0,144(sp)
 c003df6:	64aa                	ld	s1,136(sp)
 c003df8:	690a                	ld	s2,128(sp)
 c003dfa:	79e6                	ld	s3,120(sp)
 c003dfc:	7a46                	ld	s4,112(sp)
 c003dfe:	7aa6                	ld	s5,104(sp)
 c003e00:	7b06                	ld	s6,96(sp)
 c003e02:	6be6                	ld	s7,88(sp)
 c003e04:	6c46                	ld	s8,80(sp)
 c003e06:	6ca6                	ld	s9,72(sp)
 c003e08:	6d06                	ld	s10,64(sp)
 c003e0a:	7de2                	ld	s11,56(sp)
 c003e0c:	610d                	addi	sp,sp,160
 c003e0e:	8082                	ret
 c003e10:	557d                	li	a0,-1
 c003e12:	d265                	beqz	a2,c003df2 <LZ4_decompress_safe_forceExtDict+0x58>
 c003e14:	ffcb8793          	addi	a5,s7,-4
 c003e18:	e83e                	sd	a5,16(sp)
 c003e1a:	ff8b8793          	addi	a5,s7,-8
 c003e1e:	845a                	mv	s0,s6
 c003e20:	8cea                	mv	s9,s10
 c003e22:	ff4c0a13          	addi	s4,s8,-12
 c003e26:	ff9c0913          	addi	s2,s8,-7
 c003e2a:	ffbc0a93          	addi	s5,s8,-5
 c003e2e:	ec3e                	sd	a5,24(sp)
 c003e30:	9814468b          	lbuia	a3,(s0),1,0
 c003e34:	4ebd                	li	t4,15
 c003e36:	0046d793          	srli	a5,a3,0x4
 c003e3a:	0046d61b          	srliw	a2,a3,0x4
 c003e3e:	07d78363          	beq	a5,t4,c003ea4 <LZ4_decompress_safe_forceExtDict+0x10a>
 c003e42:	67a2                	ld	a5,8(sp)
 c003e44:	00cc8db3          	add	s11,s9,a2
 c003e48:	00c40533          	add	a0,s0,a2
 c003e4c:	0197b5b3          	sltu	a1,a5,s9
 c003e50:	0015c593          	xori	a1,a1,1
 c003e54:	0ff5f593          	andi	a1,a1,255
 c003e58:	c5c1                	beqz	a1,c003ee0 <LZ4_decompress_safe_forceExtDict+0x146>
 c003e5a:	6782                	ld	a5,0(sp)
 c003e5c:	08f47263          	bgeu	s0,a5,c003ee0 <LZ4_decompress_safe_forceExtDict+0x146>
 c003e60:	6010                	ld	a2,0(s0)
 c003e62:	8abd                	andi	a3,a3,15
 c003e64:	00ccb023          	sd	a2,0(s9)
 c003e68:	6410                	ld	a2,8(s0)
 c003e6a:	842a                	mv	s0,a0
 c003e6c:	00ccb423          	sd	a2,8(s9)
 c003e70:	b824458b          	lhuia	a1,(s0),2,0
 c003e74:	8636                	mv	a2,a3
 c003e76:	40bd8533          	sub	a0,s11,a1
 c003e7a:	0dd68063          	beq	a3,t4,c003f3a <LZ4_decompress_safe_forceExtDict+0x1a0>
 c003e7e:	471d                	li	a4,7
 c003e80:	0eb77063          	bgeu	a4,a1,c003f60 <LZ4_decompress_safe_forceExtDict+0x1c6>
 c003e84:	0da56e63          	bltu	a0,s10,c003f60 <LZ4_decompress_safe_forceExtDict+0x1c6>
 c003e88:	6118                	ld	a4,0(a0)
 c003e8a:	0691                	addi	a3,a3,4
 c003e8c:	00dd8cb3          	add	s9,s11,a3
 c003e90:	00edb023          	sd	a4,0(s11)
 c003e94:	6518                	ld	a4,8(a0)
 c003e96:	00edb423          	sd	a4,8(s11)
 c003e9a:	01055703          	lhu	a4,16(a0)
 c003e9e:	00ed9823          	sh	a4,16(s11)
 c003ea2:	b779                	j	c003e30 <LZ4_decompress_safe_forceExtDict+0x96>
 c003ea4:	ff1b8793          	addi	a5,s7,-15
 c003ea8:	06f47063          	bgeu	s0,a5,c003f08 <LZ4_decompress_safe_forceExtDict+0x16e>
 c003eac:	4601                	li	a2,0
 c003eae:	0ff00513          	li	a0,255
 c003eb2:	98144e8b          	lbuia	t4,(s0),1,0
 c003eb6:	00ce863b          	addw	a2,t4,a2
 c003eba:	04f47a63          	bgeu	s0,a5,c003f0e <LZ4_decompress_safe_forceExtDict+0x174>
 c003ebe:	feae8ae3          	beq	t4,a0,c003eb2 <LZ4_decompress_safe_forceExtDict+0x118>
 c003ec2:	4781                	li	a5,0
 c003ec4:	7c06360b          	extu	a2,a2,31,0
 c003ec8:	55fd                	li	a1,-1
 c003eca:	063d                	addi	a2,a2,15
 c003ecc:	1cb78a63          	beq	a5,a1,c0040a0 <LZ4_decompress_safe_forceExtDict+0x306>
 c003ed0:	019607b3          	add	a5,a2,s9
 c003ed4:	1d97e663          	bltu	a5,s9,c0040a0 <LZ4_decompress_safe_forceExtDict+0x306>
 c003ed8:	008607b3          	add	a5,a2,s0
 c003edc:	1c87e263          	bltu	a5,s0,c0040a0 <LZ4_decompress_safe_forceExtDict+0x306>
 c003ee0:	00cc8db3          	add	s11,s9,a2
 c003ee4:	00c405b3          	add	a1,s0,a2
 c003ee8:	01ba6563          	bltu	s4,s11,c003ef2 <LZ4_decompress_safe_forceExtDict+0x158>
 c003eec:	67e2                	ld	a5,24(sp)
 c003eee:	02b7f263          	bgeu	a5,a1,c003f12 <LZ4_decompress_safe_forceExtDict+0x178>
 c003ef2:	1abb9763          	bne	s7,a1,c0040a0 <LZ4_decompress_safe_forceExtDict+0x306>
 c003ef6:	1bbc6563          	bltu	s8,s11,c0040a0 <LZ4_decompress_safe_forceExtDict+0x306>
 c003efa:	85a2                	mv	a1,s0
 c003efc:	8566                	mv	a0,s9
 c003efe:	e2bfc0ef          	jal	ra,c000d28 <memmove>
 c003f02:	41ad853b          	subw	a0,s11,s10
 c003f06:	b5f5                	j	c003df2 <LZ4_decompress_safe_forceExtDict+0x58>
 c003f08:	57fd                	li	a5,-1
 c003f0a:	4601                	li	a2,0
 c003f0c:	bf65                	j	c003ec4 <LZ4_decompress_safe_forceExtDict+0x12a>
 c003f0e:	57f9                	li	a5,-2
 c003f10:	bf55                	j	c003ec4 <LZ4_decompress_safe_forceExtDict+0x12a>
 c003f12:	4601                	li	a2,0
 c003f14:	60c4450b          	lrd	a0,s0,a2,0
 c003f18:	60ccd50b          	srd	a0,s9,a2,0
 c003f1c:	0621                	addi	a2,a2,8
 c003f1e:	00cc8533          	add	a0,s9,a2
 c003f22:	ffb569e3          	bltu	a0,s11,c003f14 <LZ4_decompress_safe_forceExtDict+0x17a>
 c003f26:	842e                	mv	s0,a1
 c003f28:	b824458b          	lhuia	a1,(s0),2,0
 c003f2c:	00f6f613          	andi	a2,a3,15
 c003f30:	473d                	li	a4,15
 c003f32:	40bd8533          	sub	a0,s11,a1
 c003f36:	02e61563          	bne	a2,a4,c003f60 <LZ4_decompress_safe_forceExtDict+0x1c6>
 c003f3a:	4601                	li	a2,0
 c003f3c:	0ff00693          	li	a3,255
 c003f40:	98144e8b          	lbuia	t4,(s0),1,0
 c003f44:	67c2                	ld	a5,16(sp)
 c003f46:	00ce863b          	addw	a2,t4,a2
 c003f4a:	14f47b63          	bgeu	s0,a5,c0040a0 <LZ4_decompress_safe_forceExtDict+0x306>
 c003f4e:	fede89e3          	beq	t4,a3,c003f40 <LZ4_decompress_safe_forceExtDict+0x1a6>
 c003f52:	7c06360b          	extu	a2,a2,31,0
 c003f56:	063d                	addi	a2,a2,15
 c003f58:	01b60733          	add	a4,a2,s11
 c003f5c:	15b76263          	bltu	a4,s11,c0040a0 <LZ4_decompress_safe_forceExtDict+0x306>
 c003f60:	6741                	lui	a4,0x10
 c003f62:	0611                	addi	a2,a2,4
 c003f64:	00e9f663          	bgeu	s3,a4,c003f70 <LZ4_decompress_safe_forceExtDict+0x1d6>
 c003f68:	01350733          	add	a4,a0,s3
 c003f6c:	13a76a63          	bltu	a4,s10,c0040a0 <LZ4_decompress_safe_forceExtDict+0x306>
 c003f70:	00cd8cb3          	add	s9,s11,a2
 c003f74:	07a57663          	bgeu	a0,s10,c003fe0 <LZ4_decompress_safe_forceExtDict+0x246>
 c003f78:	139ae463          	bltu	s5,s9,c0040a0 <LZ4_decompress_safe_forceExtDict+0x306>
 c003f7c:	40ad06b3          	sub	a3,s10,a0
 c003f80:	40d485b3          	sub	a1,s1,a3
 c003f84:	00c6e663          	bltu	a3,a2,c003f90 <LZ4_decompress_safe_forceExtDict+0x1f6>
 c003f88:	856e                	mv	a0,s11
 c003f8a:	d9ffc0ef          	jal	ra,c000d28 <memmove>
 c003f8e:	b54d                	j	c003e30 <LZ4_decompress_safe_forceExtDict+0x96>
 c003f90:	40d60eb3          	sub	t4,a2,a3
 c003f94:	856e                	mv	a0,s11
 c003f96:	8636                	mv	a2,a3
 c003f98:	f476                	sd	t4,40(sp)
 c003f9a:	f036                	sd	a3,32(sp)
 c003f9c:	d2dfc0ef          	jal	ra,c000cc8 <memcpy>
 c003fa0:	7682                	ld	a3,32(sp)
 c003fa2:	7ea2                	ld	t4,40(sp)
 c003fa4:	00dd8533          	add	a0,s11,a3
 c003fa8:	41a507b3          	sub	a5,a0,s10
 c003fac:	03d7f563          	bgeu	a5,t4,c003fd6 <LZ4_decompress_safe_forceExtDict+0x23c>
 c003fb0:	4781                	li	a5,0
 c003fb2:	a031                	j	c003fbe <LZ4_decompress_safe_forceExtDict+0x224>
 c003fb4:	80fd468b          	lrbu	a3,s10,a5,0
 c003fb8:	00f5568b          	srb	a3,a0,a5,0
 c003fbc:	0785                	addi	a5,a5,1
 c003fbe:	00f506b3          	add	a3,a0,a5
 c003fc2:	ff96e9e3          	bltu	a3,s9,c003fb4 <LZ4_decompress_safe_forceExtDict+0x21a>
 c003fc6:	00acb733          	sltu	a4,s9,a0
 c003fca:	8676                	mv	a2,t4
 c003fcc:	42e0160b          	mvnez	a2,zero,a4
 c003fd0:	00c50cb3          	add	s9,a0,a2
 c003fd4:	bdb1                	j	c003e30 <LZ4_decompress_safe_forceExtDict+0x96>
 c003fd6:	8676                	mv	a2,t4
 c003fd8:	85ea                	mv	a1,s10
 c003fda:	ceffc0ef          	jal	ra,c000cc8 <memcpy>
 c003fde:	bd89                	j	c003e30 <LZ4_decompress_safe_forceExtDict+0x96>
 c003fe0:	469d                	li	a3,7
 c003fe2:	06b6ee63          	bltu	a3,a1,c00405e <LZ4_decompress_safe_forceExtDict+0x2c4>
 c003fe6:	000da023          	sw	zero,0(s11)
 c003fea:	00054683          	lbu	a3,0(a0)
 c003fee:	00004797          	auipc	a5,0x4
 c003ff2:	c9a78793          	addi	a5,a5,-870 # c007c88 <inc32table>
 c003ff6:	c4b7ce8b          	lrwu	t4,a5,a1,2
 c003ffa:	00dd8023          	sb	a3,0(s11)
 c003ffe:	00154683          	lbu	a3,1(a0)
 c004002:	00004797          	auipc	a5,0x4
 c004006:	c6678793          	addi	a5,a5,-922 # c007c68 <dec64table>
 c00400a:	01d50f33          	add	t5,a0,t4
 c00400e:	00dd80a3          	sb	a3,1(s11)
 c004012:	00254683          	lbu	a3,2(a0)
 c004016:	00dd8123          	sb	a3,2(s11)
 c00401a:	00354683          	lbu	a3,3(a0)
 c00401e:	00dd81a3          	sb	a3,3(s11)
 c004022:	41d5468b          	lrw	a3,a0,t4,0
 c004026:	00dda223          	sw	a3,4(s11)
 c00402a:	44b7c68b          	lrw	a3,a5,a1,2
 c00402e:	40df06b3          	sub	a3,t5,a3
 c004032:	059a7663          	bgeu	s4,s9,c00407e <LZ4_decompress_safe_forceExtDict+0x2e4>
 c004036:	079ae563          	bltu	s5,s9,c0040a0 <LZ4_decompress_safe_forceExtDict+0x306>
 c00403a:	008d8513          	addi	a0,s11,8
 c00403e:	01257e63          	bgeu	a0,s2,c00405a <LZ4_decompress_safe_forceExtDict+0x2c0>
 c004042:	8636                	mv	a2,a3
 c004044:	87aa                	mv	a5,a0
 c004046:	7886458b          	ldia	a1,(a2),8,0
 c00404a:	7887d58b          	sdia	a1,(a5),8,0
 c00404e:	ff27ece3          	bltu	a5,s2,c004046 <LZ4_decompress_safe_forceExtDict+0x2ac>
 c004052:	40a907b3          	sub	a5,s2,a0
 c004056:	96be                	add	a3,a3,a5
 c004058:	854a                	mv	a0,s2
 c00405a:	4781                	li	a5,0
 c00405c:	a821                	j	c004074 <LZ4_decompress_safe_forceExtDict+0x2da>
 c00405e:	86aa                	mv	a3,a0
 c004060:	7886c58b          	ldia	a1,(a3),8,0
 c004064:	00bdb023          	sd	a1,0(s11)
 c004068:	b7e9                	j	c004032 <LZ4_decompress_safe_forceExtDict+0x298>
 c00406a:	80f6c60b          	lrbu	a2,a3,a5,0
 c00406e:	00f5560b          	srb	a2,a0,a5,0
 c004072:	0785                	addi	a5,a5,1
 c004074:	00f50633          	add	a2,a0,a5
 c004078:	ff9669e3          	bltu	a2,s9,c00406a <LZ4_decompress_safe_forceExtDict+0x2d0>
 c00407c:	bb55                	j	c003e30 <LZ4_decompress_safe_forceExtDict+0x96>
 c00407e:	628c                	ld	a1,0(a3)
 c004080:	00bdb423          	sd	a1,8(s11)
 c004084:	45c1                	li	a1,16
 c004086:	dac5f5e3          	bgeu	a1,a2,c003e30 <LZ4_decompress_safe_forceExtDict+0x96>
 c00408a:	010d8513          	addi	a0,s11,16
 c00408e:	00868613          	addi	a2,a3,8
 c004092:	7886478b          	ldia	a5,(a2),8,0
 c004096:	7885578b          	sdia	a5,(a0),8,0
 c00409a:	ff956ce3          	bltu	a0,s9,c004092 <LZ4_decompress_safe_forceExtDict+0x2f8>
 c00409e:	bb49                	j	c003e30 <LZ4_decompress_safe_forceExtDict+0x96>
 c0040a0:	41640533          	sub	a0,s0,s6
 c0040a4:	fff54513          	not	a0,a0
 c0040a8:	2501                	sext.w	a0,a0
 c0040aa:	b3a1                	j	c003df2 <LZ4_decompress_safe_forceExtDict+0x58>
 c0040ac:	557d                	li	a0,-1
 c0040ae:	8082                	ret

000000000c0040b0 <LZ4_decompress_safe_usingDict>:
 c0040b0:	883e                	mv	a6,a5
 c0040b2:	e399                	bnez	a5,c0040b8 <LZ4_decompress_safe_usingDict+0x8>
 c0040b4:	80fff06f          	j	c0038c2 <LZ4_decompress_safe>
 c0040b8:	00f708b3          	add	a7,a4,a5
 c0040bc:	01159b63          	bne	a1,a7,c0040d2 <LZ4_decompress_safe_usingDict+0x22>
 c0040c0:	67c1                	lui	a5,0x10
 c0040c2:	17f9                	addi	a5,a5,-2
 c0040c4:	0107d463          	bge	a5,a6,c0040cc <LZ4_decompress_safe_usingDict+0x1c>
 c0040c8:	a69ff06f          	j	c003b30 <LZ4_decompress_safe_withPrefix64k>
 c0040cc:	8742                	mv	a4,a6
 c0040ce:	c76ff06f          	j	c003544 <LZ4_decompress_safe_withSmallPrefix>
 c0040d2:	b1e1                	j	c003d9a <LZ4_decompress_safe_forceExtDict>

000000000c0040d4 <LZ4F_isError>:
 c0040d4:	fed53513          	sltiu	a0,a0,-19
 c0040d8:	00154513          	xori	a0,a0,1
 c0040dc:	2501                	sext.w	a0,a0
 c0040de:	8082                	ret

000000000c0040e0 <LZ4F_getBlockSize>:
 c0040e0:	e111                	bnez	a0,c0040e4 <LZ4F_getBlockSize+0x4>
 c0040e2:	4511                	li	a0,4
 c0040e4:	ffc5069b          	addiw	a3,a0,-4
 c0040e8:	470d                	li	a4,3
 c0040ea:	5579                	li	a0,-2
 c0040ec:	00d76863          	bltu	a4,a3,c0040fc <LZ4F_getBlockSize+0x1c>
 c0040f0:	00004717          	auipc	a4,0x4
 c0040f4:	b5870713          	addi	a4,a4,-1192 # c007c48 <blockSizes.0>
 c0040f8:	76d7450b          	lurd	a0,a4,a3,3
 c0040fc:	8082                	ret

000000000c0040fe <LZ4F_decodeHeader>:
 c0040fe:	715d                	addi	sp,sp,-80
 c004100:	f84a                	sd	s2,48(sp)
 c004102:	e486                	sd	ra,72(sp)
 c004104:	e0a2                	sd	s0,64(sp)
 c004106:	fc26                	sd	s1,56(sp)
 c004108:	f44e                	sd	s3,40(sp)
 c00410a:	f052                	sd	s4,32(sp)
 c00410c:	ec56                	sd	s5,24(sp)
 c00410e:	e85a                	sd	s6,16(sp)
 c004110:	e45e                	sd	s7,8(sp)
 c004112:	e062                	sd	s8,0(sp)
 c004114:	4799                	li	a5,6
 c004116:	5951                	li	s2,-12
 c004118:	04c7f663          	bgeu	a5,a2,c004164 <LZ4F_decodeHeader+0x66>
 c00411c:	84ae                	mv	s1,a1
 c00411e:	8932                	mv	s2,a2
 c004120:	4581                	li	a1,0
 c004122:	02000613          	li	a2,32
 c004126:	842a                	mv	s0,a0
 c004128:	b47fc0ef          	jal	ra,c000c6e <memset>
 c00412c:	8526                	mv	a0,s1
 c00412e:	bf2ff0ef          	jal	ra,c003520 <LZ4F_readLE32>
 c004132:	2501                	sext.w	a0,a0
 c004134:	184d37b7          	lui	a5,0x184d3
 c004138:	ff057713          	andi	a4,a0,-16
 c00413c:	a5078793          	addi	a5,a5,-1456 # 184d2a50 <__BL2_END__+0xc4c37e0>
 c004140:	02f71f63          	bne	a4,a5,c00417e <LZ4F_decodeHeader+0x80>
 c004144:	4785                	li	a5,1
 c004146:	c45c                	sw	a5,12(s0)
 c004148:	0e840793          	addi	a5,s0,232
 c00414c:	00f49963          	bne	s1,a5,c00415e <LZ4F_decodeHeader+0x60>
 c004150:	47a1                	li	a5,8
 c004152:	e83c                	sd	a5,80(s0)
 c004154:	05243423          	sd	s2,72(s0)
 c004158:	47b5                	li	a5,13
 c00415a:	d05c                	sw	a5,36(s0)
 c00415c:	a021                	j	c004164 <LZ4F_decodeHeader+0x66>
 c00415e:	47b1                	li	a5,12
 c004160:	d05c                	sw	a5,36(s0)
 c004162:	4911                	li	s2,4
 c004164:	60a6                	ld	ra,72(sp)
 c004166:	6406                	ld	s0,64(sp)
 c004168:	74e2                	ld	s1,56(sp)
 c00416a:	79a2                	ld	s3,40(sp)
 c00416c:	7a02                	ld	s4,32(sp)
 c00416e:	6ae2                	ld	s5,24(sp)
 c004170:	6b42                	ld	s6,16(sp)
 c004172:	6ba2                	ld	s7,8(sp)
 c004174:	6c02                	ld	s8,0(sp)
 c004176:	854a                	mv	a0,s2
 c004178:	7942                	ld	s2,48(sp)
 c00417a:	6161                	addi	sp,sp,80
 c00417c:	8082                	ret
 c00417e:	184d27b7          	lui	a5,0x184d2
 c004182:	20478793          	addi	a5,a5,516 # 184d2204 <__BL2_END__+0xc4c2f94>
 c004186:	10f51763          	bne	a0,a5,c004294 <LZ4F_decodeHeader+0x196>
 c00418a:	00042623          	sw	zero,12(s0)
 c00418e:	0044ca83          	lbu	s5,4(s1)
 c004192:	041ab78b          	extu	a5,s5,1,1
 c004196:	8a56                	mv	s4,s5
 c004198:	006ad713          	srli	a4,s5,0x6
 c00419c:	0e079e63          	bnez	a5,c004298 <LZ4F_decodeHeader+0x19a>
 c0041a0:	4785                	li	a5,1
 c0041a2:	0ef71d63          	bne	a4,a5,c00429c <LZ4F_decodeHeader+0x19e>
 c0041a6:	0c3abc0b          	extu	s8,s5,3,3
 c0041aa:	49bd                	li	s3,15
 c0041ac:	000c1363          	bnez	s8,c0041b2 <LZ4F_decodeHeader+0xb4>
 c0041b0:	499d                	li	s3,7
 c0041b2:	001afa93          	andi	s5,s5,1
 c0041b6:	0559998b          	addsl	s3,s3,s5,2
 c0041ba:	03397063          	bgeu	s2,s3,c0041da <LZ4F_decodeHeader+0xdc>
 c0041be:	0e840513          	addi	a0,s0,232
 c0041c2:	00a48663          	beq	s1,a0,c0041ce <LZ4F_decodeHeader+0xd0>
 c0041c6:	864a                	mv	a2,s2
 c0041c8:	85a6                	mv	a1,s1
 c0041ca:	afffc0ef          	jal	ra,c000cc8 <memcpy>
 c0041ce:	05243423          	sd	s2,72(s0)
 c0041d2:	05343823          	sd	s3,80(s0)
 c0041d6:	4785                	li	a5,1
 c0041d8:	b749                	j	c00415a <LZ4F_decodeHeader+0x5c>
 c0041da:	0054c783          	lbu	a5,5(s1)
 c0041de:	5961                	li	s2,-8
 c0041e0:	fc77b68b          	extu	a3,a5,63,7
 c0041e4:	0047db9b          	srliw	s7,a5,0x4
 c0041e8:	feb5                	bnez	a3,c004164 <LZ4F_decodeHeader+0x66>
 c0041ea:	004bf713          	andi	a4,s7,4
 c0041ee:	5979                	li	s2,-2
 c0041f0:	db35                	beqz	a4,c004164 <LZ4F_decodeHeader+0x66>
 c0041f2:	8bbd                	andi	a5,a5,15
 c0041f4:	5961                	li	s2,-8
 c0041f6:	f7bd                	bnez	a5,c004164 <LZ4F_decodeHeader+0x66>
 c0041f8:	ffb98b13          	addi	s6,s3,-5
 c0041fc:	4601                	li	a2,0
 c0041fe:	85da                	mv	a1,s6
 c004200:	00448513          	addi	a0,s1,4
 c004204:	3f1000ef          	jal	ra,c004df4 <XXH32>
 c004208:	013487b3          	add	a5,s1,s3
 c00420c:	fff7c783          	lbu	a5,-1(a5)
 c004210:	3c85350b          	extu	a0,a0,15,8
 c004214:	593d                	li	s2,-17
 c004216:	f4a797e3          	bne	a5,a0,c004164 <LZ4F_decodeHeader+0x66>
 c00421a:	145a378b          	extu	a5,s4,5,5
 c00421e:	007bf513          	andi	a0,s7,7
 c004222:	c05c                	sw	a5,4(s0)
 c004224:	104a378b          	extu	a5,s4,4,4
 c004228:	082a3a0b          	extu	s4,s4,2,2
 c00422c:	cc5c                	sw	a5,28(s0)
 c00422e:	01442423          	sw	s4,8(s0)
 c004232:	c008                	sw	a0,0(s0)
 c004234:	eadff0ef          	jal	ra,c0040e0 <LZ4F_getBlockSize>
 c004238:	f808                	sd	a0,48(s0)
 c00423a:	040c0263          	beqz	s8,c00427e <LZ4F_decodeHeader+0x180>
 c00423e:	0074c783          	lbu	a5,7(s1)
 c004242:	0084c703          	lbu	a4,8(s1)
 c004246:	0064c683          	lbu	a3,6(s1)
 c00424a:	07a2                	slli	a5,a5,0x8
 c00424c:	0742                	slli	a4,a4,0x10
 c00424e:	97ba                	add	a5,a5,a4
 c004250:	0094c703          	lbu	a4,9(s1)
 c004254:	97b6                	add	a5,a5,a3
 c004256:	0762                	slli	a4,a4,0x18
 c004258:	97ba                	add	a5,a5,a4
 c00425a:	00a4c703          	lbu	a4,10(s1)
 c00425e:	1702                	slli	a4,a4,0x20
 c004260:	97ba                	add	a5,a5,a4
 c004262:	00b4c703          	lbu	a4,11(s1)
 c004266:	1722                	slli	a4,a4,0x28
 c004268:	973e                	add	a4,a4,a5
 c00426a:	00c4c783          	lbu	a5,12(s1)
 c00426e:	17c2                	slli	a5,a5,0x30
 c004270:	973e                	add	a4,a4,a5
 c004272:	00d4c783          	lbu	a5,13(s1)
 c004276:	17e2                	slli	a5,a5,0x38
 c004278:	97ba                	add	a5,a5,a4
 c00427a:	e81c                	sd	a5,16(s0)
 c00427c:	f41c                	sd	a5,40(s0)
 c00427e:	000a8763          	beqz	s5,c00428c <LZ4F_decodeHeader+0x18e>
 c004282:	01648533          	add	a0,s1,s6
 c004286:	a9aff0ef          	jal	ra,c003520 <LZ4F_readLE32>
 c00428a:	cc08                	sw	a0,24(s0)
 c00428c:	4789                	li	a5,2
 c00428e:	d05c                	sw	a5,36(s0)
 c004290:	894e                	mv	s2,s3
 c004292:	bdc9                	j	c004164 <LZ4F_decodeHeader+0x66>
 c004294:	594d                	li	s2,-13
 c004296:	b5f9                	j	c004164 <LZ4F_decodeHeader+0x66>
 c004298:	5961                	li	s2,-8
 c00429a:	b5e9                	j	c004164 <LZ4F_decodeHeader+0x66>
 c00429c:	5969                	li	s2,-6
 c00429e:	b5d9                	j	c004164 <LZ4F_decodeHeader+0x66>

000000000c0042a0 <LZ4F_createDecompressionContext>:
 c0042a0:	1101                	addi	sp,sp,-32
 c0042a2:	e822                	sd	s0,16(sp)
 c0042a4:	e426                	sd	s1,8(sp)
 c0042a6:	842a                	mv	s0,a0
 c0042a8:	84ae                	mv	s1,a1
 c0042aa:	4505                	li	a0,1
 c0042ac:	10000593          	li	a1,256
 c0042b0:	ec06                	sd	ra,24(sp)
 c0042b2:	bccfd0ef          	jal	ra,c00167e <LZ4_calloc>
 c0042b6:	e909                	bnez	a0,c0042c8 <LZ4F_createDecompressionContext+0x28>
 c0042b8:	00043023          	sd	zero,0(s0)
 c0042bc:	555d                	li	a0,-9
 c0042be:	60e2                	ld	ra,24(sp)
 c0042c0:	6442                	ld	s0,16(sp)
 c0042c2:	64a2                	ld	s1,8(sp)
 c0042c4:	6105                	addi	sp,sp,32
 c0042c6:	8082                	ret
 c0042c8:	d104                	sw	s1,32(a0)
 c0042ca:	e008                	sd	a0,0(s0)
 c0042cc:	4501                	li	a0,0
 c0042ce:	bfc5                	j	c0042be <LZ4F_createDecompressionContext+0x1e>

000000000c0042d0 <LZ4F_decompress>:
 c0042d0:	7131                	addi	sp,sp,-192
 c0042d2:	ed4e                	sd	s3,152(sp)
 c0042d4:	00073983          	ld	s3,0(a4)
 c0042d8:	e556                	sd	s5,136(sp)
 c0042da:	e15a                	sd	s6,128(sp)
 c0042dc:	f0ea                	sd	s10,96(sp)
 c0042de:	ecee                	sd	s11,88(sp)
 c0042e0:	fd06                	sd	ra,184(sp)
 c0042e2:	f922                	sd	s0,176(sp)
 c0042e4:	f526                	sd	s1,168(sp)
 c0042e6:	f14a                	sd	s2,160(sp)
 c0042e8:	e952                	sd	s4,144(sp)
 c0042ea:	fcde                	sd	s7,120(sp)
 c0042ec:	f8e2                	sd	s8,112(sp)
 c0042ee:	f4e6                	sd	s9,104(sp)
 c0042f0:	fad1560b          	sdd	a2,a3,(sp),1,4
 c0042f4:	e43e                	sd	a5,8(sp)
 c0042f6:	8d2a                	mv	s10,a0
 c0042f8:	8aae                	mv	s5,a1
 c0042fa:	8dba                	mv	s11,a4
 c0042fc:	99b6                	add	s3,s3,a3
 c0042fe:	4b01                	li	s6,0
 c004300:	c581                	beqz	a1,c004308 <LZ4F_decompress+0x38>
 c004302:	00063b03          	ld	s6,0(a2)
 c004306:	9b2e                	add	s6,s6,a1
 c004308:	0080                	addi	s0,sp,64
 c00430a:	4641                	li	a2,16
 c00430c:	4581                	li	a1,0
 c00430e:	8522                	mv	a0,s0
 c004310:	95ffc0ef          	jal	ra,c000c6e <memset>
 c004314:	67a2                	ld	a5,8(sp)
 c004316:	000db023          	sd	zero,0(s11)
 c00431a:	6ce2                	ld	s9,24(sp)
 c00431c:	40f4178b          	mveqz	a5,s0,a5
 c004320:	e43e                	sd	a5,8(sp)
 c004322:	67c2                	ld	a5,16(sp)
 c004324:	8956                	mv	s2,s5
 c004326:	4485                	li	s1,1
 c004328:	0007b023          	sd	zero,0(a5)
 c00432c:	0ecd0793          	addi	a5,s10,236
 c004330:	f43e                	sd	a5,40(sp)
 c004332:	0b8d0793          	addi	a5,s10,184
 c004336:	4a05                	li	s4,1
 c004338:	0e8d0b93          	addi	s7,s10,232
 c00433c:	088d0c13          	addi	s8,s10,136
 c004340:	f03e                	sd	a5,32(sp)
 c004342:	080a1963          	bnez	s4,c0043d4 <LZ4F_decompress+0x104>
 c004346:	004d2783          	lw	a5,4(s10)
 c00434a:	ebad                	bnez	a5,c0043bc <LZ4F_decompress+0xec>
 c00434c:	060d3583          	ld	a1,96(s10)
 c004350:	058d3503          	ld	a0,88(s10)
 c004354:	06a58463          	beq	a1,a0,c0043bc <LZ4F_decompress+0xec>
 c004358:	c1b5                	beqz	a1,c0043bc <LZ4F_decompress+0xec>
 c00435a:	67a2                	ld	a5,8(sp)
 c00435c:	439c                	lw	a5,0(a5)
 c00435e:	efb9                	bnez	a5,c0043bc <LZ4F_decompress+0xec>
 c004360:	024d2703          	lw	a4,36(s10)
 c004364:	479d                	li	a5,7
 c004366:	ffe7069b          	addiw	a3,a4,-2
 c00436a:	04d7e963          	bltu	a5,a3,c0043bc <LZ4F_decompress+0xec>
 c00436e:	46a5                	li	a3,9
 c004370:	068d3783          	ld	a5,104(s10)
 c004374:	6cd71263          	bne	a4,a3,c004a38 <LZ4F_decompress+0x768>
 c004378:	080d3683          	ld	a3,128(s10)
 c00437c:	070d3403          	ld	s0,112(s10)
 c004380:	078d3703          	ld	a4,120(s10)
 c004384:	8f95                	sub	a5,a5,a3
 c004386:	66c1                	lui	a3,0x10
 c004388:	8c09                	sub	s0,s0,a0
 c00438a:	4601                	li	a2,0
 c00438c:	00e6e863          	bltu	a3,a4,c00439c <LZ4F_decompress+0xcc>
 c004390:	40e68633          	sub	a2,a3,a4
 c004394:	00c43733          	sltu	a4,s0,a2
 c004398:	42e4160b          	mvnez	a2,s0,a4
 c00439c:	8f91                	sub	a5,a5,a2
 c00439e:	40c40733          	sub	a4,s0,a2
 c0043a2:	95be                	add	a1,a1,a5
 c0043a4:	953a                	add	a0,a0,a4
 c0043a6:	923fc0ef          	jal	ra,c000cc8 <memcpy>
 c0043aa:	058d3783          	ld	a5,88(s10)
 c0043ae:	06fd3023          	sd	a5,96(s10)
 c0043b2:	080d3783          	ld	a5,128(s10)
 c0043b6:	943e                	add	s0,s0,a5
 c0043b8:	068d3423          	sd	s0,104(s10)
 c0043bc:	67e2                	ld	a5,24(sp)
 c0043be:	41590933          	sub	s2,s2,s5
 c0043c2:	8526                	mv	a0,s1
 c0043c4:	40fc88b3          	sub	a7,s9,a5
 c0043c8:	67c2                	ld	a5,16(sp)
 c0043ca:	011db023          	sd	a7,0(s11)
 c0043ce:	0127b023          	sd	s2,0(a5)
 c0043d2:	a045                	j	c004472 <LZ4F_decompress+0x1a2>
 c0043d4:	024d2783          	lw	a5,36(s10)
 c0043d8:	4739                	li	a4,14
 c0043da:	f6f764e3          	bltu	a4,a5,c004342 <LZ4F_decompress+0x72>
 c0043de:	024d6783          	lwu	a5,36(s10)
 c0043e2:	00004717          	auipc	a4,0x4
 c0043e6:	82670713          	addi	a4,a4,-2010 # c007c08 <__func__.1+0x10>
 c0043ea:	44f7478b          	lrw	a5,a4,a5,2
 c0043ee:	97ba                	add	a5,a5,a4
 c0043f0:	8782                	jr	a5
 c0043f2:	41998633          	sub	a2,s3,s9
 c0043f6:	47c9                	li	a5,18
 c0043f8:	00c7fd63          	bgeu	a5,a2,c004412 <LZ4F_decompress+0x142>
 c0043fc:	85e6                	mv	a1,s9
 c0043fe:	856a                	mv	a0,s10
 c004400:	cffff0ef          	jal	ra,c0040fe <LZ4F_decodeHeader>
 c004404:	57b1                	li	a5,-20
 c004406:	06a7e663          	bltu	a5,a0,c004472 <LZ4F_decompress+0x1a2>
 c00440a:	00ac8433          	add	s0,s9,a0
 c00440e:	8ca2                	mv	s9,s0
 c004410:	bf0d                	j	c004342 <LZ4F_decompress+0x72>
 c004412:	040d3423          	sd	zero,72(s10)
 c004416:	653c8563          	beq	s9,s3,c004a60 <LZ4F_decompress+0x790>
 c00441a:	479d                	li	a5,7
 c00441c:	04fd3823          	sd	a5,80(s10)
 c004420:	4785                	li	a5,1
 c004422:	02fd2223          	sw	a5,36(s10)
 c004426:	048d3503          	ld	a0,72(s10)
 c00442a:	050d3403          	ld	s0,80(s10)
 c00442e:	41998633          	sub	a2,s3,s9
 c004432:	85e6                	mv	a1,s9
 c004434:	8c09                	sub	s0,s0,a0
 c004436:	008637b3          	sltu	a5,a2,s0
 c00443a:	42f6140b          	mvnez	s0,a2,a5
 c00443e:	8622                	mv	a2,s0
 c004440:	955e                	add	a0,a0,s7
 c004442:	887fc0ef          	jal	ra,c000cc8 <memcpy>
 c004446:	048d3783          	ld	a5,72(s10)
 c00444a:	050d3603          	ld	a2,80(s10)
 c00444e:	97a2                	add	a5,a5,s0
 c004450:	04fd3423          	sd	a5,72(s10)
 c004454:	9466                	add	s0,s0,s9
 c004456:	00c7f763          	bgeu	a5,a2,c004464 <LZ4F_decompress+0x194>
 c00445a:	0611                	addi	a2,a2,4
 c00445c:	40f604b3          	sub	s1,a2,a5
 c004460:	4a01                	li	s4,0
 c004462:	b775                	j	c00440e <LZ4F_decompress+0x13e>
 c004464:	85de                	mv	a1,s7
 c004466:	856a                	mv	a0,s10
 c004468:	c97ff0ef          	jal	ra,c0040fe <LZ4F_decodeHeader>
 c00446c:	57b1                	li	a5,-20
 c00446e:	faa7f0e3          	bgeu	a5,a0,c00440e <LZ4F_decompress+0x13e>
 c004472:	70ea                	ld	ra,184(sp)
 c004474:	744a                	ld	s0,176(sp)
 c004476:	74aa                	ld	s1,168(sp)
 c004478:	790a                	ld	s2,160(sp)
 c00447a:	69ea                	ld	s3,152(sp)
 c00447c:	6a4a                	ld	s4,144(sp)
 c00447e:	6aaa                	ld	s5,136(sp)
 c004480:	6b0a                	ld	s6,128(sp)
 c004482:	7be6                	ld	s7,120(sp)
 c004484:	7c46                	ld	s8,112(sp)
 c004486:	7ca6                	ld	s9,104(sp)
 c004488:	7d06                	ld	s10,96(sp)
 c00448a:	6de6                	ld	s11,88(sp)
 c00448c:	6129                	addi	sp,sp,192
 c00448e:	8082                	ret
 c004490:	008d2783          	lw	a5,8(s10)
 c004494:	c789                	beqz	a5,c00449e <LZ4F_decompress+0x1ce>
 c004496:	4581                	li	a1,0
 c004498:	8562                	mv	a0,s8
 c00449a:	31f000ef          	jal	ra,c004fb8 <XXH32_reset>
 c00449e:	004d2403          	lw	s0,4(s10)
 c0044a2:	030d3783          	ld	a5,48(s10)
 c0044a6:	00143413          	seqz	s0,s0
 c0044aa:	0446                	slli	s0,s0,0x11
 c0044ac:	943e                	add	s0,s0,a5
 c0044ae:	038d3783          	ld	a5,56(s10)
 c0044b2:	0287fe63          	bgeu	a5,s0,c0044ee <LZ4F_decompress+0x21e>
 c0044b6:	040d3503          	ld	a0,64(s10)
 c0044ba:	020d3c23          	sd	zero,56(s10)
 c0044be:	9e8fd0ef          	jal	ra,c0016a6 <LZ4_free>
 c0044c2:	030d3503          	ld	a0,48(s10)
 c0044c6:	0511                	addi	a0,a0,4
 c0044c8:	9b0fd0ef          	jal	ra,c001678 <LZ4_malloc>
 c0044cc:	04ad3023          	sd	a0,64(s10)
 c0044d0:	e119                	bnez	a0,c0044d6 <LZ4F_decompress+0x206>
 c0044d2:	555d                	li	a0,-9
 c0044d4:	bf79                	j	c004472 <LZ4F_decompress+0x1a2>
 c0044d6:	058d3503          	ld	a0,88(s10)
 c0044da:	9ccfd0ef          	jal	ra,c0016a6 <LZ4_free>
 c0044de:	8522                	mv	a0,s0
 c0044e0:	998fd0ef          	jal	ra,c001678 <LZ4_malloc>
 c0044e4:	04ad3c23          	sd	a0,88(s10)
 c0044e8:	d56d                	beqz	a0,c0044d2 <LZ4F_decompress+0x202>
 c0044ea:	028d3c23          	sd	s0,56(s10)
 c0044ee:	058d3783          	ld	a5,88(s10)
 c0044f2:	040d3423          	sd	zero,72(s10)
 c0044f6:	040d3823          	sd	zero,80(s10)
 c0044fa:	06fd3823          	sd	a5,112(s10)
 c0044fe:	478d                	li	a5,3
 c004500:	080d3023          	sd	zero,128(s10)
 c004504:	060d3c23          	sd	zero,120(s10)
 c004508:	02fd2223          	sw	a5,36(s10)
 c00450c:	419987b3          	sub	a5,s3,s9
 c004510:	470d                	li	a4,3
 c004512:	00f77b63          	bgeu	a4,a5,c004528 <LZ4F_decompress+0x258>
 c004516:	024d2703          	lw	a4,36(s10)
 c00451a:	4791                	li	a5,4
 c00451c:	004c8413          	addi	s0,s9,4
 c004520:	04f71963          	bne	a4,a5,c004572 <LZ4F_decompress+0x2a2>
 c004524:	8ca2                	mv	s9,s0
 c004526:	a031                	j	c004532 <LZ4F_decompress+0x262>
 c004528:	4791                	li	a5,4
 c00452a:	040d3423          	sd	zero,72(s10)
 c00452e:	02fd2223          	sw	a5,36(s10)
 c004532:	048d3703          	ld	a4,72(s10)
 c004536:	4791                	li	a5,4
 c004538:	040d3503          	ld	a0,64(s10)
 c00453c:	40e786b3          	sub	a3,a5,a4
 c004540:	41998633          	sub	a2,s3,s9
 c004544:	00c6b5b3          	sltu	a1,a3,a2
 c004548:	42b6960b          	mvnez	a2,a3,a1
 c00454c:	953a                	add	a0,a0,a4
 c00454e:	85e6                	mv	a1,s9
 c004550:	f832                	sd	a2,48(sp)
 c004552:	f76fc0ef          	jal	ra,c000cc8 <memcpy>
 c004556:	048d3703          	ld	a4,72(s10)
 c00455a:	7642                	ld	a2,48(sp)
 c00455c:	4791                	li	a5,4
 c00455e:	00cc8433          	add	s0,s9,a2
 c004562:	963a                	add	a2,a2,a4
 c004564:	04cd3423          	sd	a2,72(s10)
 c004568:	470d                	li	a4,3
 c00456a:	48c77163          	bgeu	a4,a2,c0049ec <LZ4F_decompress+0x71c>
 c00456e:	040d3c83          	ld	s9,64(s10)
 c004572:	8566                	mv	a0,s9
 c004574:	fadfe0ef          	jal	ra,c003520 <LZ4F_readLE32>
 c004578:	2501                	sext.w	a0,a0
 c00457a:	47a9                	li	a5,10
 c00457c:	c50d                	beqz	a0,c0045a6 <LZ4F_decompress+0x2d6>
 c00457e:	030d3683          	ld	a3,48(s10)
 c004582:	7805370b          	extu	a4,a0,30,0
 c004586:	7c07378b          	extu	a5,a4,31,0
 c00458a:	4ce6ed63          	bltu	a3,a4,c004a64 <LZ4F_decompress+0x794>
 c00458e:	01cd2703          	lw	a4,28(s10)
 c004592:	00055d63          	bgez	a0,c0045ac <LZ4F_decompress+0x2dc>
 c004596:	04fd3823          	sd	a5,80(s10)
 c00459a:	c709                	beqz	a4,c0045a4 <LZ4F_decompress+0x2d4>
 c00459c:	7502                	ld	a0,32(sp)
 c00459e:	4581                	li	a1,0
 c0045a0:	219000ef          	jal	ra,c004fb8 <XXH32_reset>
 c0045a4:	4795                	li	a5,5
 c0045a6:	02fd2223          	sw	a5,36(s10)
 c0045aa:	b595                	j	c00440e <LZ4F_decompress+0x13e>
 c0045ac:	7c07370b          	extu	a4,a4,31,0
 c0045b0:	04e7978b          	addsl	a5,a5,a4,2
 c0045b4:	471d                	li	a4,7
 c0045b6:	04fd3823          	sd	a5,80(s10)
 c0045ba:	02ed2223          	sw	a4,36(s10)
 c0045be:	01690463          	beq	s2,s6,c0045c6 <LZ4F_decompress+0x2f6>
 c0045c2:	e53416e3          	bne	s0,s3,c00440e <LZ4F_decompress+0x13e>
 c0045c6:	00478493          	addi	s1,a5,4
 c0045ca:	bd59                	j	c004460 <LZ4F_decompress+0x190>
 c0045cc:	4601                	li	a2,0
 c0045ce:	06090a63          	beqz	s2,c004642 <LZ4F_decompress+0x372>
 c0045d2:	419987b3          	sub	a5,s3,s9
 c0045d6:	412b0633          	sub	a2,s6,s2
 c0045da:	00c7b733          	sltu	a4,a5,a2
 c0045de:	42e7960b          	mvnez	a2,a5,a4
 c0045e2:	050d3783          	ld	a5,80(s10)
 c0045e6:	85e6                	mv	a1,s9
 c0045e8:	854a                	mv	a0,s2
 c0045ea:	00c7b733          	sltu	a4,a5,a2
 c0045ee:	42e7960b          	mvnez	a2,a5,a4
 c0045f2:	f832                	sd	a2,48(sp)
 c0045f4:	ed4fc0ef          	jal	ra,c000cc8 <memcpy>
 c0045f8:	01cd2783          	lw	a5,28(s10)
 c0045fc:	7642                	ld	a2,48(sp)
 c0045fe:	c791                	beqz	a5,c00460a <LZ4F_decompress+0x33a>
 c004600:	7502                	ld	a0,32(sp)
 c004602:	85e6                	mv	a1,s9
 c004604:	20b000ef          	jal	ra,c00500e <XXH32_update>
 c004608:	7642                	ld	a2,48(sp)
 c00460a:	008d2783          	lw	a5,8(s10)
 c00460e:	c799                	beqz	a5,c00461c <LZ4F_decompress+0x34c>
 c004610:	85e6                	mv	a1,s9
 c004612:	8562                	mv	a0,s8
 c004614:	f832                	sd	a2,48(sp)
 c004616:	1f9000ef          	jal	ra,c00500e <XXH32_update>
 c00461a:	7642                	ld	a2,48(sp)
 c00461c:	010d3783          	ld	a5,16(s10)
 c004620:	c791                	beqz	a5,c00462c <LZ4F_decompress+0x35c>
 c004622:	028d3783          	ld	a5,40(s10)
 c004626:	8f91                	sub	a5,a5,a2
 c004628:	02fd3423          	sd	a5,40(s10)
 c00462c:	004d2783          	lw	a5,4(s10)
 c004630:	eb89                	bnez	a5,c004642 <LZ4F_decompress+0x372>
 c004632:	4701                	li	a4,0
 c004634:	86d6                	mv	a3,s5
 c004636:	85ca                	mv	a1,s2
 c004638:	856a                	mv	a0,s10
 c00463a:	f832                	sd	a2,48(sp)
 c00463c:	97eff0ef          	jal	ra,c0037ba <LZ4F_updateDict>
 c004640:	7642                	ld	a2,48(sp)
 c004642:	050d3783          	ld	a5,80(s10)
 c004646:	01cd2703          	lw	a4,28(s10)
 c00464a:	00cc8433          	add	s0,s9,a2
 c00464e:	9932                	add	s2,s2,a2
 c004650:	00c79863          	bne	a5,a2,c004660 <LZ4F_decompress+0x390>
 c004654:	28070763          	beqz	a4,c0048e2 <LZ4F_decompress+0x612>
 c004658:	040d3423          	sd	zero,72(s10)
 c00465c:	4799                	li	a5,6
 c00465e:	b7a1                	j	c0045a6 <LZ4F_decompress+0x2d6>
 c004660:	40c78633          	sub	a2,a5,a2
 c004664:	04cd3823          	sd	a2,80(s10)
 c004668:	00e03733          	snez	a4,a4
 c00466c:	0611                	addi	a2,a2,4
 c00466e:	04e6148b          	addsl	s1,a2,a4,2
 c004672:	b3fd                	j	c004460 <LZ4F_decompress+0x190>
 c004674:	419987b3          	sub	a5,s3,s9
 c004678:	470d                	li	a4,3
 c00467a:	048d3503          	ld	a0,72(s10)
 c00467e:	02f75363          	bge	a4,a5,c0046a4 <LZ4F_decompress+0x3d4>
 c004682:	e10d                	bnez	a0,c0046a4 <LZ4F_decompress+0x3d4>
 c004684:	004c8413          	addi	s0,s9,4
 c004688:	8766                	mv	a4,s9
 c00468a:	853a                	mv	a0,a4
 c00468c:	e95fe0ef          	jal	ra,c003520 <LZ4F_readLE32>
 c004690:	00050c9b          	sext.w	s9,a0
 c004694:	7502                	ld	a0,32(sp)
 c004696:	349000ef          	jal	ra,c0051de <XXH32_digest>
 c00469a:	2501                	sext.w	a0,a0
 c00469c:	24ac8363          	beq	s9,a0,c0048e2 <LZ4F_decompress+0x612>
 c0046a0:	5565                	li	a0,-7
 c0046a2:	bbc1                	j	c004472 <LZ4F_decompress+0x1a2>
 c0046a4:	4411                	li	s0,4
 c0046a6:	8c09                	sub	s0,s0,a0
 c0046a8:	0087b733          	sltu	a4,a5,s0
 c0046ac:	42e7940b          	mvnez	s0,a5,a4
 c0046b0:	8622                	mv	a2,s0
 c0046b2:	85e6                	mv	a1,s9
 c0046b4:	955e                	add	a0,a0,s7
 c0046b6:	f85e                	sd	s7,48(sp)
 c0046b8:	e10fc0ef          	jal	ra,c000cc8 <memcpy>
 c0046bc:	048d3783          	ld	a5,72(s10)
 c0046c0:	468d                	li	a3,3
 c0046c2:	7742                	ld	a4,48(sp)
 c0046c4:	97a2                	add	a5,a5,s0
 c0046c6:	04fd3423          	sd	a5,72(s10)
 c0046ca:	9466                	add	s0,s0,s9
 c0046cc:	d8f6fae3          	bgeu	a3,a5,c004460 <LZ4F_decompress+0x190>
 c0046d0:	bf6d                	j	c00468a <LZ4F_decompress+0x3ba>
 c0046d2:	050d3403          	ld	s0,80(s10)
 c0046d6:	419987b3          	sub	a5,s3,s9
 c0046da:	0087f963          	bgeu	a5,s0,c0046ec <LZ4F_decompress+0x41c>
 c0046de:	47a1                	li	a5,8
 c0046e0:	040d3423          	sd	zero,72(s10)
 c0046e4:	02fd2223          	sw	a5,36(s10)
 c0046e8:	8466                	mv	s0,s9
 c0046ea:	b315                	j	c00440e <LZ4F_decompress+0x13e>
 c0046ec:	9466                	add	s0,s0,s9
 c0046ee:	01cd2783          	lw	a5,28(s10)
 c0046f2:	16079163          	bnez	a5,c004854 <LZ4F_decompress+0x584>
 c0046f6:	030d3683          	ld	a3,48(s10)
 c0046fa:	412b0633          	sub	a2,s6,s2
 c0046fe:	060d3703          	ld	a4,96(s10)
 c004702:	068d3783          	ld	a5,104(s10)
 c004706:	16d67e63          	bgeu	a2,a3,c004882 <LZ4F_decompress+0x5b2>
 c00470a:	004d2683          	lw	a3,4(s10)
 c00470e:	ea95                	bnez	a3,c004742 <LZ4F_decompress+0x472>
 c004710:	058d3683          	ld	a3,88(s10)
 c004714:	1cd71963          	bne	a4,a3,c0048e6 <LZ4F_decompress+0x616>
 c004718:	000206b7          	lui	a3,0x20
 c00471c:	00f6fc63          	bgeu	a3,a5,c004734 <LZ4F_decompress+0x464>
 c004720:	75c1                	lui	a1,0xffff0
 c004722:	95be                	add	a1,a1,a5
 c004724:	6641                	lui	a2,0x10
 c004726:	95ba                	add	a1,a1,a4
 c004728:	853a                	mv	a0,a4
 c00472a:	d9efc0ef          	jal	ra,c000cc8 <memcpy>
 c00472e:	67c1                	lui	a5,0x10
 c004730:	06fd3423          	sd	a5,104(s10)
 c004734:	058d3783          	ld	a5,88(s10)
 c004738:	068d3703          	ld	a4,104(s10)
 c00473c:	97ba                	add	a5,a5,a4
 c00473e:	06fd3823          	sd	a5,112(s10)
 c004742:	060d3703          	ld	a4,96(s10)
 c004746:	068d3783          	ld	a5,104(s10)
 c00474a:	cb09                	beqz	a4,c00475c <LZ4F_decompress+0x48c>
 c00474c:	400006b7          	lui	a3,0x40000
 c004750:	00f6f663          	bgeu	a3,a5,c00475c <LZ4F_decompress+0x48c>
 c004754:	76c1                	lui	a3,0xffff0
 c004756:	97b6                	add	a5,a5,a3
 c004758:	973e                	add	a4,a4,a5
 c00475a:	67c1                	lui	a5,0x10
 c00475c:	030d2683          	lw	a3,48(s10)
 c004760:	050d2603          	lw	a2,80(s10)
 c004764:	070d3583          	ld	a1,112(s10)
 c004768:	8566                	mv	a0,s9
 c00476a:	2781                	sext.w	a5,a5
 c00476c:	945ff0ef          	jal	ra,c0040b0 <LZ4_decompress_safe_usingDict>
 c004770:	8caa                	mv	s9,a0
 c004772:	2e054d63          	bltz	a0,c004a6c <LZ4F_decompress+0x79c>
 c004776:	008d2783          	lw	a5,8(s10)
 c00477a:	c799                	beqz	a5,c004788 <LZ4F_decompress+0x4b8>
 c00477c:	070d3583          	ld	a1,112(s10)
 c004780:	862a                	mv	a2,a0
 c004782:	8562                	mv	a0,s8
 c004784:	08b000ef          	jal	ra,c00500e <XXH32_update>
 c004788:	010d3783          	ld	a5,16(s10)
 c00478c:	c799                	beqz	a5,c00479a <LZ4F_decompress+0x4ca>
 c00478e:	028d3783          	ld	a5,40(s10)
 c004792:	419787b3          	sub	a5,a5,s9
 c004796:	02fd3423          	sd	a5,40(s10)
 c00479a:	47a5                	li	a5,9
 c00479c:	079d3c23          	sd	s9,120(s10)
 c0047a0:	080d3023          	sd	zero,128(s10)
 c0047a4:	02fd2223          	sw	a5,36(s10)
 c0047a8:	04090563          	beqz	s2,c0047f2 <LZ4F_decompress+0x522>
 c0047ac:	080d3783          	ld	a5,128(s10)
 c0047b0:	078d3603          	ld	a2,120(s10)
 c0047b4:	070d3583          	ld	a1,112(s10)
 c0047b8:	412b0733          	sub	a4,s6,s2
 c0047bc:	8e1d                	sub	a2,a2,a5
 c0047be:	00c736b3          	sltu	a3,a4,a2
 c0047c2:	40d6170b          	mveqz	a4,a2,a3
 c0047c6:	95be                	add	a1,a1,a5
 c0047c8:	863a                	mv	a2,a4
 c0047ca:	854a                	mv	a0,s2
 c0047cc:	8cba                	mv	s9,a4
 c0047ce:	cfafc0ef          	jal	ra,c000cc8 <memcpy>
 c0047d2:	004d2783          	lw	a5,4(s10)
 c0047d6:	eb81                	bnez	a5,c0047e6 <LZ4F_decompress+0x516>
 c0047d8:	4705                	li	a4,1
 c0047da:	86d6                	mv	a3,s5
 c0047dc:	8666                	mv	a2,s9
 c0047de:	85ca                	mv	a1,s2
 c0047e0:	856a                	mv	a0,s10
 c0047e2:	fd9fe0ef          	jal	ra,c0037ba <LZ4F_updateDict>
 c0047e6:	080d3783          	ld	a5,128(s10)
 c0047ea:	9966                	add	s2,s2,s9
 c0047ec:	97e6                	add	a5,a5,s9
 c0047ee:	08fd3023          	sd	a5,128(s10)
 c0047f2:	080d3703          	ld	a4,128(s10)
 c0047f6:	078d3783          	ld	a5,120(s10)
 c0047fa:	0ef70463          	beq	a4,a5,c0048e2 <LZ4F_decompress+0x612>
 c0047fe:	4491                	li	s1,4
 c004800:	b185                	j	c004460 <LZ4F_decompress+0x190>
 c004802:	048d3783          	ld	a5,72(s10)
 c004806:	050d3403          	ld	s0,80(s10)
 c00480a:	41998633          	sub	a2,s3,s9
 c00480e:	040d3503          	ld	a0,64(s10)
 c004812:	8c1d                	sub	s0,s0,a5
 c004814:	00863733          	sltu	a4,a2,s0
 c004818:	42e6140b          	mvnez	s0,a2,a4
 c00481c:	8622                	mv	a2,s0
 c00481e:	953e                	add	a0,a0,a5
 c004820:	85e6                	mv	a1,s9
 c004822:	ca6fc0ef          	jal	ra,c000cc8 <memcpy>
 c004826:	048d3783          	ld	a5,72(s10)
 c00482a:	00f40733          	add	a4,s0,a5
 c00482e:	050d3783          	ld	a5,80(s10)
 c004832:	04ed3423          	sd	a4,72(s10)
 c004836:	9466                	add	s0,s0,s9
 c004838:	00f77b63          	bgeu	a4,a5,c00484e <LZ4F_decompress+0x57e>
 c00483c:	01cd2483          	lw	s1,28(s10)
 c004840:	0791                	addi	a5,a5,4
 c004842:	8f99                	sub	a5,a5,a4
 c004844:	009034b3          	snez	s1,s1
 c004848:	0497948b          	addsl	s1,a5,s1,2
 c00484c:	b911                	j	c004460 <LZ4F_decompress+0x190>
 c00484e:	040d3c83          	ld	s9,64(s10)
 c004852:	bd71                	j	c0046ee <LZ4F_decompress+0x41e>
 c004854:	050d3583          	ld	a1,80(s10)
 c004858:	15f1                	addi	a1,a1,-4
 c00485a:	04bd3823          	sd	a1,80(s10)
 c00485e:	00bc8533          	add	a0,s9,a1
 c004862:	fc2e                	sd	a1,56(sp)
 c004864:	cbdfe0ef          	jal	ra,c003520 <LZ4F_readLE32>
 c004868:	75e2                	ld	a1,56(sp)
 c00486a:	0005079b          	sext.w	a5,a0
 c00486e:	4601                	li	a2,0
 c004870:	8566                	mv	a0,s9
 c004872:	f83e                	sd	a5,48(sp)
 c004874:	580000ef          	jal	ra,c004df4 <XXH32>
 c004878:	77c2                	ld	a5,48(sp)
 c00487a:	2501                	sext.w	a0,a0
 c00487c:	e6a78de3          	beq	a5,a0,c0046f6 <LZ4F_decompress+0x426>
 c004880:	b505                	j	c0046a0 <LZ4F_decompress+0x3d0>
 c004882:	cb09                	beqz	a4,c004894 <LZ4F_decompress+0x5c4>
 c004884:	40000637          	lui	a2,0x40000
 c004888:	00f67663          	bgeu	a2,a5,c004894 <LZ4F_decompress+0x5c4>
 c00488c:	75c1                	lui	a1,0xffff0
 c00488e:	97ae                	add	a5,a5,a1
 c004890:	973e                	add	a4,a4,a5
 c004892:	67c1                	lui	a5,0x10
 c004894:	050d2603          	lw	a2,80(s10)
 c004898:	8566                	mv	a0,s9
 c00489a:	2781                	sext.w	a5,a5
 c00489c:	2681                	sext.w	a3,a3
 c00489e:	85ca                	mv	a1,s2
 c0048a0:	811ff0ef          	jal	ra,c0040b0 <LZ4_decompress_safe_usingDict>
 c0048a4:	8caa                	mv	s9,a0
 c0048a6:	1c054163          	bltz	a0,c004a68 <LZ4F_decompress+0x798>
 c0048aa:	008d2783          	lw	a5,8(s10)
 c0048ae:	c791                	beqz	a5,c0048ba <LZ4F_decompress+0x5ea>
 c0048b0:	862a                	mv	a2,a0
 c0048b2:	85ca                	mv	a1,s2
 c0048b4:	8562                	mv	a0,s8
 c0048b6:	758000ef          	jal	ra,c00500e <XXH32_update>
 c0048ba:	010d3783          	ld	a5,16(s10)
 c0048be:	c799                	beqz	a5,c0048cc <LZ4F_decompress+0x5fc>
 c0048c0:	028d3783          	ld	a5,40(s10)
 c0048c4:	419787b3          	sub	a5,a5,s9
 c0048c8:	02fd3423          	sd	a5,40(s10)
 c0048cc:	004d2783          	lw	a5,4(s10)
 c0048d0:	eb81                	bnez	a5,c0048e0 <LZ4F_decompress+0x610>
 c0048d2:	4701                	li	a4,0
 c0048d4:	86d6                	mv	a3,s5
 c0048d6:	8666                	mv	a2,s9
 c0048d8:	85ca                	mv	a1,s2
 c0048da:	856a                	mv	a0,s10
 c0048dc:	edffe0ef          	jal	ra,c0037ba <LZ4F_updateDict>
 c0048e0:	9966                	add	s2,s2,s9
 c0048e2:	478d                	li	a5,3
 c0048e4:	b1c9                	j	c0045a6 <LZ4F_decompress+0x2d6>
 c0048e6:	6741                	lui	a4,0x10
 c0048e8:	00f77363          	bgeu	a4,a5,c0048ee <LZ4F_decompress+0x61e>
 c0048ec:	67c1                	lui	a5,0x10
 c0048ee:	97b6                	add	a5,a5,a3
 c0048f0:	b5b9                	j	c00473e <LZ4F_decompress+0x46e>
 c0048f2:	8466                	mv	s0,s9
 c0048f4:	bd55                	j	c0047a8 <LZ4F_decompress+0x4d8>
 c0048f6:	028d3483          	ld	s1,40(s10)
 c0048fa:	16049b63          	bnez	s1,c004a70 <LZ4F_decompress+0x7a0>
 c0048fe:	008d2a03          	lw	s4,8(s10)
 c004902:	000a1963          	bnez	s4,c004914 <LZ4F_decompress+0x644>
 c004906:	020d2223          	sw	zero,36(s10)
 c00490a:	060d3023          	sd	zero,96(s10)
 c00490e:	060d3423          	sd	zero,104(s10)
 c004912:	bbd9                	j	c0046e8 <LZ4F_decompress+0x418>
 c004914:	419987b3          	sub	a5,s3,s9
 c004918:	470d                	li	a4,3
 c00491a:	04f74863          	blt	a4,a5,c00496a <LZ4F_decompress+0x69a>
 c00491e:	47ad                	li	a5,11
 c004920:	040d3423          	sd	zero,72(s10)
 c004924:	02fd2223          	sw	a5,36(s10)
 c004928:	048d3783          	ld	a5,72(s10)
 c00492c:	4491                	li	s1,4
 c00492e:	040d3503          	ld	a0,64(s10)
 c004932:	40f48633          	sub	a2,s1,a5
 c004936:	41998a33          	sub	s4,s3,s9
 c00493a:	01463733          	sltu	a4,a2,s4
 c00493e:	42e61a0b          	mvnez	s4,a2,a4
 c004942:	8652                	mv	a2,s4
 c004944:	953e                	add	a0,a0,a5
 c004946:	85e6                	mv	a1,s9
 c004948:	b80fc0ef          	jal	ra,c000cc8 <memcpy>
 c00494c:	048d3603          	ld	a2,72(s10)
 c004950:	014c8433          	add	s0,s9,s4
 c004954:	478d                	li	a5,3
 c004956:	9a32                	add	s4,s4,a2
 c004958:	054d3423          	sd	s4,72(s10)
 c00495c:	414484b3          	sub	s1,s1,s4
 c004960:	b147f0e3          	bgeu	a5,s4,c004460 <LZ4F_decompress+0x190>
 c004964:	040d3c83          	ld	s9,64(s10)
 c004968:	a019                	j	c00496e <LZ4F_decompress+0x69e>
 c00496a:	004c8413          	addi	s0,s9,4
 c00496e:	8566                	mv	a0,s9
 c004970:	bb1fe0ef          	jal	ra,c003520 <LZ4F_readLE32>
 c004974:	0005049b          	sext.w	s1,a0
 c004978:	8562                	mv	a0,s8
 c00497a:	065000ef          	jal	ra,c0051de <XXH32_digest>
 c00497e:	2501                	sext.w	a0,a0
 c004980:	0ea49a63          	bne	s1,a0,c004a74 <LZ4F_decompress+0x7a4>
 c004984:	020d2223          	sw	zero,36(s10)
 c004988:	060d3023          	sd	zero,96(s10)
 c00498c:	060d3423          	sd	zero,104(s10)
 c004990:	4481                	li	s1,0
 c004992:	b4f9                	j	c004460 <LZ4F_decompress+0x190>
 c004994:	419987b3          	sub	a5,s3,s9
 c004998:	470d                	li	a4,3
 c00499a:	004c8413          	addi	s0,s9,4
 c00499e:	04f74b63          	blt	a4,a5,c0049f4 <LZ4F_decompress+0x724>
 c0049a2:	4791                	li	a5,4
 c0049a4:	04fd3423          	sd	a5,72(s10)
 c0049a8:	47a1                	li	a5,8
 c0049aa:	04fd3823          	sd	a5,80(s10)
 c0049ae:	47b5                	li	a5,13
 c0049b0:	02fd2223          	sw	a5,36(s10)
 c0049b4:	048d3503          	ld	a0,72(s10)
 c0049b8:	050d3603          	ld	a2,80(s10)
 c0049bc:	419987b3          	sub	a5,s3,s9
 c0049c0:	85e6                	mv	a1,s9
 c0049c2:	8e09                	sub	a2,a2,a0
 c0049c4:	00c7b733          	sltu	a4,a5,a2
 c0049c8:	42e7960b          	mvnez	a2,a5,a4
 c0049cc:	955e                	add	a0,a0,s7
 c0049ce:	f832                	sd	a2,48(sp)
 c0049d0:	af8fc0ef          	jal	ra,c000cc8 <memcpy>
 c0049d4:	048d3783          	ld	a5,72(s10)
 c0049d8:	7642                	ld	a2,48(sp)
 c0049da:	00cc8433          	add	s0,s9,a2
 c0049de:	963e                	add	a2,a2,a5
 c0049e0:	050d3783          	ld	a5,80(s10)
 c0049e4:	04cd3423          	sd	a2,72(s10)
 c0049e8:	00f67563          	bgeu	a2,a5,c0049f2 <LZ4F_decompress+0x722>
 c0049ec:	40c784b3          	sub	s1,a5,a2
 c0049f0:	bc85                	j	c004460 <LZ4F_decompress+0x190>
 c0049f2:	7ca2                	ld	s9,40(sp)
 c0049f4:	8566                	mv	a0,s9
 c0049f6:	b2bfe0ef          	jal	ra,c003520 <LZ4F_readLE32>
 c0049fa:	7c05350b          	extu	a0,a0,31,0
 c0049fe:	00ad3823          	sd	a0,16(s10)
 c004a02:	04ad3823          	sd	a0,80(s10)
 c004a06:	47b9                	li	a5,14
 c004a08:	be79                	j	c0045a6 <LZ4F_decompress+0x2d6>
 c004a0a:	050d3483          	ld	s1,80(s10)
 c004a0e:	41998633          	sub	a2,s3,s9
 c004a12:	4a01                	li	s4,0
 c004a14:	00c4b7b3          	sltu	a5,s1,a2
 c004a18:	42f4960b          	mvnez	a2,s1,a5
 c004a1c:	8c91                	sub	s1,s1,a2
 c004a1e:	049d3823          	sd	s1,80(s10)
 c004a22:	00cc8433          	add	s0,s9,a2
 c004a26:	9e0494e3          	bnez	s1,c00440e <LZ4F_decompress+0x13e>
 c004a2a:	020d2223          	sw	zero,36(s10)
 c004a2e:	060d3023          	sd	zero,96(s10)
 c004a32:	060d3423          	sd	zero,104(s10)
 c004a36:	bae1                	j	c00440e <LZ4F_decompress+0x13e>
 c004a38:	6741                	lui	a4,0x10
 c004a3a:	843e                	mv	s0,a5
 c004a3c:	00f77363          	bgeu	a4,a5,c004a42 <LZ4F_decompress+0x772>
 c004a40:	6441                	lui	s0,0x10
 c004a42:	8f81                	sub	a5,a5,s0
 c004a44:	95be                	add	a1,a1,a5
 c004a46:	8622                	mv	a2,s0
 c004a48:	a80fc0ef          	jal	ra,c000cc8 <memcpy>
 c004a4c:	058d3783          	ld	a5,88(s10)
 c004a50:	068d3423          	sd	s0,104(s10)
 c004a54:	06fd3023          	sd	a5,96(s10)
 c004a58:	97a2                	add	a5,a5,s0
 c004a5a:	06fd3823          	sd	a5,112(s10)
 c004a5e:	bab9                	j	c0043bc <LZ4F_decompress+0xec>
 c004a60:	451d                	li	a0,7
 c004a62:	bc01                	j	c004472 <LZ4F_decompress+0x1a2>
 c004a64:	5579                	li	a0,-2
 c004a66:	b431                	j	c004472 <LZ4F_decompress+0x1a2>
 c004a68:	557d                	li	a0,-1
 c004a6a:	b421                	j	c004472 <LZ4F_decompress+0x1a2>
 c004a6c:	5541                	li	a0,-16
 c004a6e:	b411                	j	c004472 <LZ4F_decompress+0x1a2>
 c004a70:	5549                	li	a0,-14
 c004a72:	b401                	j	c004472 <LZ4F_decompress+0x1a2>
 c004a74:	5539                	li	a0,-18
 c004a76:	baf5                	j	c004472 <LZ4F_decompress+0x1a2>

000000000c004a78 <XXH32_avalanche>:
 c004a78:	00f5579b          	srliw	a5,a0,0xf
 c004a7c:	8fa9                	xor	a5,a5,a0
 c004a7e:	85ebd537          	lui	a0,0x85ebd
 c004a82:	a775051b          	addiw	a0,a0,-1417
 c004a86:	02f5053b          	mulw	a0,a0,a5
 c004a8a:	00d5579b          	srliw	a5,a0,0xd
 c004a8e:	8fa9                	xor	a5,a5,a0
 c004a90:	c2b2b537          	lui	a0,0xc2b2b
 c004a94:	e3d5051b          	addiw	a0,a0,-451
 c004a98:	02f5053b          	mulw	a0,a0,a5
 c004a9c:	0105579b          	srliw	a5,a0,0x10
 c004aa0:	8d3d                	xor	a0,a0,a5
 c004aa2:	2501                	sext.w	a0,a0
 c004aa4:	8082                	ret

000000000c004aa6 <XXH_read32>:
 c004aa6:	1101                	addi	sp,sp,-32
 c004aa8:	85aa                	mv	a1,a0
 c004aaa:	4611                	li	a2,4
 c004aac:	0068                	addi	a0,sp,12
 c004aae:	ec06                	sd	ra,24(sp)
 c004ab0:	a18fc0ef          	jal	ra,c000cc8 <memcpy>
 c004ab4:	60e2                	ld	ra,24(sp)
 c004ab6:	4532                	lw	a0,12(sp)
 c004ab8:	6105                	addi	sp,sp,32
 c004aba:	8082                	ret

000000000c004abc <XXH32_finalize.constprop.0>:
 c004abc:	1101                	addi	sp,sp,-32
 c004abe:	8a3d                	andi	a2,a2,15
 c004ac0:	e822                	sd	s0,16(sp)
 c004ac2:	ec06                	sd	ra,24(sp)
 c004ac4:	e426                	sd	s1,8(sp)
 c004ac6:	e04a                	sd	s2,0(sp)
 c004ac8:	167d                	addi	a2,a2,-1
 c004aca:	47b9                	li	a5,14
 c004acc:	842a                	mv	s0,a0
 c004ace:	30c7eb63          	bltu	a5,a2,c004de4 <XXH32_finalize.constprop.0+0x328>
 c004ad2:	00003717          	auipc	a4,0x3
 c004ad6:	1d670713          	addi	a4,a4,470 # c007ca8 <inc32table+0x20>
 c004ada:	44c7478b          	lrw	a5,a4,a2,2
 c004ade:	84ae                	mv	s1,a1
 c004ae0:	8936                	mv	s2,a3
 c004ae2:	97ba                	add	a5,a5,a4
 c004ae4:	8782                	jr	a5
 c004ae6:	4785                	li	a5,1
 c004ae8:	08f69963          	bne	a3,a5,c004b7a <XXH32_finalize.constprop.0+0xbe>
 c004aec:	852e                	mv	a0,a1
 c004aee:	fb9ff0ef          	jal	ra,c004aa6 <XXH_read32>
 c004af2:	0005079b          	sext.w	a5,a0
 c004af6:	c2b2b737          	lui	a4,0xc2b2b
 c004afa:	e3d7071b          	addiw	a4,a4,-451
 c004afe:	24f7140b          	mulaw	s0,a4,a5
 c004b02:	27d4f7b7          	lui	a5,0x27d4f
 c004b06:	b2f7879b          	addiw	a5,a5,-1233
 c004b0a:	0491                	addi	s1,s1,4
 c004b0c:	14f4140b          	srriw	s0,s0,15
 c004b10:	02f4043b          	mulw	s0,s0,a5
 c004b14:	4785                	li	a5,1
 c004b16:	06f91463          	bne	s2,a5,c004b7e <XXH32_finalize.constprop.0+0xc2>
 c004b1a:	8526                	mv	a0,s1
 c004b1c:	f8bff0ef          	jal	ra,c004aa6 <XXH_read32>
 c004b20:	0005079b          	sext.w	a5,a0
 c004b24:	c2b2b737          	lui	a4,0xc2b2b
 c004b28:	e3d7071b          	addiw	a4,a4,-451
 c004b2c:	24f7140b          	mulaw	s0,a4,a5
 c004b30:	27d4f7b7          	lui	a5,0x27d4f
 c004b34:	b2f7879b          	addiw	a5,a5,-1233
 c004b38:	0491                	addi	s1,s1,4
 c004b3a:	14f4140b          	srriw	s0,s0,15
 c004b3e:	02f4043b          	mulw	s0,s0,a5
 c004b42:	4785                	li	a5,1
 c004b44:	02f91f63          	bne	s2,a5,c004b82 <XXH32_finalize.constprop.0+0xc6>
 c004b48:	8526                	mv	a0,s1
 c004b4a:	f5dff0ef          	jal	ra,c004aa6 <XXH_read32>
 c004b4e:	0005079b          	sext.w	a5,a0
 c004b52:	c2b2b737          	lui	a4,0xc2b2b
 c004b56:	e3d7071b          	addiw	a4,a4,-451
 c004b5a:	24f7140b          	mulaw	s0,a4,a5
 c004b5e:	27d4f7b7          	lui	a5,0x27d4f
 c004b62:	b2f7879b          	addiw	a5,a5,-1233
 c004b66:	14f4150b          	srriw	a0,s0,15
 c004b6a:	02a7853b          	mulw	a0,a5,a0
 c004b6e:	6442                	ld	s0,16(sp)
 c004b70:	60e2                	ld	ra,24(sp)
 c004b72:	64a2                	ld	s1,8(sp)
 c004b74:	6902                	ld	s2,0(sp)
 c004b76:	6105                	addi	sp,sp,32
 c004b78:	b701                	j	c004a78 <XXH32_avalanche>
 c004b7a:	419c                	lw	a5,0(a1)
 c004b7c:	bfad                	j	c004af6 <XXH32_finalize.constprop.0+0x3a>
 c004b7e:	409c                	lw	a5,0(s1)
 c004b80:	b755                	j	c004b24 <XXH32_finalize.constprop.0+0x68>
 c004b82:	409c                	lw	a5,0(s1)
 c004b84:	b7f9                	j	c004b52 <XXH32_finalize.constprop.0+0x96>
 c004b86:	4785                	li	a5,1
 c004b88:	0af69263          	bne	a3,a5,c004c2c <XXH32_finalize.constprop.0+0x170>
 c004b8c:	852e                	mv	a0,a1
 c004b8e:	f19ff0ef          	jal	ra,c004aa6 <XXH_read32>
 c004b92:	0005079b          	sext.w	a5,a0
 c004b96:	c2b2b737          	lui	a4,0xc2b2b
 c004b9a:	e3d7071b          	addiw	a4,a4,-451
 c004b9e:	24f7140b          	mulaw	s0,a4,a5
 c004ba2:	27d4f7b7          	lui	a5,0x27d4f
 c004ba6:	b2f7879b          	addiw	a5,a5,-1233
 c004baa:	0491                	addi	s1,s1,4
 c004bac:	14f4140b          	srriw	s0,s0,15
 c004bb0:	02f4043b          	mulw	s0,s0,a5
 c004bb4:	4785                	li	a5,1
 c004bb6:	06f91d63          	bne	s2,a5,c004c30 <XXH32_finalize.constprop.0+0x174>
 c004bba:	8526                	mv	a0,s1
 c004bbc:	eebff0ef          	jal	ra,c004aa6 <XXH_read32>
 c004bc0:	0005079b          	sext.w	a5,a0
 c004bc4:	c2b2b737          	lui	a4,0xc2b2b
 c004bc8:	e3d7071b          	addiw	a4,a4,-451
 c004bcc:	24f7140b          	mulaw	s0,a4,a5
 c004bd0:	27d4f7b7          	lui	a5,0x27d4f
 c004bd4:	b2f7879b          	addiw	a5,a5,-1233
 c004bd8:	0491                	addi	s1,s1,4
 c004bda:	14f4140b          	srriw	s0,s0,15
 c004bde:	02f4043b          	mulw	s0,s0,a5
 c004be2:	4785                	li	a5,1
 c004be4:	04f91863          	bne	s2,a5,c004c34 <XXH32_finalize.constprop.0+0x178>
 c004be8:	8526                	mv	a0,s1
 c004bea:	ebdff0ef          	jal	ra,c004aa6 <XXH_read32>
 c004bee:	0005079b          	sext.w	a5,a0
 c004bf2:	c2b2b737          	lui	a4,0xc2b2b
 c004bf6:	e3d7071b          	addiw	a4,a4,-451
 c004bfa:	24f7140b          	mulaw	s0,a4,a5
 c004bfe:	0044c783          	lbu	a5,4(s1)
 c004c02:	16566537          	lui	a0,0x16566
 c004c06:	7b15051b          	addiw	a0,a0,1969
 c004c0a:	02a787bb          	mulw	a5,a5,a0
 c004c0e:	27d4f737          	lui	a4,0x27d4f
 c004c12:	14f4140b          	srriw	s0,s0,15
 c004c16:	b2f7071b          	addiw	a4,a4,-1233
 c004c1a:	24e4178b          	mulaw	a5,s0,a4
 c004c1e:	9e378537          	lui	a0,0x9e378
 c004c22:	9b15051b          	addiw	a0,a0,-1615
 c004c26:	1557978b          	srriw	a5,a5,21
 c004c2a:	b781                	j	c004b6a <XXH32_finalize.constprop.0+0xae>
 c004c2c:	419c                	lw	a5,0(a1)
 c004c2e:	b7a5                	j	c004b96 <XXH32_finalize.constprop.0+0xda>
 c004c30:	409c                	lw	a5,0(s1)
 c004c32:	bf49                	j	c004bc4 <XXH32_finalize.constprop.0+0x108>
 c004c34:	409c                	lw	a5,0(s1)
 c004c36:	bf75                	j	c004bf2 <XXH32_finalize.constprop.0+0x136>
 c004c38:	4785                	li	a5,1
 c004c3a:	0af69a63          	bne	a3,a5,c004cee <XXH32_finalize.constprop.0+0x232>
 c004c3e:	852e                	mv	a0,a1
 c004c40:	e67ff0ef          	jal	ra,c004aa6 <XXH_read32>
 c004c44:	0005079b          	sext.w	a5,a0
 c004c48:	c2b2b737          	lui	a4,0xc2b2b
 c004c4c:	e3d7071b          	addiw	a4,a4,-451
 c004c50:	24f7140b          	mulaw	s0,a4,a5
 c004c54:	27d4f7b7          	lui	a5,0x27d4f
 c004c58:	b2f7879b          	addiw	a5,a5,-1233
 c004c5c:	0491                	addi	s1,s1,4
 c004c5e:	14f4140b          	srriw	s0,s0,15
 c004c62:	02f4043b          	mulw	s0,s0,a5
 c004c66:	4785                	li	a5,1
 c004c68:	08f91563          	bne	s2,a5,c004cf2 <XXH32_finalize.constprop.0+0x236>
 c004c6c:	8526                	mv	a0,s1
 c004c6e:	e39ff0ef          	jal	ra,c004aa6 <XXH_read32>
 c004c72:	0005079b          	sext.w	a5,a0
 c004c76:	c2b2b737          	lui	a4,0xc2b2b
 c004c7a:	e3d7071b          	addiw	a4,a4,-451
 c004c7e:	24f7140b          	mulaw	s0,a4,a5
 c004c82:	27d4f7b7          	lui	a5,0x27d4f
 c004c86:	b2f7879b          	addiw	a5,a5,-1233
 c004c8a:	0491                	addi	s1,s1,4
 c004c8c:	14f4140b          	srriw	s0,s0,15
 c004c90:	02f4043b          	mulw	s0,s0,a5
 c004c94:	4785                	li	a5,1
 c004c96:	06f91063          	bne	s2,a5,c004cf6 <XXH32_finalize.constprop.0+0x23a>
 c004c9a:	8526                	mv	a0,s1
 c004c9c:	e0bff0ef          	jal	ra,c004aa6 <XXH_read32>
 c004ca0:	0005079b          	sext.w	a5,a0
 c004ca4:	c2b2b737          	lui	a4,0xc2b2b
 c004ca8:	e3d7071b          	addiw	a4,a4,-451
 c004cac:	24f7140b          	mulaw	s0,a4,a5
 c004cb0:	0044c703          	lbu	a4,4(s1)
 c004cb4:	165667b7          	lui	a5,0x16566
 c004cb8:	7b17869b          	addiw	a3,a5,1969
 c004cbc:	02d7073b          	mulw	a4,a4,a3
 c004cc0:	27d4f7b7          	lui	a5,0x27d4f
 c004cc4:	b2f7879b          	addiw	a5,a5,-1233
 c004cc8:	14f4140b          	srriw	s0,s0,15
 c004ccc:	24f4170b          	mulaw	a4,s0,a5
 c004cd0:	0054c783          	lbu	a5,5(s1)
 c004cd4:	9e378537          	lui	a0,0x9e378
 c004cd8:	9b15051b          	addiw	a0,a0,-1615
 c004cdc:	02d787bb          	mulw	a5,a5,a3
 c004ce0:	1557170b          	srriw	a4,a4,21
 c004ce4:	24a7178b          	mulaw	a5,a4,a0
 c004ce8:	1557978b          	srriw	a5,a5,21
 c004cec:	bdbd                	j	c004b6a <XXH32_finalize.constprop.0+0xae>
 c004cee:	419c                	lw	a5,0(a1)
 c004cf0:	bfa1                	j	c004c48 <XXH32_finalize.constprop.0+0x18c>
 c004cf2:	409c                	lw	a5,0(s1)
 c004cf4:	b749                	j	c004c76 <XXH32_finalize.constprop.0+0x1ba>
 c004cf6:	409c                	lw	a5,0(s1)
 c004cf8:	b775                	j	c004ca4 <XXH32_finalize.constprop.0+0x1e8>
 c004cfa:	4785                	li	a5,1
 c004cfc:	0ef69663          	bne	a3,a5,c004de8 <XXH32_finalize.constprop.0+0x32c>
 c004d00:	852e                	mv	a0,a1
 c004d02:	da5ff0ef          	jal	ra,c004aa6 <XXH_read32>
 c004d06:	0005079b          	sext.w	a5,a0
 c004d0a:	c2b2b737          	lui	a4,0xc2b2b
 c004d0e:	e3d7071b          	addiw	a4,a4,-451
 c004d12:	24f7140b          	mulaw	s0,a4,a5
 c004d16:	27d4f7b7          	lui	a5,0x27d4f
 c004d1a:	b2f7879b          	addiw	a5,a5,-1233
 c004d1e:	0491                	addi	s1,s1,4
 c004d20:	14f4140b          	srriw	s0,s0,15
 c004d24:	02f4043b          	mulw	s0,s0,a5
 c004d28:	4785                	li	a5,1
 c004d2a:	0cf91163          	bne	s2,a5,c004dec <XXH32_finalize.constprop.0+0x330>
 c004d2e:	8526                	mv	a0,s1
 c004d30:	d77ff0ef          	jal	ra,c004aa6 <XXH_read32>
 c004d34:	0005079b          	sext.w	a5,a0
 c004d38:	c2b2b737          	lui	a4,0xc2b2b
 c004d3c:	e3d7071b          	addiw	a4,a4,-451
 c004d40:	24f7140b          	mulaw	s0,a4,a5
 c004d44:	27d4f7b7          	lui	a5,0x27d4f
 c004d48:	b2f7879b          	addiw	a5,a5,-1233
 c004d4c:	0491                	addi	s1,s1,4
 c004d4e:	14f4140b          	srriw	s0,s0,15
 c004d52:	02f4043b          	mulw	s0,s0,a5
 c004d56:	4785                	li	a5,1
 c004d58:	08f91c63          	bne	s2,a5,c004df0 <XXH32_finalize.constprop.0+0x334>
 c004d5c:	8526                	mv	a0,s1
 c004d5e:	d49ff0ef          	jal	ra,c004aa6 <XXH_read32>
 c004d62:	0005079b          	sext.w	a5,a0
 c004d66:	c2b2b737          	lui	a4,0xc2b2b
 c004d6a:	e3d7071b          	addiw	a4,a4,-451
 c004d6e:	24f7140b          	mulaw	s0,a4,a5
 c004d72:	27d4f7b7          	lui	a5,0x27d4f
 c004d76:	b2f7879b          	addiw	a5,a5,-1233
 c004d7a:	0491                	addi	s1,s1,4
 c004d7c:	14f4140b          	srriw	s0,s0,15
 c004d80:	02f4043b          	mulw	s0,s0,a5
 c004d84:	9814c70b          	lbuia	a4,(s1),1,0
 c004d88:	165667b7          	lui	a5,0x16566
 c004d8c:	7b17879b          	addiw	a5,a5,1969
 c004d90:	24f7140b          	mulaw	s0,a4,a5
 c004d94:	9e3787b7          	lui	a5,0x9e378
 c004d98:	9b17879b          	addiw	a5,a5,-1615
 c004d9c:	1554140b          	srriw	s0,s0,21
 c004da0:	02f4043b          	mulw	s0,s0,a5
 c004da4:	9814c70b          	lbuia	a4,(s1),1,0
 c004da8:	165667b7          	lui	a5,0x16566
 c004dac:	7b17879b          	addiw	a5,a5,1969
 c004db0:	24f7140b          	mulaw	s0,a4,a5
 c004db4:	9e3787b7          	lui	a5,0x9e378
 c004db8:	9b17879b          	addiw	a5,a5,-1615
 c004dbc:	1554140b          	srriw	s0,s0,21
 c004dc0:	02f4043b          	mulw	s0,s0,a5
 c004dc4:	0004c703          	lbu	a4,0(s1)
 c004dc8:	165667b7          	lui	a5,0x16566
 c004dcc:	7b17879b          	addiw	a5,a5,1969
 c004dd0:	24f7140b          	mulaw	s0,a4,a5
 c004dd4:	9e3787b7          	lui	a5,0x9e378
 c004dd8:	9b17879b          	addiw	a5,a5,-1615
 c004ddc:	1554140b          	srriw	s0,s0,21
 c004de0:	02f4043b          	mulw	s0,s0,a5
 c004de4:	8522                	mv	a0,s0
 c004de6:	b361                	j	c004b6e <XXH32_finalize.constprop.0+0xb2>
 c004de8:	419c                	lw	a5,0(a1)
 c004dea:	b705                	j	c004d0a <XXH32_finalize.constprop.0+0x24e>
 c004dec:	409c                	lw	a5,0(s1)
 c004dee:	b7a9                	j	c004d38 <XXH32_finalize.constprop.0+0x27c>
 c004df0:	409c                	lw	a5,0(s1)
 c004df2:	bf95                	j	c004d66 <XXH32_finalize.constprop.0+0x2aa>

000000000c004df4 <XXH32>:
 c004df4:	711d                	addi	sp,sp,-96
 c004df6:	e8a2                	sd	s0,80(sp)
 c004df8:	e0ca                	sd	s2,64(sp)
 c004dfa:	fc4e                	sd	s3,56(sp)
 c004dfc:	ec86                	sd	ra,88(sp)
 c004dfe:	e4a6                	sd	s1,72(sp)
 c004e00:	f852                	sd	s4,48(sp)
 c004e02:	f456                	sd	s5,40(sp)
 c004e04:	f05a                	sd	s6,32(sp)
 c004e06:	ec5e                	sd	s7,24(sp)
 c004e08:	e862                	sd	s8,16(sp)
 c004e0a:	e466                	sd	s9,8(sp)
 c004e0c:	00357793          	andi	a5,a0,3
 c004e10:	892a                	mv	s2,a0
 c004e12:	89ae                	mv	s3,a1
 c004e14:	8432                	mv	s0,a2
 c004e16:	efe9                	bnez	a5,c004ef0 <XXH32+0xfc>
 c004e18:	47bd                	li	a5,15
 c004e1a:	0cb7f563          	bgeu	a5,a1,c004ee4 <XXH32+0xf0>
 c004e1e:	242347b7          	lui	a5,0x24234
 c004e22:	ff158813          	addi	a6,a1,-15 # fffffffffffefff1 <__BL2_END__+0xfffffffff3fe0d81>
 c004e26:	4287879b          	addiw	a5,a5,1064
 c004e2a:	982a                	add	a6,a6,a0
 c004e2c:	9fb1                	addw	a5,a5,a2
 c004e2e:	61c88537          	lui	a0,0x61c88
 c004e32:	85ebd637          	lui	a2,0x85ebd
 c004e36:	a776061b          	addiw	a2,a2,-1417
 c004e3a:	64f5051b          	addiw	a0,a0,1615
 c004e3e:	9e3785b7          	lui	a1,0x9e378
 c004e42:	0086073b          	addw	a4,a2,s0
 c004e46:	9d21                	addw	a0,a0,s0
 c004e48:	86ca                	mv	a3,s2
 c004e4a:	9b15859b          	addiw	a1,a1,-1615
 c004e4e:	0006a883          	lw	a7,0(a3) # ffffffffffff0000 <__BL2_END__+0xfffffffff3fe0d90>
 c004e52:	24c8978b          	mulaw	a5,a7,a2
 c004e56:	0046a883          	lw	a7,4(a3)
 c004e5a:	24c8970b          	mulaw	a4,a7,a2
 c004e5e:	0086a883          	lw	a7,8(a3)
 c004e62:	1537978b          	srriw	a5,a5,19
 c004e66:	02b787bb          	mulw	a5,a5,a1
 c004e6a:	24c8940b          	mulaw	s0,a7,a2
 c004e6e:	00c6a883          	lw	a7,12(a3)
 c004e72:	1537170b          	srriw	a4,a4,19
 c004e76:	06c1                	addi	a3,a3,16
 c004e78:	24c8950b          	mulaw	a0,a7,a2
 c004e7c:	1534140b          	srriw	s0,s0,19
 c004e80:	02b7073b          	mulw	a4,a4,a1
 c004e84:	02b4043b          	mulw	s0,s0,a1
 c004e88:	1535150b          	srriw	a0,a0,19
 c004e8c:	02b5053b          	mulw	a0,a0,a1
 c004e90:	fb06efe3          	bltu	a3,a6,c004e4e <XXH32+0x5a>
 c004e94:	00190593          	addi	a1,s2,1
 c004e98:	46c1                	li	a3,16
 c004e9a:	00b86663          	bltu	a6,a1,c004ea6 <XXH32+0xb2>
 c004e9e:	ff098693          	addi	a3,s3,-16
 c004ea2:	9ac1                	andi	a3,a3,-16
 c004ea4:	06c1                	addi	a3,a3,16
 c004ea6:	15f7978b          	srriw	a5,a5,31
 c004eaa:	1597170b          	srriw	a4,a4,25
 c004eae:	9fb9                	addw	a5,a5,a4
 c004eb0:	1544140b          	srriw	s0,s0,20
 c004eb4:	9fa1                	addw	a5,a5,s0
 c004eb6:	14e5150b          	srriw	a0,a0,14
 c004eba:	9936                	add	s2,s2,a3
 c004ebc:	9d3d                	addw	a0,a0,a5
 c004ebe:	4681                	li	a3,0
 c004ec0:	6446                	ld	s0,80(sp)
 c004ec2:	60e6                	ld	ra,88(sp)
 c004ec4:	64a6                	ld	s1,72(sp)
 c004ec6:	7a42                	ld	s4,48(sp)
 c004ec8:	7aa2                	ld	s5,40(sp)
 c004eca:	7b02                	ld	s6,32(sp)
 c004ecc:	6be2                	ld	s7,24(sp)
 c004ece:	6c42                	ld	s8,16(sp)
 c004ed0:	6ca2                	ld	s9,8(sp)
 c004ed2:	00f9f613          	andi	a2,s3,15
 c004ed6:	85ca                	mv	a1,s2
 c004ed8:	00a9853b          	addw	a0,s3,a0
 c004edc:	6906                	ld	s2,64(sp)
 c004ede:	79e2                	ld	s3,56(sp)
 c004ee0:	6125                	addi	sp,sp,96
 c004ee2:	bee9                	j	c004abc <XXH32_finalize.constprop.0>
 c004ee4:	16566537          	lui	a0,0x16566
 c004ee8:	7b15051b          	addiw	a0,a0,1969
 c004eec:	9d31                	addw	a0,a0,a2
 c004eee:	bfc1                	j	c004ebe <XXH32+0xca>
 c004ef0:	47bd                	li	a5,15
 c004ef2:	0ab7fe63          	bgeu	a5,a1,c004fae <XXH32+0x1ba>
 c004ef6:	242344b7          	lui	s1,0x24234
 c004efa:	85ebdab7          	lui	s5,0x85ebd
 c004efe:	61c887b7          	lui	a5,0x61c88
 c004f02:	ff158c93          	addi	s9,a1,-15 # ffffffff9e377ff1 <__BL2_END__+0xffffffff92368d81>
 c004f06:	4284849b          	addiw	s1,s1,1064
 c004f0a:	a77a8a9b          	addiw	s5,s5,-1417
 c004f0e:	64f7879b          	addiw	a5,a5,1615
 c004f12:	9e378b37          	lui	s6,0x9e378
 c004f16:	9caa                	add	s9,s9,a0
 c004f18:	9cb1                	addw	s1,s1,a2
 c004f1a:	00ca8c3b          	addw	s8,s5,a2
 c004f1e:	00c78bbb          	addw	s7,a5,a2
 c004f22:	8a2a                	mv	s4,a0
 c004f24:	9b1b0b1b          	addiw	s6,s6,-1615
 c004f28:	8552                	mv	a0,s4
 c004f2a:	b7dff0ef          	jal	ra,c004aa6 <XXH_read32>
 c004f2e:	24aa948b          	mulaw	s1,s5,a0
 c004f32:	004a0513          	addi	a0,s4,4
 c004f36:	b71ff0ef          	jal	ra,c004aa6 <XXH_read32>
 c004f3a:	8762                	mv	a4,s8
 c004f3c:	24aa970b          	mulaw	a4,s5,a0
 c004f40:	008a0513          	addi	a0,s4,8
 c004f44:	1534948b          	srriw	s1,s1,19
 c004f48:	036484bb          	mulw	s1,s1,s6
 c004f4c:	1537170b          	srriw	a4,a4,19
 c004f50:	03670c3b          	mulw	s8,a4,s6
 c004f54:	b53ff0ef          	jal	ra,c004aa6 <XXH_read32>
 c004f58:	24aa940b          	mulaw	s0,s5,a0
 c004f5c:	00ca0513          	addi	a0,s4,12
 c004f60:	0a41                	addi	s4,s4,16
 c004f62:	1534160b          	srriw	a2,s0,19
 c004f66:	0366043b          	mulw	s0,a2,s6
 c004f6a:	b3dff0ef          	jal	ra,c004aa6 <XXH_read32>
 c004f6e:	87de                	mv	a5,s7
 c004f70:	24aa978b          	mulaw	a5,s5,a0
 c004f74:	1537978b          	srriw	a5,a5,19
 c004f78:	03678bbb          	mulw	s7,a5,s6
 c004f7c:	fb9a66e3          	bltu	s4,s9,c004f28 <XXH32+0x134>
 c004f80:	00190713          	addi	a4,s2,1
 c004f84:	47c1                	li	a5,16
 c004f86:	00ece663          	bltu	s9,a4,c004f92 <XXH32+0x19e>
 c004f8a:	ff098793          	addi	a5,s3,-16
 c004f8e:	9bc1                	andi	a5,a5,-16
 c004f90:	07c1                	addi	a5,a5,16
 c004f92:	159c150b          	srriw	a0,s8,25
 c004f96:	15f4948b          	srriw	s1,s1,31
 c004f9a:	9ca9                	addw	s1,s1,a0
 c004f9c:	1544150b          	srriw	a0,s0,20
 c004fa0:	993e                	add	s2,s2,a5
 c004fa2:	9d25                	addw	a0,a0,s1
 c004fa4:	14eb940b          	srriw	s0,s7,14
 c004fa8:	9d21                	addw	a0,a0,s0
 c004faa:	4685                	li	a3,1
 c004fac:	bf11                	j	c004ec0 <XXH32+0xcc>
 c004fae:	16566537          	lui	a0,0x16566
 c004fb2:	7b15051b          	addiw	a0,a0,1969
 c004fb6:	bfcd                	j	c004fa8 <XXH32+0x1b4>

000000000c004fb8 <XXH32_reset>:
 c004fb8:	715d                	addi	sp,sp,-80
 c004fba:	e0a2                	sd	s0,64(sp)
 c004fbc:	fc26                	sd	s1,56(sp)
 c004fbe:	842e                	mv	s0,a1
 c004fc0:	84aa                	mv	s1,a0
 c004fc2:	03000613          	li	a2,48
 c004fc6:	4581                	li	a1,0
 c004fc8:	850a                	mv	a0,sp
 c004fca:	e486                	sd	ra,72(sp)
 c004fcc:	ca3fb0ef          	jal	ra,c000c6e <memset>
 c004fd0:	242347b7          	lui	a5,0x24234
 c004fd4:	4287879b          	addiw	a5,a5,1064
 c004fd8:	9fa1                	addw	a5,a5,s0
 c004fda:	c43e                	sw	a5,8(sp)
 c004fdc:	85ebd7b7          	lui	a5,0x85ebd
 c004fe0:	a777879b          	addiw	a5,a5,-1417
 c004fe4:	9fa1                	addw	a5,a5,s0
 c004fe6:	c63e                	sw	a5,12(sp)
 c004fe8:	61c887b7          	lui	a5,0x61c88
 c004fec:	64f7879b          	addiw	a5,a5,1615
 c004ff0:	c822                	sw	s0,16(sp)
 c004ff2:	858a                	mv	a1,sp
 c004ff4:	9c3d                	addw	s0,s0,a5
 c004ff6:	8526                	mv	a0,s1
 c004ff8:	02c00613          	li	a2,44
 c004ffc:	ca22                	sw	s0,20(sp)
 c004ffe:	ccbfb0ef          	jal	ra,c000cc8 <memcpy>
 c005002:	60a6                	ld	ra,72(sp)
 c005004:	6406                	ld	s0,64(sp)
 c005006:	74e2                	ld	s1,56(sp)
 c005008:	4501                	li	a0,0
 c00500a:	6161                	addi	sp,sp,80
 c00500c:	8082                	ret

000000000c00500e <XXH32_update>:
 c00500e:	711d                	addi	sp,sp,-96
 c005010:	e0ca                	sd	s2,64(sp)
 c005012:	ec86                	sd	ra,88(sp)
 c005014:	e8a2                	sd	s0,80(sp)
 c005016:	e4a6                	sd	s1,72(sp)
 c005018:	fc4e                	sd	s3,56(sp)
 c00501a:	f852                	sd	s4,48(sp)
 c00501c:	f456                	sd	s5,40(sp)
 c00501e:	f05a                	sd	s6,32(sp)
 c005020:	ec5e                	sd	s7,24(sp)
 c005022:	e862                	sd	s8,16(sp)
 c005024:	e466                	sd	s9,8(sp)
 c005026:	e06a                	sd	s10,0(sp)
 c005028:	4905                	li	s2,1
 c00502a:	c5b1                	beqz	a1,c005076 <XXH32_update+0x68>
 c00502c:	4114                	lw	a3,0(a0)
 c00502e:	01063713          	sltiu	a4,a2,16
 c005032:	483d                	li	a6,15
 c005034:	9eb1                	addw	a3,a3,a2
 c005036:	c114                	sw	a3,0(a0)
 c005038:	00174713          	xori	a4,a4,1
 c00503c:	00d836b3          	sltu	a3,a6,a3
 c005040:	8f55                	or	a4,a4,a3
 c005042:	4154                	lw	a3,4(a0)
 c005044:	842a                	mv	s0,a0
 c005046:	84ae                	mv	s1,a1
 c005048:	8f55                	or	a4,a4,a3
 c00504a:	c158                	sw	a4,4(a0)
 c00504c:	5518                	lw	a4,40(a0)
 c00504e:	00c58d33          	add	s10,a1,a2
 c005052:	0006091b          	sext.w	s2,a2
 c005056:	7c07350b          	extu	a0,a4,31,0
 c00505a:	00a607b3          	add	a5,a2,a0
 c00505e:	02f86b63          	bltu	a6,a5,c005094 <XXH32_update+0x86>
 c005062:	01840793          	addi	a5,s0,24 # 10018 <__BSS_SIZE__+0xafa8>
 c005066:	953e                	add	a0,a0,a5
 c005068:	c61fb0ef          	jal	ra,c000cc8 <memcpy>
 c00506c:	541c                	lw	a5,40(s0)
 c00506e:	012787bb          	addw	a5,a5,s2
 c005072:	d41c                	sw	a5,40(s0)
 c005074:	4901                	li	s2,0
 c005076:	60e6                	ld	ra,88(sp)
 c005078:	6446                	ld	s0,80(sp)
 c00507a:	64a6                	ld	s1,72(sp)
 c00507c:	79e2                	ld	s3,56(sp)
 c00507e:	7a42                	ld	s4,48(sp)
 c005080:	7aa2                	ld	s5,40(sp)
 c005082:	7b02                	ld	s6,32(sp)
 c005084:	6be2                	ld	s7,24(sp)
 c005086:	6c42                	ld	s8,16(sp)
 c005088:	6ca2                	ld	s9,8(sp)
 c00508a:	6d02                	ld	s10,0(sp)
 c00508c:	854a                	mv	a0,s2
 c00508e:	6906                	ld	s2,64(sp)
 c005090:	6125                	addi	sp,sp,96
 c005092:	8082                	ret
 c005094:	c355                	beqz	a4,c005138 <XXH32_update+0x12a>
 c005096:	4b41                	li	s6,16
 c005098:	40eb063b          	subw	a2,s6,a4
 c00509c:	01840993          	addi	s3,s0,24
 c0050a0:	7c06360b          	extu	a2,a2,31,0
 c0050a4:	954e                	add	a0,a0,s3
 c0050a6:	c23fb0ef          	jal	ra,c000cc8 <memcpy>
 c0050aa:	00842903          	lw	s2,8(s0)
 c0050ae:	854e                	mv	a0,s3
 c0050b0:	85ebdab7          	lui	s5,0x85ebd
 c0050b4:	9f3ff0ef          	jal	ra,c004aa6 <XXH_read32>
 c0050b8:	a77a8a9b          	addiw	s5,s5,-1417
 c0050bc:	24aa990b          	mulaw	s2,s5,a0
 c0050c0:	9e378a37          	lui	s4,0x9e378
 c0050c4:	9b1a0a1b          	addiw	s4,s4,-1615
 c0050c8:	00c42983          	lw	s3,12(s0)
 c0050cc:	1539190b          	srriw	s2,s2,19
 c0050d0:	0349093b          	mulw	s2,s2,s4
 c0050d4:	01c40513          	addi	a0,s0,28
 c0050d8:	01242423          	sw	s2,8(s0)
 c0050dc:	9cbff0ef          	jal	ra,c004aa6 <XXH_read32>
 c0050e0:	24aa998b          	mulaw	s3,s5,a0
 c0050e4:	02040513          	addi	a0,s0,32
 c0050e8:	1539998b          	srriw	s3,s3,19
 c0050ec:	034989bb          	mulw	s3,s3,s4
 c0050f0:	01342623          	sw	s3,12(s0)
 c0050f4:	01042983          	lw	s3,16(s0)
 c0050f8:	9afff0ef          	jal	ra,c004aa6 <XXH_read32>
 c0050fc:	01442903          	lw	s2,20(s0)
 c005100:	24aa998b          	mulaw	s3,s5,a0
 c005104:	02440513          	addi	a0,s0,36
 c005108:	1539998b          	srriw	s3,s3,19
 c00510c:	034989bb          	mulw	s3,s3,s4
 c005110:	01342823          	sw	s3,16(s0)
 c005114:	993ff0ef          	jal	ra,c004aa6 <XXH_read32>
 c005118:	24aa990b          	mulaw	s2,s5,a0
 c00511c:	541c                	lw	a5,40(s0)
 c00511e:	02042423          	sw	zero,40(s0)
 c005122:	1539190b          	srriw	s2,s2,19
 c005126:	0349093b          	mulw	s2,s2,s4
 c00512a:	40fb0b3b          	subw	s6,s6,a5
 c00512e:	7c0b3b0b          	extu	s6,s6,31,0
 c005132:	94da                	add	s1,s1,s6
 c005134:	01242a23          	sw	s2,20(s0)
 c005138:	ff0d0913          	addi	s2,s10,-16
 c00513c:	08996363          	bltu	s2,s1,c0051c2 <XXH32_update+0x1b4>
 c005140:	e3844c8b          	lwd	s9,s8,(s0),1,3
 c005144:	e5444a8b          	lwd	s5,s4,(s0),2,3
 c005148:	85ebdbb7          	lui	s7,0x85ebd
 c00514c:	9e378b37          	lui	s6,0x9e378
 c005150:	89a6                	mv	s3,s1
 c005152:	a77b8b9b          	addiw	s7,s7,-1417
 c005156:	9b1b0b1b          	addiw	s6,s6,-1615
 c00515a:	854e                	mv	a0,s3
 c00515c:	94bff0ef          	jal	ra,c004aa6 <XXH_read32>
 c005160:	24ab9c8b          	mulaw	s9,s7,a0
 c005164:	00498513          	addi	a0,s3,4
 c005168:	93fff0ef          	jal	ra,c004aa6 <XXH_read32>
 c00516c:	24ab9c0b          	mulaw	s8,s7,a0
 c005170:	00898513          	addi	a0,s3,8
 c005174:	933ff0ef          	jal	ra,c004aa6 <XXH_read32>
 c005178:	24ab9a8b          	mulaw	s5,s7,a0
 c00517c:	00c98513          	addi	a0,s3,12
 c005180:	927ff0ef          	jal	ra,c004aa6 <XXH_read32>
 c005184:	24ab9a0b          	mulaw	s4,s7,a0
 c005188:	153c9c8b          	srriw	s9,s9,19
 c00518c:	153c1c0b          	srriw	s8,s8,19
 c005190:	153a9a8b          	srriw	s5,s5,19
 c005194:	153a1a0b          	srriw	s4,s4,19
 c005198:	09c1                	addi	s3,s3,16
 c00519a:	036c8cbb          	mulw	s9,s9,s6
 c00519e:	036c0c3b          	mulw	s8,s8,s6
 c0051a2:	036a8abb          	mulw	s5,s5,s6
 c0051a6:	036a0a3b          	mulw	s4,s4,s6
 c0051aa:	fb3978e3          	bgeu	s2,s3,c00515a <XXH32_update+0x14c>
 c0051ae:	40990933          	sub	s2,s2,s1
 c0051b2:	ff097913          	andi	s2,s2,-16
 c0051b6:	0941                	addi	s2,s2,16
 c0051b8:	94ca                	add	s1,s1,s2
 c0051ba:	e3845c8b          	swd	s9,s8,(s0),1,3
 c0051be:	e5445a8b          	swd	s5,s4,(s0),2,3
 c0051c2:	4901                	li	s2,0
 c0051c4:	eba4f9e3          	bgeu	s1,s10,c005076 <XXH32_update+0x68>
 c0051c8:	409d0d33          	sub	s10,s10,s1
 c0051cc:	866a                	mv	a2,s10
 c0051ce:	85a6                	mv	a1,s1
 c0051d0:	01840513          	addi	a0,s0,24
 c0051d4:	af5fb0ef          	jal	ra,c000cc8 <memcpy>
 c0051d8:	03a42423          	sw	s10,40(s0)
 c0051dc:	bd69                	j	c005076 <XXH32_update+0x68>

000000000c0051de <XXH32_digest>:
 c0051de:	415c                	lw	a5,4(a0)
 c0051e0:	4918                	lw	a4,16(a0)
 c0051e2:	cb8d                	beqz	a5,c005214 <XXH32_digest+0x36>
 c0051e4:	451c                	lw	a5,8(a0)
 c0051e6:	4554                	lw	a3,12(a0)
 c0051e8:	1547170b          	srriw	a4,a4,20
 c0051ec:	15f7978b          	srriw	a5,a5,31
 c0051f0:	1596968b          	srriw	a3,a3,25
 c0051f4:	9fb5                	addw	a5,a5,a3
 c0051f6:	9fb9                	addw	a5,a5,a4
 c0051f8:	4958                	lw	a4,20(a0)
 c0051fa:	14e7170b          	srriw	a4,a4,14
 c0051fe:	85aa                	mv	a1,a0
 c005200:	9fb9                	addw	a5,a5,a4
 c005202:	5ac5c70b          	lwia	a4,(a1),12,1
 c005206:	02856603          	lwu	a2,40(a0) # 16566028 <__BL2_END__+0xa556db8>
 c00520a:	4681                	li	a3,0
 c00520c:	00f7053b          	addw	a0,a4,a5
 c005210:	8adff06f          	j	c004abc <XXH32_finalize.constprop.0>
 c005214:	165667b7          	lui	a5,0x16566
 c005218:	7b17879b          	addiw	a5,a5,1969
 c00521c:	b7cd                	j	c0051fe <XXH32_digest+0x20>

000000000c00521e <dec_verify_image>:
 c00521e:	4501                	li	a0,0
 c005220:	8082                	ret

000000000c005222 <set_baudrate>:
 c005222:	041407b7          	lui	a5,0x4140
 c005226:	47d8                	lw	a4,12(a5)
 c005228:	08076713          	ori	a4,a4,128
 c00522c:	c7d8                	sw	a4,12(a5)
 c00522e:	4739                	li	a4,14
 c005230:	c398                	sw	a4,0(a5)
 c005232:	0007a223          	sw	zero,4(a5) # 4140004 <__BSS_SIZE__+0x413af94>
 c005236:	47d8                	lw	a4,12(a5)
 c005238:	f7f77713          	andi	a4,a4,-129
 c00523c:	c7d8                	sw	a4,12(a5)
 c00523e:	8082                	ret

000000000c005240 <bl2_main>:
 c005240:	1141                	addi	sp,sp,-16
 c005242:	e406                	sd	ra,8(sp)
 c005244:	e022                	sd	s0,0(sp)
 c005246:	fddff0ef          	jal	ra,c005222 <set_baudrate>
 c00524a:	f8413097          	auipc	ra,0xf8413
 c00524e:	dd6080e7          	jalr	-554(ra) # 4418020 <p_rom_api_get_boot_src>
 c005252:	67b5                	lui	a5,0xd
 c005254:	2501                	sext.w	a0,a0
 c005256:	ea578793          	addi	a5,a5,-347 # cea5 <__BSS_SIZE__+0x7e35>
 c00525a:	00f51d63          	bne	a0,a5,c005274 <bl2_main+0x34>
 c00525e:	0016e637          	lui	a2,0x16e
 c005262:	017d85b7          	lui	a1,0x17d8
 c005266:	36060613          	addi	a2,a2,864 # 16e360 <__BSS_SIZE__+0x1692f0>
 c00526a:	84058593          	addi	a1,a1,-1984 # 17d7840 <__BSS_SIZE__+0x17d27d0>
 c00526e:	4501                	li	a0,0
 c005270:	fc7fa0ef          	jal	ra,c000236 <console_init>
 c005274:	b200f737          	lui	a4,0xb200f
 c005278:	030007b7          	lui	a5,0x3000
 c00527c:	08e7a223          	sw	a4,132(a5) # 3000084 <__BSS_SIZE__+0x2ffb014>
 c005280:	f2ffa0ef          	jal	ra,c0001ae <read_count_tick>
 c005284:	3e800793          	li	a5,1000
 c005288:	3e75051b          	addiw	a0,a0,999
 c00528c:	02f5553b          	divuw	a0,a0,a5
 c005290:	00003797          	auipc	a5,0x3
 c005294:	d287b783          	ld	a5,-728(a5) # c007fb8 <time_records>
 c005298:	00002617          	auipc	a2,0x2
 c00529c:	1a060613          	addi	a2,a2,416 # c007438 <build_message>
 c0052a0:	00002597          	auipc	a1,0x2
 c0052a4:	1b858593          	addi	a1,a1,440 # c007458 <version_string>
 c0052a8:	0e000437          	lui	s0,0xe000
 c0052ac:	00a79023          	sh	a0,0(a5)
 c0052b0:	00003517          	auipc	a0,0x3
 c0052b4:	a3850513          	addi	a0,a0,-1480 # c007ce8 <inc32table+0x60>
 c0052b8:	87afb0ef          	jal	ra,c000332 <tf_printf>
 c0052bc:	400c                	lw	a1,0(s0)
 c0052be:	00003517          	auipc	a0,0x3
 c0052c2:	a3a50513          	addi	a0,a0,-1478 # c007cf8 <inc32table+0x70>
 c0052c6:	86cfb0ef          	jal	ra,c000332 <tf_printf>
 c0052ca:	00003797          	auipc	a5,0x3
 c0052ce:	ce67b783          	ld	a5,-794(a5) # c007fb0 <__RO_END__>
 c0052d2:	00003517          	auipc	a0,0x3
 c0052d6:	a3e50513          	addi	a0,a0,-1474 # c007d10 <inc32table+0x88>
 c0052da:	47cc                	lw	a1,12(a5)
 c0052dc:	0e07a603          	lw	a2,224(a5)
 c0052e0:	852fb0ef          	jal	ra,c000332 <tf_printf>
 c0052e4:	4c0c                	lw	a1,24(s0)
 c0052e6:	00003517          	auipc	a0,0x3
 c0052ea:	a6250513          	addi	a0,a0,-1438 # c007d48 <inc32table+0xc0>
 c0052ee:	844fb0ef          	jal	ra,c000332 <tf_printf>
 c0052f2:	ac5fb0ef          	jal	ra,c000db6 <lock_efuse_chipsn>
 c0052f6:	b10fb0ef          	jal	ra,c000606 <setup_dl_flag>
 c0052fa:	f00fb0ef          	jal	ra,c0009fa <switch_rtc_mode_1st_stage>
 c0052fe:	fe0fb0ef          	jal	ra,c000ade <set_rtc_en_registers>
 c005302:	c71fb0ef          	jal	ra,c000f72 <load_ddr>
 c005306:	4505                	li	a0,1
 c005308:	95efc0ef          	jal	ra,c001466 <load_rest>
 c00530c:	00003517          	auipc	a0,0x3
 c005310:	a5450513          	addi	a0,a0,-1452 # c007d60 <inc32table+0xd8>
 c005314:	81efb0ef          	jal	ra,c000332 <tf_printf>
 c005318:	a001                	j	c005318 <bl2_main+0xd8>

000000000c00531a <ddr_init>:
 c00531a:	1141                	addi	sp,sp,-16
 c00531c:	e022                	sd	s0,0(sp)
 c00531e:	842a                	mv	s0,a0
 c005320:	00003517          	auipc	a0,0x3
 c005324:	a5050513          	addi	a0,a0,-1456 # c007d70 <inc32table+0xe8>
 c005328:	e406                	sd	ra,8(sp)
 c00532a:	808fb0ef          	jal	ra,c000332 <tf_printf>
 c00532e:	400c                	lw	a1,0(s0)
 c005330:	00003517          	auipc	a0,0x3
 c005334:	a5850513          	addi	a0,a0,-1448 # c007d88 <inc32table+0x100>
 c005338:	ffbfa0ef          	jal	ra,c000332 <tf_printf>
 c00533c:	012000ef          	jal	ra,c00534e <read_ddr_pkg_info>
 c005340:	2ee000ef          	jal	ra,c00562e <ddr_sys_bring_up>
 c005344:	60a2                	ld	ra,8(sp)
 c005346:	6402                	ld	s0,0(sp)
 c005348:	4501                	li	a0,0
 c00534a:	0141                	addi	sp,sp,16
 c00534c:	8082                	ret

000000000c00534e <read_ddr_pkg_info>:
 c00534e:	7139                	addi	sp,sp,-64
 c005350:	030007b7          	lui	a5,0x3000
 c005354:	e852                	sd	s4,16(sp)
 c005356:	0047aa03          	lw	s4,4(a5) # 3000004 <__BSS_SIZE__+0x2ffaf94>
 c00535a:	00003517          	auipc	a0,0x3
 c00535e:	a4650513          	addi	a0,a0,-1466 # c007da0 <inc32table+0x118>
 c005362:	030507b7          	lui	a5,0x3050
 c005366:	79ca3a0b          	extu	s4,s4,30,28
 c00536a:	85d2                	mv	a1,s4
 c00536c:	f822                	sd	s0,48(sp)
 c00536e:	f426                	sd	s1,40(sp)
 c005370:	f04a                	sd	s2,32(sp)
 c005372:	ec4e                	sd	s3,24(sp)
 c005374:	fc06                	sd	ra,56(sp)
 c005376:	1087a983          	lw	s3,264(a5) # 3050108 <__BSS_SIZE__+0x304b098>
 c00537a:	fb9fa0ef          	jal	ra,c000332 <tf_printf>
 c00537e:	00003717          	auipc	a4,0x3
 c005382:	aee70713          	addi	a4,a4,-1298 # c007e6c <inc32table+0x1e4>
 c005386:	4547478b          	lrw	a5,a4,s4,2
 c00538a:	0000a917          	auipc	s2,0xa
 c00538e:	ee490913          	addi	s2,s2,-284 # c00f26e <ddr_vendor>
 c005392:	0000a497          	auipc	s1,0xa
 c005396:	eda48493          	addi	s1,s1,-294 # c00f26c <ddr_capacity>
 c00539a:	97ba                	add	a5,a5,a4
 c00539c:	0000a417          	auipc	s0,0xa
 c0053a0:	ed340413          	addi	s0,s0,-301 # c00f26f <pkg>
 c0053a4:	8782                	jr	a5
 c0053a6:	4789                	li	a5,2
 c0053a8:	470d                	li	a4,3
 c0053aa:	00f90023          	sb	a5,0(s2)
 c0053ae:	00e48023          	sb	a4,0(s1)
 c0053b2:	00f40023          	sb	a5,0(s0)
 c0053b6:	00044583          	lbu	a1,0(s0)
 c0053ba:	00094683          	lbu	a3,0(s2)
 c0053be:	0004c603          	lbu	a2,0(s1)
 c0053c2:	00003517          	auipc	a0,0x3
 c0053c6:	a1650513          	addi	a0,a0,-1514 # c007dd8 <inc32table+0x150>
 c0053ca:	f69fa0ef          	jal	ra,c000332 <tf_printf>
 c0053ce:	00094583          	lbu	a1,0(s2)
 c0053d2:	4725                	li	a4,9
 c0053d4:	fff5879b          	addiw	a5,a1,-1
 c0053d8:	0ff7f793          	andi	a5,a5,255
 c0053dc:	0ef76c63          	bltu	a4,a5,c0054d4 <read_ddr_pkg_info+0x186>
 c0053e0:	00003717          	auipc	a4,0x3
 c0053e4:	aac70713          	addi	a4,a4,-1364 # c007e8c <inc32table+0x204>
 c0053e8:	44f7478b          	lrw	a5,a4,a5,2
 c0053ec:	0000a997          	auipc	s3,0xa
 c0053f0:	e8198993          	addi	s3,s3,-383 # c00f26d <ddr_type>
 c0053f4:	00003917          	auipc	s2,0x3
 c0053f8:	bcc90913          	addi	s2,s2,-1076 # c007fc0 <ddr_data_rate>
 c0053fc:	97ba                	add	a5,a5,a4
 c0053fe:	8782                	jr	a5
 c005400:	4785                	li	a5,1
 c005402:	00f90023          	sb	a5,0(s2)
 c005406:	4791                	li	a5,4
 c005408:	00f48023          	sb	a5,0(s1)
 c00540c:	4789                	li	a5,2
 c00540e:	b755                	j	c0053b2 <read_ddr_pkg_info+0x64>
 c005410:	478d                	li	a5,3
 c005412:	00f90023          	sb	a5,0(s2)
 c005416:	4789                	li	a5,2
 c005418:	00f48023          	sb	a5,0(s1)
 c00541c:	bf59                	j	c0053b2 <read_ddr_pkg_info+0x64>
 c00541e:	00003517          	auipc	a0,0x3
 c005422:	99250513          	addi	a0,a0,-1646 # c007db0 <inc32table+0x128>
 c005426:	f0dfa0ef          	jal	ra,c000332 <tf_printf>
 c00542a:	6559b78b          	extu	a5,s3,25,21
 c00542e:	00f90023          	sb	a5,0(s2)
 c005432:	71a9b78b          	extu	a5,s3,28,26
 c005436:	01d9d99b          	srliw	s3,s3,0x1d
 c00543a:	00f48023          	sb	a5,0(s1)
 c00543e:	01340023          	sb	s3,0(s0)
 c005442:	bf95                	j	c0053b6 <read_ddr_pkg_info+0x68>
 c005444:	4789                	li	a5,2
 c005446:	00f90023          	sb	a5,0(s2)
 c00544a:	478d                	li	a5,3
 c00544c:	00f48023          	sb	a5,0(s1)
 c005450:	4785                	li	a5,1
 c005452:	b785                	j	c0053b2 <read_ddr_pkg_info+0x64>
 c005454:	478d                	li	a5,3
 c005456:	00f90023          	sb	a5,0(s2)
 c00545a:	4789                	li	a5,2
 c00545c:	bfc5                	j	c00544c <read_ddr_pkg_info+0xfe>
 c00545e:	4791                	li	a5,4
 c005460:	00f90023          	sb	a5,0(s2)
 c005464:	4785                	li	a5,1
 c005466:	bf4d                	j	c005418 <read_ddr_pkg_info+0xca>
 c005468:	458d                	li	a1,3
 c00546a:	00003517          	auipc	a0,0x3
 c00546e:	94e50513          	addi	a0,a0,-1714 # c007db8 <inc32table+0x130>
 c005472:	ec1fa0ef          	jal	ra,c000332 <tf_printf>
 c005476:	b781                	j	c0053b6 <read_ddr_pkg_info+0x68>
 c005478:	00003517          	auipc	a0,0x3
 c00547c:	97050513          	addi	a0,a0,-1680 # c007de8 <inc32table+0x160>
 c005480:	eb3fa0ef          	jal	ra,c000332 <tf_printf>
 c005484:	4785                	li	a5,1
 c005486:	00f98023          	sb	a5,0(s3)
 c00548a:	53500793          	li	a5,1333
 c00548e:	00f92023          	sw	a5,0(s2)
 c005492:	0004c583          	lbu	a1,0(s1)
 c005496:	478d                	li	a5,3
 c005498:	0cf58c63          	beq	a1,a5,c005570 <read_ddr_pkg_info+0x222>
 c00549c:	04b7e763          	bltu	a5,a1,c0054ea <read_ddr_pkg_info+0x19c>
 c0054a0:	4485                	li	s1,1
 c0054a2:	06958163          	beq	a1,s1,c005504 <read_ddr_pkg_info+0x1b6>
 c0054a6:	4789                	li	a5,2
 c0054a8:	0af58663          	beq	a1,a5,c005554 <read_ddr_pkg_info+0x206>
 c0054ac:	00003517          	auipc	a0,0x3
 c0054b0:	98450513          	addi	a0,a0,-1660 # c007e30 <inc32table+0x1a8>
 c0054b4:	e7ffa0ef          	jal	ra,c000332 <tf_printf>
 c0054b8:	4781                	li	a5,0
 c0054ba:	a0a5                	j	c005522 <read_ddr_pkg_info+0x1d4>
 c0054bc:	00003517          	auipc	a0,0x3
 c0054c0:	93450513          	addi	a0,a0,-1740 # c007df0 <inc32table+0x168>
 c0054c4:	e6ffa0ef          	jal	ra,c000332 <tf_printf>
 c0054c8:	4789                	li	a5,2
 c0054ca:	00f98023          	sb	a5,0(s3)
 c0054ce:	74a00793          	li	a5,1866
 c0054d2:	bf75                	j	c00548e <read_ddr_pkg_info+0x140>
 c0054d4:	00003517          	auipc	a0,0x3
 c0054d8:	92450513          	addi	a0,a0,-1756 # c007df8 <inc32table+0x170>
 c0054dc:	e57fa0ef          	jal	ra,c000332 <tf_printf>
 c0054e0:	0000a797          	auipc	a5,0xa
 c0054e4:	d80786a3          	sb	zero,-627(a5) # c00f26d <ddr_type>
 c0054e8:	b76d                	j	c005492 <read_ddr_pkg_info+0x144>
 c0054ea:	4791                	li	a5,4
 c0054ec:	fcf590e3          	bne	a1,a5,c0054ac <read_ddr_pkg_info+0x15e>
 c0054f0:	00003517          	auipc	a0,0x3
 c0054f4:	93850513          	addi	a0,a0,-1736 # c007e28 <inc32table+0x1a0>
 c0054f8:	e3bfa0ef          	jal	ra,c000332 <tf_printf>
 c0054fc:	67e1                	lui	a5,0x18
 c0054fe:	13f78793          	addi	a5,a5,319 # 1813f <__BSS_SIZE__+0x130cf>
 c005502:	a005                	j	c005522 <read_ddr_pkg_info+0x1d4>
 c005504:	00003517          	auipc	a0,0x3
 c005508:	90c50513          	addi	a0,a0,-1780 # c007e10 <inc32table+0x188>
 c00550c:	e42e                	sd	a1,8(sp)
 c00550e:	e25fa0ef          	jal	ra,c000332 <tf_printf>
 c005512:	00044783          	lbu	a5,0(s0)
 c005516:	65a2                	ld	a1,8(sp)
 c005518:	06b78b63          	beq	a5,a1,c00558e <read_ddr_pkg_info+0x240>
 c00551c:	67e1                	lui	a5,0x18
 c00551e:	10f78793          	addi	a5,a5,271 # 1810f <__BSS_SIZE__+0x1309f>
 c005522:	03000737          	lui	a4,0x3000
 c005526:	08f72623          	sw	a5,140(a4) # 300008c <__BSS_SIZE__+0x2ffb01c>
 c00552a:	00044583          	lbu	a1,0(s0)
 c00552e:	4785                	li	a5,1
 c005530:	06f58b63          	beq	a1,a5,c0055a6 <read_ddr_pkg_info+0x258>
 c005534:	4789                	li	a5,2
 c005536:	08f58563          	beq	a1,a5,c0055c0 <read_ddr_pkg_info+0x272>
 c00553a:	7442                	ld	s0,48(sp)
 c00553c:	70e2                	ld	ra,56(sp)
 c00553e:	74a2                	ld	s1,40(sp)
 c005540:	7902                	ld	s2,32(sp)
 c005542:	69e2                	ld	s3,24(sp)
 c005544:	6a42                	ld	s4,16(sp)
 c005546:	00003517          	auipc	a0,0x3
 c00554a:	91250513          	addi	a0,a0,-1774 # c007e58 <inc32table+0x1d0>
 c00554e:	6121                	addi	sp,sp,64
 c005550:	de3fa06f          	j	c000332 <tf_printf>
 c005554:	00003517          	auipc	a0,0x3
 c005558:	8c450513          	addi	a0,a0,-1852 # c007e18 <inc32table+0x190>
 c00555c:	dd7fa0ef          	jal	ra,c000332 <tf_printf>
 c005560:	00044783          	lbu	a5,0(s0)
 c005564:	02978963          	beq	a5,s1,c005596 <read_ddr_pkg_info+0x248>
 c005568:	67e1                	lui	a5,0x18
 c00556a:	11f78793          	addi	a5,a5,287 # 1811f <__BSS_SIZE__+0x130af>
 c00556e:	bf55                	j	c005522 <read_ddr_pkg_info+0x1d4>
 c005570:	00003517          	auipc	a0,0x3
 c005574:	8b050513          	addi	a0,a0,-1872 # c007e20 <inc32table+0x198>
 c005578:	dbbfa0ef          	jal	ra,c000332 <tf_printf>
 c00557c:	00044703          	lbu	a4,0(s0)
 c005580:	4785                	li	a5,1
 c005582:	00f70e63          	beq	a4,a5,c00559e <read_ddr_pkg_info+0x250>
 c005586:	67e1                	lui	a5,0x18
 c005588:	12f78793          	addi	a5,a5,303 # 1812f <__BSS_SIZE__+0x130bf>
 c00558c:	bf59                	j	c005522 <read_ddr_pkg_info+0x1d4>
 c00558e:	67e1                	lui	a5,0x18
 c005590:	10c78793          	addi	a5,a5,268 # 1810c <__BSS_SIZE__+0x1309c>
 c005594:	b779                	j	c005522 <read_ddr_pkg_info+0x1d4>
 c005596:	67e1                	lui	a5,0x18
 c005598:	11c78793          	addi	a5,a5,284 # 1811c <__BSS_SIZE__+0x130ac>
 c00559c:	b759                	j	c005522 <read_ddr_pkg_info+0x1d4>
 c00559e:	67e1                	lui	a5,0x18
 c0055a0:	12c78793          	addi	a5,a5,300 # 1812c <__BSS_SIZE__+0x130bc>
 c0055a4:	bfbd                	j	c005522 <read_ddr_pkg_info+0x1d4>
 c0055a6:	00003517          	auipc	a0,0x3
 c0055aa:	8a250513          	addi	a0,a0,-1886 # c007e48 <inc32table+0x1c0>
 c0055ae:	7442                	ld	s0,48(sp)
 c0055b0:	70e2                	ld	ra,56(sp)
 c0055b2:	74a2                	ld	s1,40(sp)
 c0055b4:	7902                	ld	s2,32(sp)
 c0055b6:	69e2                	ld	s3,24(sp)
 c0055b8:	6a42                	ld	s4,16(sp)
 c0055ba:	6121                	addi	sp,sp,64
 c0055bc:	d77fa06f          	j	c000332 <tf_printf>
 c0055c0:	00003517          	auipc	a0,0x3
 c0055c4:	89050513          	addi	a0,a0,-1904 # c007e50 <inc32table+0x1c8>
 c0055c8:	b7dd                	j	c0055ae <read_ddr_pkg_info+0x260>

000000000c0055ca <get_ddr_vendor>:
 c0055ca:	0000a517          	auipc	a0,0xa
 c0055ce:	ca454503          	lbu	a0,-860(a0) # c00f26e <ddr_vendor>
 c0055d2:	8082                	ret

000000000c0055d4 <get_pkg>:
 c0055d4:	0000a517          	auipc	a0,0xa
 c0055d8:	c9b54503          	lbu	a0,-869(a0) # c00f26f <pkg>
 c0055dc:	8082                	ret

000000000c0055de <axi_mon_start_all>:
 c0055de:	00030737          	lui	a4,0x30
 c0055e2:	080087b7          	lui	a5,0x8008
 c0055e6:	0705                	addi	a4,a4,1
 c0055e8:	c398                	sw	a4,0(a5)
 c0055ea:	08078693          	addi	a3,a5,128 # 8008080 <p_rom_api_cryptodma_aes_decrypt+0x3beff80>
 c0055ee:	c298                	sw	a4,0(a3)
 c0055f0:	10078693          	addi	a3,a5,256
 c0055f4:	c298                	sw	a4,0(a3)
 c0055f6:	18078693          	addi	a3,a5,384
 c0055fa:	c298                	sw	a4,0(a3)
 c0055fc:	20078693          	addi	a3,a5,512
 c005600:	c298                	sw	a4,0(a3)
 c005602:	28078693          	addi	a3,a5,640
 c005606:	c298                	sw	a4,0(a3)
 c005608:	30078693          	addi	a3,a5,768
 c00560c:	c298                	sw	a4,0(a3)
 c00560e:	38078693          	addi	a3,a5,896
 c005612:	c298                	sw	a4,0(a3)
 c005614:	40078693          	addi	a3,a5,1024
 c005618:	c298                	sw	a4,0(a3)
 c00561a:	48078693          	addi	a3,a5,1152
 c00561e:	c298                	sw	a4,0(a3)
 c005620:	50078693          	addi	a3,a5,1280
 c005624:	c298                	sw	a4,0(a3)
 c005626:	58078793          	addi	a5,a5,1408
 c00562a:	c398                	sw	a4,0(a5)
 c00562c:	8082                	ret

000000000c00562e <ddr_sys_bring_up>:
 c00562e:	7179                	addi	sp,sp,-48
 c005630:	f406                	sd	ra,40(sp)
 c005632:	356010ef          	jal	ra,c006988 <pll_init>
 c005636:	748010ef          	jal	ra,c006d7e <ddrc_init>
 c00563a:	0800a7b7          	lui	a5,0x800a
 c00563e:	0207a023          	sw	zero,32(a5) # 800a020 <p_rom_api_cryptodma_aes_decrypt+0x3bf1f20>
 c005642:	007797b7          	lui	a5,0x779
 c005646:	03000737          	lui	a4,0x3000
 c00564a:	8aa78793          	addi	a5,a5,-1878 # 7788aa <__BSS_SIZE__+0x77383a>
 c00564e:	1cf72c23          	sw	a5,472(a4) # 30001d8 <__BSS_SIZE__+0x2ffb168>
 c005652:	6789                	lui	a5,0x2
 c005654:	29978793          	addi	a5,a5,665 # 2299 <__BSS_SIZE__-0x2dd7>
 c005658:	1cf72e23          	sw	a5,476(a4)
 c00565c:	22b010ef          	jal	ra,c007086 <phy_init>
 c005660:	271000ef          	jal	ra,c0060d0 <cvx16_setting_check>
 c005664:	3de010ef          	jal	ra,c006a42 <cvx16_pinmux>
 c005668:	00003717          	auipc	a4,0x3
 c00566c:	96070713          	addi	a4,a4,-1696 # c007fc8 <ddr_patch_regs>
 c005670:	4601                	li	a2,0
 c005672:	00003517          	auipc	a0,0x3
 c005676:	b1e50513          	addi	a0,a0,-1250 # c008190 <ddr_patch_regs_count>
 c00567a:	411c                	lw	a5,0(a0)
 c00567c:	14f66b63          	bltu	a2,a5,c0057d2 <ddr_sys_bring_up+0x1a4>
 c005680:	1f2010ef          	jal	ra,c006872 <cvx16_en_rec_vol_mode>
 c005684:	26d000ef          	jal	ra,c0060f0 <cvx16_set_dfi_init_start>
 c005688:	06b000ef          	jal	ra,c005ef2 <cvx16_ddr_phy_power_on_seq1>
 c00568c:	15b000ef          	jal	ra,c005fe6 <cvx16_polling_dfi_init_start>
 c005690:	197000ef          	jal	ra,c006026 <cvx16_INT_ISR_08>
 c005694:	0e7000ef          	jal	ra,c005f7a <cvx16_ddr_phy_power_on_seq3>
 c005698:	11b000ef          	jal	ra,c005fb2 <cvx16_wait_for_dfi_init_complete>
 c00569c:	1b5000ef          	jal	ra,c006050 <cvx16_polling_synp_normal_mode>
 c0056a0:	1dc000ef          	jal	ra,c00587c <cvx16_bist_wr_prbs_init>
 c0056a4:	0810                	addi	a2,sp,16
 c0056a6:	082c                	addi	a1,sp,24
 c0056a8:	0068                	addi	a0,sp,12
 c0056aa:	502000ef          	jal	ra,c005bac <cvx16_bist_start_check>
 c0056ae:	47b2                	lw	a5,12(sp)
 c0056b0:	e385                	bnez	a5,c0056d0 <ddr_sys_bring_up+0xa2>
 c0056b2:	00003517          	auipc	a0,0x3
 c0056b6:	80650513          	addi	a0,a0,-2042 # c007eb8 <inc32table+0x230>
 c0056ba:	c79fa0ef          	jal	ra,c000332 <tf_printf>
 c0056be:	fac1468b          	ldd	a3,a2,(sp),1,4
 c0056c2:	45b2                	lw	a1,12(sp)
 c0056c4:	00003517          	auipc	a0,0x3
 c0056c8:	80c50513          	addi	a0,a0,-2036 # c007ed0 <inc32table+0x248>
 c0056cc:	c67fa0ef          	jal	ra,c000332 <tf_printf>
 c0056d0:	0e9010ef          	jal	ra,c006fb8 <ctrl_init_low_patch>
 c0056d4:	37d000ef          	jal	ra,c006250 <cvx16_wrlvl_req>
 c0056d8:	1a4000ef          	jal	ra,c00587c <cvx16_bist_wr_prbs_init>
 c0056dc:	0810                	addi	a2,sp,16
 c0056de:	082c                	addi	a1,sp,24
 c0056e0:	0068                	addi	a0,sp,12
 c0056e2:	4ca000ef          	jal	ra,c005bac <cvx16_bist_start_check>
 c0056e6:	47b2                	lw	a5,12(sp)
 c0056e8:	e385                	bnez	a5,c005708 <ddr_sys_bring_up+0xda>
 c0056ea:	00002517          	auipc	a0,0x2
 c0056ee:	7ce50513          	addi	a0,a0,1998 # c007eb8 <inc32table+0x230>
 c0056f2:	c41fa0ef          	jal	ra,c000332 <tf_printf>
 c0056f6:	fac1468b          	ldd	a3,a2,(sp),1,4
 c0056fa:	45b2                	lw	a1,12(sp)
 c0056fc:	00002517          	auipc	a0,0x2
 c005700:	7d450513          	addi	a0,a0,2004 # c007ed0 <inc32table+0x248>
 c005704:	c2ffa0ef          	jal	ra,c000332 <tf_printf>
 c005708:	505000ef          	jal	ra,c00640c <cvx16_rdglvl_req>
 c00570c:	170000ef          	jal	ra,c00587c <cvx16_bist_wr_prbs_init>
 c005710:	0810                	addi	a2,sp,16
 c005712:	082c                	addi	a1,sp,24
 c005714:	0068                	addi	a0,sp,12
 c005716:	496000ef          	jal	ra,c005bac <cvx16_bist_start_check>
 c00571a:	47b2                	lw	a5,12(sp)
 c00571c:	e385                	bnez	a5,c00573c <ddr_sys_bring_up+0x10e>
 c00571e:	00002517          	auipc	a0,0x2
 c005722:	79a50513          	addi	a0,a0,1946 # c007eb8 <inc32table+0x230>
 c005726:	c0dfa0ef          	jal	ra,c000332 <tf_printf>
 c00572a:	fac1468b          	ldd	a3,a2,(sp),1,4
 c00572e:	45b2                	lw	a1,12(sp)
 c005730:	00002517          	auipc	a0,0x2
 c005734:	7a050513          	addi	a0,a0,1952 # c007ed0 <inc32table+0x248>
 c005738:	bfbfa0ef          	jal	ra,c000332 <tf_printf>
 c00573c:	4589                	li	a1,2
 c00573e:	4505                	li	a0,1
 c005740:	7c1000ef          	jal	ra,c006700 <cvx16_wdqlvl_req>
 c005744:	4585                	li	a1,1
 c005746:	4505                	li	a0,1
 c005748:	7b9000ef          	jal	ra,c006700 <cvx16_wdqlvl_req>
 c00574c:	4581                	li	a1,0
 c00574e:	4505                	li	a0,1
 c005750:	7b1000ef          	jal	ra,c006700 <cvx16_wdqlvl_req>
 c005754:	128000ef          	jal	ra,c00587c <cvx16_bist_wr_prbs_init>
 c005758:	0810                	addi	a2,sp,16
 c00575a:	082c                	addi	a1,sp,24
 c00575c:	0068                	addi	a0,sp,12
 c00575e:	44e000ef          	jal	ra,c005bac <cvx16_bist_start_check>
 c005762:	08000737          	lui	a4,0x8000
 c005766:	08c72783          	lw	a5,140(a4) # 800008c <p_rom_api_cryptodma_aes_decrypt+0x3be7f8c>
 c00576a:	4505                	li	a0,1
 c00576c:	f0f7f793          	andi	a5,a5,-241
 c005770:	0107e793          	ori	a5,a5,16
 c005774:	0000a697          	auipc	a3,0xa
 c005778:	aef6a223          	sw	a5,-1308(a3) # c00f258 <rddata>
 c00577c:	08f72623          	sw	a5,140(a4)
 c005780:	5b7000ef          	jal	ra,c006536 <cvx16_rdlvl_req>
 c005784:	0f8000ef          	jal	ra,c00587c <cvx16_bist_wr_prbs_init>
 c005788:	0810                	addi	a2,sp,16
 c00578a:	082c                	addi	a1,sp,24
 c00578c:	0068                	addi	a0,sp,12
 c00578e:	41e000ef          	jal	ra,c005bac <cvx16_bist_start_check>
 c005792:	00b010ef          	jal	ra,c006f9c <ctrl_init_high_patch>
 c005796:	00b10513          	addi	a0,sp,11
 c00579a:	0da010ef          	jal	ra,c006874 <ctrl_init_detect_dram_size>
 c00579e:	00b14503          	lbu	a0,11(sp)
 c0057a2:	035010ef          	jal	ra,c006fd6 <ctrl_init_update_by_dram_size>
 c0057a6:	00b14503          	lbu	a0,11(sp)
 c0057aa:	5d2010ef          	jal	ra,c006d7c <cvx16_dram_cap_check>
 c0057ae:	243000ef          	jal	ra,c0061f0 <cvx16_clk_gating_enable>
 c0057b2:	0ca000ef          	jal	ra,c00587c <cvx16_bist_wr_prbs_init>
 c0057b6:	0810                	addi	a2,sp,16
 c0057b8:	082c                	addi	a1,sp,24
 c0057ba:	0068                	addi	a0,sp,12
 c0057bc:	3f0000ef          	jal	ra,c005bac <cvx16_bist_start_check>
 c0057c0:	47b2                	lw	a5,12(sp)
 c0057c2:	e79d                	bnez	a5,c0057f0 <ddr_sys_bring_up+0x1c2>
 c0057c4:	00002517          	auipc	a0,0x2
 c0057c8:	74c50513          	addi	a0,a0,1868 # c007f10 <inc32table+0x288>
 c0057cc:	b67fa0ef          	jal	ra,c000332 <tf_printf>
 c0057d0:	a001                	j	c0057d0 <ddr_sys_bring_up+0x1a2>
 c0057d2:	00076583          	lwu	a1,0(a4)
 c0057d6:	4714                	lw	a3,8(a4)
 c0057d8:	00472803          	lw	a6,4(a4)
 c0057dc:	419c                	lw	a5,0(a1)
 c0057de:	2605                	addiw	a2,a2,1
 c0057e0:	0731                	addi	a4,a4,12
 c0057e2:	8ebd                	xor	a3,a3,a5
 c0057e4:	0106f6b3          	and	a3,a3,a6
 c0057e8:	8fb5                	xor	a5,a5,a3
 c0057ea:	2781                	sext.w	a5,a5
 c0057ec:	c19c                	sw	a5,0(a1)
 c0057ee:	b571                	j	c00567a <ddr_sys_bring_up+0x4c>
 c0057f0:	0da000ef          	jal	ra,c0058ca <cvx16_bist_wr_sram_init>
 c0057f4:	0810                	addi	a2,sp,16
 c0057f6:	082c                	addi	a1,sp,24
 c0057f8:	0068                	addi	a0,sp,12
 c0057fa:	3b2000ef          	jal	ra,c005bac <cvx16_bist_start_check>
 c0057fe:	47b2                	lw	a5,12(sp)
 c005800:	eb81                	bnez	a5,c005810 <ddr_sys_bring_up+0x1e2>
 c005802:	00002517          	auipc	a0,0x2
 c005806:	70e50513          	addi	a0,a0,1806 # c007f10 <inc32table+0x288>
 c00580a:	b29fa0ef          	jal	ra,c000332 <tf_printf>
 c00580e:	a001                	j	c00580e <ddr_sys_bring_up+0x1e0>
 c005810:	00002517          	auipc	a0,0x2
 c005814:	71850513          	addi	a0,a0,1816 # c007f28 <inc32table+0x2a0>
 c005818:	b1bfa0ef          	jal	ra,c000332 <tf_printf>
 c00581c:	080087b7          	lui	a5,0x8008
 c005820:	4595                	li	a1,5
 c005822:	cbac                	sw	a1,80(a5)
 c005824:	08078613          	addi	a2,a5,128 # 8008080 <p_rom_api_cryptodma_aes_decrypt+0x3beff80>
 c005828:	01000737          	lui	a4,0x1000
 c00582c:	ca2c                	sw	a1,80(a2)
 c00582e:	10070713          	addi	a4,a4,256 # 1000100 <__BSS_SIZE__+0xffb090>
 c005832:	c398                	sw	a4,0(a5)
 c005834:	43d4                	lw	a3,4(a5)
 c005836:	c006f693          	andi	a3,a3,-1024
 c00583a:	c3d4                	sw	a3,4(a5)
 c00583c:	c218                	sw	a4,0(a2)
 c00583e:	4254                	lw	a3,4(a2)
 c005840:	c006f693          	andi	a3,a3,-1024
 c005844:	c254                	sw	a3,4(a2)
 c005846:	40078613          	addi	a2,a5,1024
 c00584a:	ca2c                	sw	a1,80(a2)
 c00584c:	48078793          	addi	a5,a5,1152
 c005850:	cbac                	sw	a1,80(a5)
 c005852:	c218                	sw	a4,0(a2)
 c005854:	4254                	lw	a3,4(a2)
 c005856:	c006f693          	andi	a3,a3,-1024
 c00585a:	c254                	sw	a3,4(a2)
 c00585c:	c398                	sw	a4,0(a5)
 c00585e:	43d8                	lw	a4,4(a5)
 c005860:	c0077713          	andi	a4,a4,-1024
 c005864:	c3d8                	sw	a4,4(a5)
 c005866:	0800a737          	lui	a4,0x800a
 c00586a:	4b5c                	lw	a5,20(a4)
 c00586c:	1007e793          	ori	a5,a5,256
 c005870:	cb5c                	sw	a5,20(a4)
 c005872:	d6dff0ef          	jal	ra,c0055de <axi_mon_start_all>
 c005876:	70a2                	ld	ra,40(sp)
 c005878:	6145                	addi	sp,sp,48
 c00587a:	8082                	ret

000000000c00587c <cvx16_bist_wr_prbs_init>:
 c00587c:	00060737          	lui	a4,0x60
 c005880:	080107b7          	lui	a5,0x8010
 c005884:	0719                	addi	a4,a4,6
 c005886:	c398                	sw	a4,0(a5)
 c005888:	80200737          	lui	a4,0x80200
 c00588c:	1101                	addi	sp,sp,-32
 c00588e:	a0070713          	addi	a4,a4,-1536 # ffffffff801ffa00 <__BL2_END__+0xffffffff741f0790>
 c005892:	c63a                	sw	a4,12(sp)
 c005894:	40200737          	lui	a4,0x40200
 c005898:	e802                	sd	zero,16(sp)
 c00589a:	ec02                	sd	zero,24(sp)
 c00589c:	a0070713          	addi	a4,a4,-1536 # 401ffa00 <__BL2_END__+0x341f0790>
 c0058a0:	c3b8                	sw	a4,64(a5)
 c0058a2:	4732                	lw	a4,12(sp)
 c0058a4:	c3f8                	sw	a4,68(a5)
 c0058a6:	4742                	lw	a4,16(sp)
 c0058a8:	c7b8                	sw	a4,72(a5)
 c0058aa:	4752                	lw	a4,20(sp)
 c0058ac:	c7f8                	sw	a4,76(a5)
 c0058ae:	4762                	lw	a4,24(sp)
 c0058b0:	cbb8                	sw	a4,80(a5)
 c0058b2:	4772                	lw	a4,28(sp)
 c0058b4:	cbf8                	sw	a4,84(a5)
 c0058b6:	00100737          	lui	a4,0x100
 c0058ba:	0007a823          	sw	zero,16(a5) # 8010010 <p_rom_api_cryptodma_aes_decrypt+0x3bf7f10>
 c0058be:	177d                	addi	a4,a4,-1
 c0058c0:	cbd8                	sw	a4,20(a5)
 c0058c2:	4711                	li	a4,4
 c0058c4:	cf98                	sw	a4,24(a5)
 c0058c6:	6105                	addi	sp,sp,32
 c0058c8:	8082                	ret

000000000c0058ca <cvx16_bist_wr_sram_init>:
 c0058ca:	000c0737          	lui	a4,0xc0
 c0058ce:	080107b7          	lui	a5,0x8010
 c0058d2:	0731                	addi	a4,a4,12
 c0058d4:	c398                	sw	a4,0(a5)
 c0058d6:	6705                	lui	a4,0x1
 c0058d8:	f0570713          	addi	a4,a4,-251 # f05 <__BSS_SIZE__-0x416b>
 c0058dc:	d3d8                	sw	a4,36(a5)
 c0058de:	80103737          	lui	a4,0x80103
 c0058e2:	1101                	addi	sp,sp,-32
 c0058e4:	c0f70713          	addi	a4,a4,-1009 # ffffffff80102c0f <__BL2_END__+0xffffffff740f399f>
 c0058e8:	c63a                	sw	a4,12(sp)
 c0058ea:	c0000737          	lui	a4,0xc0000
 c0058ee:	0705                	addi	a4,a4,1
 c0058f0:	1702                	slli	a4,a4,0x20
 c0058f2:	e83a                	sd	a4,16(sp)
 c0058f4:	40103737          	lui	a4,0x40103
 c0058f8:	ec02                	sd	zero,24(sp)
 c0058fa:	c0f70713          	addi	a4,a4,-1009 # 40102c0f <__BL2_END__+0x340f399f>
 c0058fe:	c3b8                	sw	a4,64(a5)
 c005900:	4732                	lw	a4,12(sp)
 c005902:	c3f8                	sw	a4,68(a5)
 c005904:	4742                	lw	a4,16(sp)
 c005906:	c7b8                	sw	a4,72(a5)
 c005908:	4752                	lw	a4,20(sp)
 c00590a:	c7f8                	sw	a4,76(a5)
 c00590c:	4762                	lw	a4,24(sp)
 c00590e:	cbb8                	sw	a4,80(a5)
 c005910:	4772                	lw	a4,28(sp)
 c005912:	cbf8                	sw	a4,84(a5)
 c005914:	00100737          	lui	a4,0x100
 c005918:	0007a823          	sw	zero,16(a5) # 8010010 <p_rom_api_cryptodma_aes_decrypt+0x3bf7f10>
 c00591c:	177d                	addi	a4,a4,-1
 c00591e:	cbd8                	sw	a4,20(a5)
 c005920:	02000713          	li	a4,32
 c005924:	cf98                	sw	a4,24(a5)
 c005926:	6105                	addi	sp,sp,32
 c005928:	8082                	ret

000000000c00592a <cvx16_bist_wrlvl_init>:
 c00592a:	00060737          	lui	a4,0x60
 c00592e:	080107b7          	lui	a5,0x8010
 c005932:	0719                	addi	a4,a4,6
 c005934:	c398                	sw	a4,0(a5)
 c005936:	1101                	addi	sp,sp,-32
 c005938:	40001737          	lui	a4,0x40001
 c00593c:	e802                	sd	zero,16(sp)
 c00593e:	ec02                	sd	zero,24(sp)
 c005940:	c602                	sw	zero,12(sp)
 c005942:	a0070713          	addi	a4,a4,-1536 # 40000a00 <__BL2_END__+0x33ff1790>
 c005946:	c3b8                	sw	a4,64(a5)
 c005948:	4732                	lw	a4,12(sp)
 c00594a:	c3f8                	sw	a4,68(a5)
 c00594c:	4742                	lw	a4,16(sp)
 c00594e:	c7b8                	sw	a4,72(a5)
 c005950:	4752                	lw	a4,20(sp)
 c005952:	c7f8                	sw	a4,76(a5)
 c005954:	4762                	lw	a4,24(sp)
 c005956:	cbb8                	sw	a4,80(a5)
 c005958:	4772                	lw	a4,28(sp)
 c00595a:	cbf8                	sw	a4,84(a5)
 c00595c:	00100737          	lui	a4,0x100
 c005960:	0007a823          	sw	zero,16(a5) # 8010010 <p_rom_api_cryptodma_aes_decrypt+0x3bf7f10>
 c005964:	177d                	addi	a4,a4,-1
 c005966:	cbd8                	sw	a4,20(a5)
 c005968:	4711                	li	a4,4
 c00596a:	cf98                	sw	a4,24(a5)
 c00596c:	6105                	addi	sp,sp,32
 c00596e:	8082                	ret

000000000c005970 <cvx16_bist_rdglvl_init>:
 c005970:	00060737          	lui	a4,0x60
 c005974:	080107b7          	lui	a5,0x8010
 c005978:	0719                	addi	a4,a4,6
 c00597a:	c398                	sw	a4,0(a5)
 c00597c:	1101                	addi	sp,sp,-32
 c00597e:	80004737          	lui	a4,0x80004
 c005982:	e802                	sd	zero,16(sp)
 c005984:	ec02                	sd	zero,24(sp)
 c005986:	c602                	sw	zero,12(sp)
 c005988:	a0070713          	addi	a4,a4,-1536 # ffffffff80003a00 <__BL2_END__+0xffffffff73ff4790>
 c00598c:	c3b8                	sw	a4,64(a5)
 c00598e:	4732                	lw	a4,12(sp)
 c005990:	c3f8                	sw	a4,68(a5)
 c005992:	4742                	lw	a4,16(sp)
 c005994:	c7b8                	sw	a4,72(a5)
 c005996:	4752                	lw	a4,20(sp)
 c005998:	c7f8                	sw	a4,76(a5)
 c00599a:	4762                	lw	a4,24(sp)
 c00599c:	cbb8                	sw	a4,80(a5)
 c00599e:	4772                	lw	a4,28(sp)
 c0059a0:	cbf8                	sw	a4,84(a5)
 c0059a2:	00100737          	lui	a4,0x100
 c0059a6:	0007a823          	sw	zero,16(a5) # 8010010 <p_rom_api_cryptodma_aes_decrypt+0x3bf7f10>
 c0059aa:	177d                	addi	a4,a4,-1
 c0059ac:	cbd8                	sw	a4,20(a5)
 c0059ae:	4711                	li	a4,4
 c0059b0:	cf98                	sw	a4,24(a5)
 c0059b2:	6105                	addi	sp,sp,32
 c0059b4:	8082                	ret

000000000c0059b6 <cvx16_bist_rdlvl_init>:
 c0059b6:	000607b7          	lui	a5,0x60
 c0059ba:	08010737          	lui	a4,0x8010
 c0059be:	0799                	addi	a5,a5,6
 c0059c0:	c31c                	sw	a5,0(a4)
 c0059c2:	1101                	addi	sp,sp,-32
 c0059c4:	e519                	bnez	a0,c0059d2 <cvx16_bist_rdlvl_init+0x1c>
 c0059c6:	200017b7          	lui	a5,0x20001
 c0059ca:	078a                	slli	a5,a5,0x2
 c0059cc:	a0078793          	addi	a5,a5,-1536 # 20000a00 <__BL2_END__+0x13ff1790>
 c0059d0:	a0ad                	j	c005a3a <cvx16_bist_rdlvl_init+0x84>
 c0059d2:	4785                	li	a5,1
 c0059d4:	04f51c63          	bne	a0,a5,c005a2c <cvx16_bist_rdlvl_init+0x76>
 c0059d8:	6785                	lui	a5,0x1
 c0059da:	f0578793          	addi	a5,a5,-251 # f05 <__BSS_SIZE__-0x416b>
 c0059de:	d35c                	sw	a5,36(a4)
 c0059e0:	00002797          	auipc	a5,0x2
 c0059e4:	5607b783          	ld	a5,1376(a5) # c007f40 <inc32table+0x2b8>
 c0059e8:	e43e                	sd	a5,8(sp)
 c0059ea:	00002797          	auipc	a5,0x2
 c0059ee:	55e7b783          	ld	a5,1374(a5) # c007f48 <inc32table+0x2c0>
 c0059f2:	e83e                	sd	a5,16(sp)
 c0059f4:	478d                	li	a5,3
 c0059f6:	07fa                	slli	a5,a5,0x1e
 c0059f8:	0785                	addi	a5,a5,1
 c0059fa:	ec3e                	sd	a5,24(sp)
 c0059fc:	4722                	lw	a4,8(sp)
 c0059fe:	080107b7          	lui	a5,0x8010
 c005a02:	c3b8                	sw	a4,64(a5)
 c005a04:	4732                	lw	a4,12(sp)
 c005a06:	c3f8                	sw	a4,68(a5)
 c005a08:	4742                	lw	a4,16(sp)
 c005a0a:	c7b8                	sw	a4,72(a5)
 c005a0c:	4752                	lw	a4,20(sp)
 c005a0e:	c7f8                	sw	a4,76(a5)
 c005a10:	4762                	lw	a4,24(sp)
 c005a12:	cbb8                	sw	a4,80(a5)
 c005a14:	4772                	lw	a4,28(sp)
 c005a16:	cbf8                	sw	a4,84(a5)
 c005a18:	00100737          	lui	a4,0x100
 c005a1c:	0007a823          	sw	zero,16(a5) # 8010010 <p_rom_api_cryptodma_aes_decrypt+0x3bf7f10>
 c005a20:	177d                	addi	a4,a4,-1
 c005a22:	cbd8                	sw	a4,20(a5)
 c005a24:	4711                	li	a4,4
 c005a26:	cf98                	sw	a4,24(a5)
 c005a28:	6105                	addi	sp,sp,32
 c005a2a:	8082                	ret
 c005a2c:	4789                	li	a5,2
 c005a2e:	00f51a63          	bne	a0,a5,c005a42 <cvx16_bist_rdlvl_init+0x8c>
 c005a32:	00002797          	auipc	a5,0x2
 c005a36:	51e7b783          	ld	a5,1310(a5) # c007f50 <inc32table+0x2c8>
 c005a3a:	e43e                	sd	a5,8(sp)
 c005a3c:	e802                	sd	zero,16(sp)
 c005a3e:	ec02                	sd	zero,24(sp)
 c005a40:	bf75                	j	c0059fc <cvx16_bist_rdlvl_init+0x46>
 c005a42:	47c9                	li	a5,18
 c005a44:	02f51463          	bne	a0,a5,c005a6c <cvx16_bist_rdlvl_init+0xb6>
 c005a48:	080006b7          	lui	a3,0x8000
 c005a4c:	0846a783          	lw	a5,132(a3) # 8000084 <p_rom_api_cryptodma_aes_decrypt+0x3be7f84>
 c005a50:	6709                	lui	a4,0x2
 c005a52:	f0070713          	addi	a4,a4,-256 # 1f00 <__BSS_SIZE__-0x3170>
 c005a56:	9b81                	andi	a5,a5,-32
 c005a58:	01d7e793          	ori	a5,a5,29
 c005a5c:	8fd9                	or	a5,a5,a4
 c005a5e:	00009717          	auipc	a4,0x9
 c005a62:	7ef72d23          	sw	a5,2042(a4) # c00f258 <rddata>
 c005a66:	08f6a223          	sw	a5,132(a3)
 c005a6a:	b7e1                	j	c005a32 <cvx16_bist_rdlvl_init+0x7c>
 c005a6c:	47c1                	li	a5,16
 c005a6e:	f8f517e3          	bne	a0,a5,c0059fc <cvx16_bist_rdlvl_init+0x46>
 c005a72:	08000637          	lui	a2,0x8000
 c005a76:	08462783          	lw	a5,132(a2) # 8000084 <p_rom_api_cryptodma_aes_decrypt+0x3be7f84>
 c005a7a:	6689                	lui	a3,0x2
 c005a7c:	f0068693          	addi	a3,a3,-256 # 1f00 <__BSS_SIZE__-0x3170>
 c005a80:	9b81                	andi	a5,a5,-32
 c005a82:	0017e793          	ori	a5,a5,1
 c005a86:	3007c713          	xori	a4,a5,768
 c005a8a:	8f75                	and	a4,a4,a3
 c005a8c:	8fb9                	xor	a5,a5,a4
 c005a8e:	00009717          	auipc	a4,0x9
 c005a92:	7cf72523          	sw	a5,1994(a4) # c00f258 <rddata>
 c005a96:	08f62223          	sw	a5,132(a2)
 c005a9a:	b735                	j	c0059c6 <cvx16_bist_rdlvl_init+0x10>

000000000c005a9c <cvx16_bist_wdqlvl_init>:
 c005a9c:	000607b7          	lui	a5,0x60
 c005aa0:	08010737          	lui	a4,0x8010
 c005aa4:	0799                	addi	a5,a5,6
 c005aa6:	c31c                	sw	a5,0(a4)
 c005aa8:	1101                	addi	sp,sp,-32
 c005aaa:	e909                	bnez	a0,c005abc <cvx16_bist_wdqlvl_init+0x20>
 c005aac:	00002797          	auipc	a5,0x2
 c005ab0:	4ac7b783          	ld	a5,1196(a5) # c007f58 <inc32table+0x2d0>
 c005ab4:	e43e                	sd	a5,8(sp)
 c005ab6:	e802                	sd	zero,16(sp)
 c005ab8:	ec02                	sd	zero,24(sp)
 c005aba:	a035                	j	c005ae6 <cvx16_bist_wdqlvl_init+0x4a>
 c005abc:	4785                	li	a5,1
 c005abe:	04f51c63          	bne	a0,a5,c005b16 <cvx16_bist_wdqlvl_init+0x7a>
 c005ac2:	6785                	lui	a5,0x1
 c005ac4:	f0578793          	addi	a5,a5,-251 # f05 <__BSS_SIZE__-0x416b>
 c005ac8:	d35c                	sw	a5,36(a4)
 c005aca:	00002797          	auipc	a5,0x2
 c005ace:	4767b783          	ld	a5,1142(a5) # c007f40 <inc32table+0x2b8>
 c005ad2:	e43e                	sd	a5,8(sp)
 c005ad4:	00002797          	auipc	a5,0x2
 c005ad8:	4747b783          	ld	a5,1140(a5) # c007f48 <inc32table+0x2c0>
 c005adc:	e83e                	sd	a5,16(sp)
 c005ade:	478d                	li	a5,3
 c005ae0:	07fa                	slli	a5,a5,0x1e
 c005ae2:	0785                	addi	a5,a5,1
 c005ae4:	ec3e                	sd	a5,24(sp)
 c005ae6:	4722                	lw	a4,8(sp)
 c005ae8:	080107b7          	lui	a5,0x8010
 c005aec:	c3b8                	sw	a4,64(a5)
 c005aee:	4732                	lw	a4,12(sp)
 c005af0:	c3f8                	sw	a4,68(a5)
 c005af2:	4742                	lw	a4,16(sp)
 c005af4:	c7b8                	sw	a4,72(a5)
 c005af6:	4752                	lw	a4,20(sp)
 c005af8:	c7f8                	sw	a4,76(a5)
 c005afa:	4762                	lw	a4,24(sp)
 c005afc:	cbb8                	sw	a4,80(a5)
 c005afe:	4772                	lw	a4,28(sp)
 c005b00:	cbf8                	sw	a4,84(a5)
 c005b02:	00100737          	lui	a4,0x100
 c005b06:	0007a823          	sw	zero,16(a5) # 8010010 <p_rom_api_cryptodma_aes_decrypt+0x3bf7f10>
 c005b0a:	177d                	addi	a4,a4,-1
 c005b0c:	cbd8                	sw	a4,20(a5)
 c005b0e:	4711                	li	a4,4
 c005b10:	cf98                	sw	a4,24(a5)
 c005b12:	6105                	addi	sp,sp,32
 c005b14:	8082                	ret
 c005b16:	47c5                	li	a5,17
 c005b18:	00002717          	auipc	a4,0x2
 c005b1c:	44070713          	addi	a4,a4,1088 # c007f58 <inc32table+0x2d0>
 c005b20:	00f51f63          	bne	a0,a5,c005b3e <cvx16_bist_wdqlvl_init+0xa2>
 c005b24:	67c1                	lui	a5,0x10
 c005b26:	30178793          	addi	a5,a5,769 # 10301 <__BSS_SIZE__+0xb291>
 c005b2a:	00009697          	auipc	a3,0x9
 c005b2e:	72f6a723          	sw	a5,1838(a3) # c00f258 <rddata>
 c005b32:	080006b7          	lui	a3,0x8000
 c005b36:	18f6a823          	sw	a5,400(a3) # 8000190 <p_rom_api_cryptodma_aes_decrypt+0x3be8090>
 c005b3a:	631c                	ld	a5,0(a4)
 c005b3c:	bfa5                	j	c005ab4 <cvx16_bist_wdqlvl_init+0x18>
 c005b3e:	47c9                	li	a5,18
 c005b40:	f6f516e3          	bne	a0,a5,c005aac <cvx16_bist_wdqlvl_init+0x10>
 c005b44:	67c9                	lui	a5,0x12
 c005b46:	f1d78793          	addi	a5,a5,-227 # 11f1d <__BSS_SIZE__+0xcead>
 c005b4a:	b7c5                	j	c005b2a <cvx16_bist_wdqlvl_init+0x8e>

000000000c005b4c <cvx16_bist_wdmlvl_init>:
 c005b4c:	00060737          	lui	a4,0x60
 c005b50:	080107b7          	lui	a5,0x8010
 c005b54:	0719                	addi	a4,a4,6
 c005b56:	c398                	sw	a4,0(a5)
 c005b58:	6705                	lui	a4,0x1
 c005b5a:	f0570713          	addi	a4,a4,-251 # f05 <__BSS_SIZE__-0x416b>
 c005b5e:	d3d8                	sw	a4,36(a5)
 c005b60:	40103737          	lui	a4,0x40103
 c005b64:	1101                	addi	sp,sp,-32
 c005b66:	e0070713          	addi	a4,a4,-512 # 40102e00 <__BL2_END__+0x340f3b90>
 c005b6a:	c63a                	sw	a4,12(sp)
 c005b6c:	00401737          	lui	a4,0x401
 c005b70:	81770713          	addi	a4,a4,-2025 # 400817 <__BSS_SIZE__+0x3fb7a7>
 c005b74:	0726                	slli	a4,a4,0x9
 c005b76:	e83a                	sd	a4,16(sp)
 c005b78:	40102737          	lui	a4,0x40102
 c005b7c:	ec02                	sd	zero,24(sp)
 c005b7e:	60070713          	addi	a4,a4,1536 # 40102600 <__BL2_END__+0x340f3390>
 c005b82:	c3b8                	sw	a4,64(a5)
 c005b84:	4732                	lw	a4,12(sp)
 c005b86:	c3f8                	sw	a4,68(a5)
 c005b88:	4742                	lw	a4,16(sp)
 c005b8a:	c7b8                	sw	a4,72(a5)
 c005b8c:	4752                	lw	a4,20(sp)
 c005b8e:	c7f8                	sw	a4,76(a5)
 c005b90:	4762                	lw	a4,24(sp)
 c005b92:	cbb8                	sw	a4,80(a5)
 c005b94:	4772                	lw	a4,28(sp)
 c005b96:	cbf8                	sw	a4,84(a5)
 c005b98:	00100737          	lui	a4,0x100
 c005b9c:	0007a823          	sw	zero,16(a5) # 8010010 <p_rom_api_cryptodma_aes_decrypt+0x3bf7f10>
 c005ba0:	177d                	addi	a4,a4,-1
 c005ba2:	cbd8                	sw	a4,20(a5)
 c005ba4:	4711                	li	a4,4
 c005ba6:	cf98                	sw	a4,24(a5)
 c005ba8:	6105                	addi	sp,sp,32
 c005baa:	8082                	ret

000000000c005bac <cvx16_bist_start_check>:
 c005bac:	000307b7          	lui	a5,0x30
 c005bb0:	08010737          	lui	a4,0x8010
 c005bb4:	078d                	addi	a5,a5,3
 c005bb6:	c31c                	sw	a5,0(a4)
 c005bb8:	00009897          	auipc	a7,0x9
 c005bbc:	6a088893          	addi	a7,a7,1696 # c00f258 <rddata>
 c005bc0:	08072783          	lw	a5,128(a4) # 8010080 <p_rom_api_cryptodma_aes_decrypt+0x3bf7f80>
 c005bc4:	08070693          	addi	a3,a4,128
 c005bc8:	00f8a023          	sw	a5,0(a7)
 c005bcc:	0047f813          	andi	a6,a5,4
 c005bd0:	fe0808e3          	beqz	a6,c005bc0 <cvx16_bist_start_check+0x14>
 c005bd4:	0c37b78b          	extu	a5,a5,3,3
 c005bd8:	c79d                	beqz	a5,c005c06 <cvx16_bist_start_check+0x5a>
 c005bda:	00052023          	sw	zero,0(a0)
 c005bde:	e2e6c80b          	lwd	a6,a4,(a3),1,3
 c005be2:	e4f6c50b          	lwd	a0,a5,(a3),2,3
 c005be6:	1702                	slli	a4,a4,0x20
 c005be8:	7c08368b          	extu	a3,a6,31,0
 c005bec:	8f55                	or	a4,a4,a3
 c005bee:	1782                	slli	a5,a5,0x20
 c005bf0:	7c05350b          	extu	a0,a0,31,0
 c005bf4:	e198                	sd	a4,0(a1)
 c005bf6:	8fc9                	or	a5,a5,a0
 c005bf8:	e21c                	sd	a5,0(a2)
 c005bfa:	080107b7          	lui	a5,0x8010
 c005bfe:	00050737          	lui	a4,0x50
 c005c02:	c398                	sw	a4,0(a5)
 c005c04:	8082                	ret
 c005c06:	4785                	li	a5,1
 c005c08:	c11c                	sw	a5,0(a0)
 c005c0a:	0005b023          	sd	zero,0(a1)
 c005c0e:	00063023          	sd	zero,0(a2)
 c005c12:	b7e5                	j	c005bfa <cvx16_bist_start_check+0x4e>

000000000c005c14 <cvx16_rdvld_train>:
 c005c14:	7159                	addi	sp,sp,-112
 c005c16:	f0a2                	sd	s0,96(sp)
 c005c18:	eca6                	sd	s1,88(sp)
 c005c1a:	e8ca                	sd	s2,80(sp)
 c005c1c:	e4ce                	sd	s3,72(sp)
 c005c1e:	e0d2                	sd	s4,64(sp)
 c005c20:	fc56                	sd	s5,56(sp)
 c005c22:	f486                	sd	ra,104(sp)
 c005c24:	f85a                	sd	s6,48(sp)
 c005c26:	f45e                	sd	s7,40(sp)
 c005c28:	f062                	sd	s8,32(sp)
 c005c2a:	c53ff0ef          	jal	ra,c00587c <cvx16_bist_wr_prbs_init>
 c005c2e:	080017b7          	lui	a5,0x8001
 c005c32:	b147a403          	lw	s0,-1260(a5) # 8000b14 <p_rom_api_cryptodma_aes_decrypt+0x3be8a14>
 c005c36:	b447a783          	lw	a5,-1212(a5)
 c005c3a:	4925                	li	s2,9
 c005c3c:	080007b7          	lui	a5,0x8000
 c005c40:	0947a483          	lw	s1,148(a5) # 8000094 <p_rom_api_cryptodma_aes_decrypt+0x3be7f94>
 c005c44:	001f0a37          	lui	s4,0x1f0
 c005c48:	080019b7          	lui	s3,0x8001
 c005c4c:	4a85                	li	s5,1
 c005c4e:	0109171b          	slliw	a4,s2,0x10
 c005c52:	8f21                	xor	a4,a4,s0
 c005c54:	01477733          	and	a4,a4,s4
 c005c58:	8c39                	xor	s0,s0,a4
 c005c5a:	2401                	sext.w	s0,s0
 c005c5c:	b089aa23          	sw	s0,-1260(s3) # 8000b14 <p_rom_api_cryptodma_aes_decrypt+0x3be8a14>
 c005c60:	b489a223          	sw	s0,-1212(s3)
 c005c64:	0830                	addi	a2,sp,24
 c005c66:	080c                	addi	a1,sp,16
 c005c68:	0068                	addi	a0,sp,12
 c005c6a:	f43ff0ef          	jal	ra,c005bac <cvx16_bist_start_check>
 c005c6e:	47b2                	lw	a5,12(sp)
 c005c70:	ef8d                	bnez	a5,c005caa <cvx16_rdvld_train+0x96>
 c005c72:	00f4f793          	andi	a5,s1,15
 c005c76:	2785                	addiw	a5,a5,1
 c005c78:	012787bb          	addw	a5,a5,s2
 c005c7c:	0107979b          	slliw	a5,a5,0x10
 c005c80:	8fa1                	xor	a5,a5,s0
 c005c82:	0147f7b3          	and	a5,a5,s4
 c005c86:	8c3d                	xor	s0,s0,a5
 c005c88:	2401                	sext.w	s0,s0
 c005c8a:	b089aa23          	sw	s0,-1260(s3)
 c005c8e:	b489a223          	sw	s0,-1212(s3)
 c005c92:	70a6                	ld	ra,104(sp)
 c005c94:	7406                	ld	s0,96(sp)
 c005c96:	64e6                	ld	s1,88(sp)
 c005c98:	6946                	ld	s2,80(sp)
 c005c9a:	69a6                	ld	s3,72(sp)
 c005c9c:	6a06                	ld	s4,64(sp)
 c005c9e:	7ae2                	ld	s5,56(sp)
 c005ca0:	7b42                	ld	s6,48(sp)
 c005ca2:	7ba2                	ld	s7,40(sp)
 c005ca4:	7c02                	ld	s8,32(sp)
 c005ca6:	6165                	addi	sp,sp,112
 c005ca8:	8082                	ret
 c005caa:	397d                	addiw	s2,s2,-1
 c005cac:	fb5911e3          	bne	s2,s5,c005c4e <cvx16_rdvld_train+0x3a>
 c005cb0:	b7cd                	j	c005c92 <cvx16_rdvld_train+0x7e>

000000000c005cb2 <cvx16_synp_mrw>:
 c005cb2:	08004737          	lui	a4,0x8004
 c005cb6:	18072683          	lw	a3,384(a4) # 8004180 <p_rom_api_cryptodma_aes_decrypt+0x3bec080>
 c005cba:	87b6                	mv	a5,a3
 c005cbc:	01f6d69b          	srliw	a3,a3,0x1f
 c005cc0:	e691                	bnez	a3,c005ccc <cvx16_synp_mrw+0x1a>
 c005cc2:	80000637          	lui	a2,0x80000
 c005cc6:	8fd1                	or	a5,a5,a2
 c005cc8:	18f72023          	sw	a5,384(a4)
 c005ccc:	00009797          	auipc	a5,0x9
 c005cd0:	5807a623          	sw	zero,1420(a5) # c00f258 <rddata>
 c005cd4:	08004737          	lui	a4,0x8004
 c005cd8:	00009617          	auipc	a2,0x9
 c005cdc:	58060613          	addi	a2,a2,1408 # c00f258 <rddata>
 c005ce0:	4f1c                	lw	a5,24(a4)
 c005ce2:	c21c                	sw	a5,0(a2)
 c005ce4:	8b85                	andi	a5,a5,1
 c005ce6:	ffed                	bnez	a5,c005ce0 <cvx16_synp_mrw+0x2e>
 c005ce8:	00c5179b          	slliw	a5,a0,0xc
 c005cec:	0107c793          	xori	a5,a5,16
 c005cf0:	653d                	lui	a0,0xf
 c005cf2:	8fe9                	and	a5,a5,a0
 c005cf4:	0107c793          	xori	a5,a5,16
 c005cf8:	2781                	sext.w	a5,a5
 c005cfa:	cb1c                	sw	a5,16(a4)
 c005cfc:	c20c                	sw	a1,0(a2)
 c005cfe:	cb4c                	sw	a1,20(a4)
 c005d00:	4b1c                	lw	a5,16(a4)
 c005d02:	800005b7          	lui	a1,0x80000
 c005d06:	8fcd                	or	a5,a5,a1
 c005d08:	c21c                	sw	a5,0(a2)
 c005d0a:	cb1c                	sw	a5,16(a4)
 c005d0c:	ea89                	bnez	a3,c005d1e <cvx16_synp_mrw+0x6c>
 c005d0e:	18072783          	lw	a5,384(a4) # 8004180 <p_rom_api_cryptodma_aes_decrypt+0x3bec080>
 c005d12:	7807b78b          	extu	a5,a5,30,0
 c005d16:	2781                	sext.w	a5,a5
 c005d18:	c21c                	sw	a5,0(a2)
 c005d1a:	18f72023          	sw	a5,384(a4)
 c005d1e:	8082                	ret

000000000c005d20 <cvx16_dll_cal>:
 c005d20:	080067b7          	lui	a5,0x8006
 c005d24:	47fc                	lw	a5,76(a5)
 c005d26:	00009717          	auipc	a4,0x9
 c005d2a:	53270713          	addi	a4,a4,1330 # c00f258 <rddata>
 c005d2e:	c31c                	sw	a5,0(a4)
 c005d30:	1447b78b          	extu	a5,a5,5,4
 c005d34:	cb9d                	beqz	a5,c005d6a <cvx16_dll_cal+0x4a>
 c005d36:	080006b7          	lui	a3,0x8000
 c005d3a:	42bc                	lw	a5,64(a3)
 c005d3c:	7601                	lui	a2,0xfffe0
 c005d3e:	1675                	addi	a2,a2,-3
 c005d40:	8ff1                	and	a5,a5,a2
 c005d42:	c31c                	sw	a5,0(a4)
 c005d44:	c2bc                	sw	a5,64(a3)
 c005d46:	42bc                	lw	a5,64(a3)
 c005d48:	00020637          	lui	a2,0x20
 c005d4c:	0609                	addi	a2,a2,2
 c005d4e:	8fd1                	or	a5,a5,a2
 c005d50:	c2bc                	sw	a5,64(a3)
 c005d52:	00009797          	auipc	a5,0x9
 c005d56:	5007a323          	sw	zero,1286(a5) # c00f258 <rddata>
 c005d5a:	08003637          	lui	a2,0x8003
 c005d5e:	66c1                	lui	a3,0x10
 c005d60:	4a5c                	lw	a5,20(a2)
 c005d62:	c31c                	sw	a5,0(a4)
 c005d64:	8ff5                	and	a5,a5,a3
 c005d66:	dfed                	beqz	a5,c005d60 <cvx16_dll_cal+0x40>
 c005d68:	8082                	ret
 c005d6a:	08000637          	lui	a2,0x8000
 c005d6e:	423c                	lw	a5,64(a2)
 c005d70:	7681                	lui	a3,0xfffe0
 c005d72:	16f5                	addi	a3,a3,-3
 c005d74:	8ff5                	and	a5,a5,a3
 c005d76:	c31c                	sw	a5,0(a4)
 c005d78:	c23c                	sw	a5,64(a2)
 c005d7a:	8082                	ret

000000000c005d7c <cvx16_clk_normal>:
 c005d7c:	080066b7          	lui	a3,0x8006
 c005d80:	46dc                	lw	a5,12(a3)
 c005d82:	7769                	lui	a4,0xffffa
 c005d84:	177d                	addi	a4,a4,-1
 c005d86:	8ff9                	and	a5,a5,a4
 c005d88:	c6dc                	sw	a5,12(a3)
 c005d8a:	00009797          	auipc	a5,0x9
 c005d8e:	4b67a783          	lw	a5,1206(a5) # c00f240 <reg_set>
 c005d92:	03003737          	lui	a4,0x3003
 c005d96:	90070713          	addi	a4,a4,-1792 # 3002900 <__BSS_SIZE__+0x2ffd890>
 c005d9a:	cb7c                	sw	a5,84(a4)
 c005d9c:	00009797          	auipc	a5,0x9
 c005da0:	4ac7d783          	lhu	a5,1196(a5) # c00f248 <reg_span>
 c005da4:	00009697          	auipc	a3,0x9
 c005da8:	4b468693          	addi	a3,a3,1204 # c00f258 <rddata>
 c005dac:	cf3c                	sw	a5,88(a4)
 c005dae:	00009797          	auipc	a5,0x9
 c005db2:	4a27b783          	ld	a5,1186(a5) # c00f250 <reg_step>
 c005db6:	5c07b78b          	extu	a5,a5,23,0
 c005dba:	2781                	sext.w	a5,a5
 c005dbc:	c29c                	sw	a5,0(a3)
 c005dbe:	cf7c                	sw	a5,92(a4)
 c005dc0:	4b3c                	lw	a5,80(a4)
 c005dc2:	0017c793          	xori	a5,a5,1
 c005dc6:	fa17f793          	andi	a5,a5,-95
 c005dca:	0207e793          	ori	a5,a5,32
 c005dce:	c29c                	sw	a5,0(a3)
 c005dd0:	cb3c                	sw	a5,80(a4)
 c005dd2:	8082                	ret

000000000c005dd4 <cvx16_clk_div2>:
 c005dd4:	08006737          	lui	a4,0x8006
 c005dd8:	475c                	lw	a5,12(a4)
 c005dda:	6691                	lui	a3,0x4
 c005ddc:	8fd5                	or	a5,a5,a3
 c005dde:	00009617          	auipc	a2,0x9
 c005de2:	46f62d23          	sw	a5,1146(a2) # c00f258 <rddata>
 c005de6:	c75c                	sw	a5,12(a4)
 c005de8:	8082                	ret

000000000c005dea <cvx16_clk_div40>:
 c005dea:	08006737          	lui	a4,0x8006
 c005dee:	475c                	lw	a5,12(a4)
 c005df0:	6689                	lui	a3,0x2
 c005df2:	8fd5                	or	a5,a5,a3
 c005df4:	00009617          	auipc	a2,0x9
 c005df8:	46f62223          	sw	a5,1124(a2) # c00f258 <rddata>
 c005dfc:	c75c                	sw	a5,12(a4)
 c005dfe:	8082                	ret

000000000c005e00 <cvx16_chg_pll_freq>:
 c005e00:	1101                	addi	sp,sp,-32
 c005e02:	00009797          	auipc	a5,0x9
 c005e06:	4407ab23          	sw	zero,1110(a5) # c00f258 <rddata>
 c005e0a:	080066b7          	lui	a3,0x8006
 c005e0e:	e822                	sd	s0,16(sp)
 c005e10:	ec06                	sd	ra,24(sp)
 c005e12:	e426                	sd	s1,8(sp)
 c005e14:	e04a                	sd	s2,0(sp)
 c005e16:	0006a223          	sw	zero,4(a3) # 8006004 <p_rom_api_cryptodma_aes_decrypt+0x3bedf04>
 c005e1a:	0006a423          	sw	zero,8(a3)
 c005e1e:	46dc                	lw	a5,12(a3)
 c005e20:	00009417          	auipc	s0,0x9
 c005e24:	43840413          	addi	s0,s0,1080 # c00f258 <rddata>
 c005e28:	f7f7f793          	andi	a5,a5,-129
 c005e2c:	c01c                	sw	a5,0(s0)
 c005e2e:	c6dc                	sw	a5,12(a3)
 c005e30:	46fc                	lw	a5,76(a3)
 c005e32:	c01c                	sw	a5,0(s0)
 c005e34:	46fc                	lw	a5,76(a3)
 c005e36:	c01c                	sw	a5,0(s0)
 c005e38:	46fc                	lw	a5,76(a3)
 c005e3a:	c01c                	sw	a5,0(s0)
 c005e3c:	46fc                	lw	a5,76(a3)
 c005e3e:	c01c                	sw	a5,0(s0)
 c005e40:	46fc                	lw	a5,76(a3)
 c005e42:	c01c                	sw	a5,0(s0)
 c005e44:	46f8                	lw	a4,76(a3)
 c005e46:	87ba                	mv	a5,a4
 c005e48:	8b05                	andi	a4,a4,1
 c005e4a:	c315                	beqz	a4,c005e6e <cvx16_chg_pll_freq+0x6e>
 c005e4c:	2487b60b          	extu	a2,a5,9,8
 c005e50:	1447b70b          	extu	a4,a5,5,4
 c005e54:	e621                	bnez	a2,c005e9c <cvx16_chg_pll_freq+0x9c>
 c005e56:	fcf7f793          	andi	a5,a5,-49
 c005e5a:	0087171b          	slliw	a4,a4,0x8
 c005e5e:	8f3d                	xor	a4,a4,a5
 c005e60:	30077713          	andi	a4,a4,768
 c005e64:	8fb9                	xor	a5,a5,a4
 c005e66:	c01c                	sw	a5,0(s0)
 c005e68:	c6fc                	sw	a5,76(a3)
 c005e6a:	f81ff0ef          	jal	ra,c005dea <cvx16_clk_div40>
 c005e6e:	4685                	li	a3,1
 c005e70:	c014                	sw	a3,0(s0)
 c005e72:	08006737          	lui	a4,0x8006
 c005e76:	c354                	sw	a3,4(a4)
 c005e78:	475c                	lw	a5,12(a4)
 c005e7a:	64a1                	lui	s1,0x8
 c005e7c:	08006937          	lui	s2,0x8006
 c005e80:	0807e793          	ori	a5,a5,128
 c005e84:	c75c                	sw	a5,12(a4)
 c005e86:	c014                	sw	a3,0(s0)
 c005e88:	c714                	sw	a3,8(a4)
 c005e8a:	401c                	lw	a5,0(s0)
 c005e8c:	8fe5                	and	a5,a5,s1
 c005e8e:	cbb9                	beqz	a5,c005ee4 <cvx16_chg_pll_freq+0xe4>
 c005e90:	60e2                	ld	ra,24(sp)
 c005e92:	6442                	ld	s0,16(sp)
 c005e94:	64a2                	ld	s1,8(sp)
 c005e96:	6902                	ld	s2,0(sp)
 c005e98:	6105                	addi	sp,sp,32
 c005e9a:	8082                	ret
 c005e9c:	4589                	li	a1,2
 c005e9e:	02b61163          	bne	a2,a1,c005ec0 <cvx16_chg_pll_freq+0xc0>
 c005ea2:	fcf7f793          	andi	a5,a5,-49
 c005ea6:	0207e793          	ori	a5,a5,32
 c005eaa:	0087171b          	slliw	a4,a4,0x8
 c005eae:	8f3d                	xor	a4,a4,a5
 c005eb0:	30077713          	andi	a4,a4,768
 c005eb4:	8fb9                	xor	a5,a5,a4
 c005eb6:	c01c                	sw	a5,0(s0)
 c005eb8:	c6fc                	sw	a5,76(a3)
 c005eba:	ec3ff0ef          	jal	ra,c005d7c <cvx16_clk_normal>
 c005ebe:	bf45                	j	c005e6e <cvx16_chg_pll_freq+0x6e>
 c005ec0:	4585                	li	a1,1
 c005ec2:	fab616e3          	bne	a2,a1,c005e6e <cvx16_chg_pll_freq+0x6e>
 c005ec6:	fcf7f793          	andi	a5,a5,-49
 c005eca:	0107e793          	ori	a5,a5,16
 c005ece:	0087171b          	slliw	a4,a4,0x8
 c005ed2:	8f3d                	xor	a4,a4,a5
 c005ed4:	30077713          	andi	a4,a4,768
 c005ed8:	8fb9                	xor	a5,a5,a4
 c005eda:	c01c                	sw	a5,0(s0)
 c005edc:	c6fc                	sw	a5,76(a3)
 c005ede:	ef7ff0ef          	jal	ra,c005dd4 <cvx16_clk_div2>
 c005ee2:	b771                	j	c005e6e <cvx16_chg_pll_freq+0x6e>
 c005ee4:	01092783          	lw	a5,16(s2) # 8006010 <p_rom_api_cryptodma_aes_decrypt+0x3bedf10>
 c005ee8:	4501                	li	a0,0
 c005eea:	c01c                	sw	a5,0(s0)
 c005eec:	a8efa0ef          	jal	ra,c00017a <udelay>
 c005ef0:	bf69                	j	c005e8a <cvx16_chg_pll_freq+0x8a>

000000000c005ef2 <cvx16_ddr_phy_power_on_seq1>:
 c005ef2:	080067b7          	lui	a5,0x8006
 c005ef6:	43b4                	lw	a3,64(a5)
 c005ef8:	bf000737          	lui	a4,0xbf000
 c005efc:	177d                	addi	a4,a4,-1
 c005efe:	8f75                	and	a4,a4,a3
 c005f00:	2701                	sext.w	a4,a4
 c005f02:	00009697          	auipc	a3,0x9
 c005f06:	35668693          	addi	a3,a3,854 # c00f258 <rddata>
 c005f0a:	c298                	sw	a4,0(a3)
 c005f0c:	c3b8                	sw	a4,64(a5)
 c005f0e:	43b8                	lw	a4,64(a5)
 c005f10:	0006a023          	sw	zero,0(a3)
 c005f14:	0407a023          	sw	zero,64(a5) # 8006040 <p_rom_api_cryptodma_aes_decrypt+0x3bedf40>
 c005f18:	4fd8                	lw	a4,28(a5)
 c005f1a:	08076713          	ori	a4,a4,128
 c005f1e:	cfd8                	sw	a4,28(a5)
 c005f20:	0006a023          	sw	zero,0(a3)
 c005f24:	0007a023          	sw	zero,0(a5)
 c005f28:	4fd8                	lw	a4,28(a5)
 c005f2a:	f7f77713          	andi	a4,a4,-129
 c005f2e:	c298                	sw	a4,0(a3)
 c005f30:	cfd8                	sw	a4,28(a5)
 c005f32:	8082                	ret

000000000c005f34 <cvx16_ddr_phy_power_on_seq2>:
 c005f34:	1141                	addi	sp,sp,-16
 c005f36:	e406                	sd	ra,8(sp)
 c005f38:	e022                	sd	s0,0(sp)
 c005f3a:	ec7ff0ef          	jal	ra,c005e00 <cvx16_chg_pll_freq>
 c005f3e:	08000737          	lui	a4,0x8000
 c005f42:	15472783          	lw	a5,340(a4) # 8000154 <p_rom_api_cryptodma_aes_decrypt+0x3be8054>
 c005f46:	00009417          	auipc	s0,0x9
 c005f4a:	31240413          	addi	s0,s0,786 # c00f258 <rddata>
 c005f4e:	9bf9                	andi	a5,a5,-2
 c005f50:	14f72a23          	sw	a5,340(a4)
 c005f54:	00042023          	sw	zero,0(s0)
 c005f58:	12072823          	sw	zero,304(a4)
 c005f5c:	dc5ff0ef          	jal	ra,c005d20 <cvx16_dll_cal>
 c005f60:	080067b7          	lui	a5,0x8006
 c005f64:	80000737          	lui	a4,0x80000
 c005f68:	c3b8                	sw	a4,64(a5)
 c005f6a:	00042023          	sw	zero,0(s0)
 c005f6e:	60a2                	ld	ra,8(sp)
 c005f70:	6402                	ld	s0,0(sp)
 c005f72:	0007a023          	sw	zero,0(a5) # 8006000 <p_rom_api_cryptodma_aes_decrypt+0x3bedf00>
 c005f76:	0141                	addi	sp,sp,16
 c005f78:	8082                	ret

000000000c005f7a <cvx16_ddr_phy_power_on_seq3>:
 c005f7a:	080007b7          	lui	a5,0x8000
 c005f7e:	10078693          	addi	a3,a5,256 # 8000100 <p_rom_api_cryptodma_aes_decrypt+0x3be8000>
 c005f82:	4af8                	lw	a4,84(a3)
 c005f84:	00009617          	auipc	a2,0x9
 c005f88:	2d460613          	addi	a2,a2,724 # c00f258 <rddata>
 c005f8c:	20078793          	addi	a5,a5,512
 c005f90:	9b79                	andi	a4,a4,-2
 c005f92:	caf8                	sw	a4,84(a3)
 c005f94:	00062023          	sw	zero,0(a2)
 c005f98:	f207a823          	sw	zero,-208(a5)
 c005f9c:	43d4                	lw	a3,4(a5)
 c005f9e:	000405b7          	lui	a1,0x40
 c005fa2:	8ecd                	or	a3,a3,a1
 c005fa4:	c214                	sw	a3,0(a2)
 c005fa6:	c3d4                	sw	a3,4(a5)
 c005fa8:	53d8                	lw	a4,36(a5)
 c005faa:	8f4d                	or	a4,a4,a1
 c005fac:	c218                	sw	a4,0(a2)
 c005fae:	d3d8                	sw	a4,36(a5)
 c005fb0:	8082                	ret

000000000c005fb2 <cvx16_wait_for_dfi_init_complete>:
 c005fb2:	08004737          	lui	a4,0x8004
 c005fb6:	00009697          	auipc	a3,0x9
 c005fba:	2a268693          	addi	a3,a3,674 # c00f258 <rddata>
 c005fbe:	1bc72783          	lw	a5,444(a4) # 80041bc <p_rom_api_cryptodma_aes_decrypt+0x3bec0bc>
 c005fc2:	c29c                	sw	a5,0(a3)
 c005fc4:	8b85                	andi	a5,a5,1
 c005fc6:	dfe5                	beqz	a5,c005fbe <cvx16_wait_for_dfi_init_complete+0xc>
 c005fc8:	32072023          	sw	zero,800(a4)
 c005fcc:	1b072783          	lw	a5,432(a4)
 c005fd0:	fc07f793          	andi	a5,a5,-64
 c005fd4:	0057e793          	ori	a5,a5,5
 c005fd8:	c29c                	sw	a5,0(a3)
 c005fda:	1af72823          	sw	a5,432(a4)
 c005fde:	4785                	li	a5,1
 c005fe0:	32f72023          	sw	a5,800(a4)
 c005fe4:	8082                	ret

000000000c005fe6 <cvx16_polling_dfi_init_start>:
 c005fe6:	080036b7          	lui	a3,0x8003
 c005fea:	00009717          	auipc	a4,0x9
 c005fee:	26e70713          	addi	a4,a4,622 # c00f258 <rddata>
 c005ff2:	569c                	lw	a5,40(a3)
 c005ff4:	c31c                	sw	a5,0(a4)
 c005ff6:	1007f793          	andi	a5,a5,256
 c005ffa:	dfe5                	beqz	a5,c005ff2 <cvx16_polling_dfi_init_start+0xc>
 c005ffc:	8082                	ret

000000000c005ffe <cvx16_set_dfi_init_complete>:
 c005ffe:	1141                	addi	sp,sp,-16
 c006000:	4551                	li	a0,20
 c006002:	e406                	sd	ra,8(sp)
 c006004:	976fa0ef          	jal	ra,c00017a <udelay>
 c006008:	080007b7          	lui	a5,0x8000
 c00600c:	4741                	li	a4,16
 c00600e:	12e7a023          	sw	a4,288(a5) # 8000120 <p_rom_api_cryptodma_aes_decrypt+0x3be8020>
 c006012:	60a2                	ld	ra,8(sp)
 c006014:	4705                	li	a4,1
 c006016:	00009697          	auipc	a3,0x9
 c00601a:	24e6a123          	sw	a4,578(a3) # c00f258 <rddata>
 c00601e:	10e7ac23          	sw	a4,280(a5)
 c006022:	0141                	addi	sp,sp,16
 c006024:	8082                	ret

000000000c006026 <cvx16_INT_ISR_08>:
 c006026:	1141                	addi	sp,sp,-16
 c006028:	e406                	sd	ra,8(sp)
 c00602a:	00009797          	auipc	a5,0x9
 c00602e:	22e78793          	addi	a5,a5,558 # c00f258 <rddata>
 c006032:	0007a023          	sw	zero,0(a5)
 c006036:	08000737          	lui	a4,0x8000
 c00603a:	10072c23          	sw	zero,280(a4) # 8000118 <p_rom_api_cryptodma_aes_decrypt+0x3be8018>
 c00603e:	08006737          	lui	a4,0x8006
 c006042:	4778                	lw	a4,76(a4)
 c006044:	c398                	sw	a4,0(a5)
 c006046:	eefff0ef          	jal	ra,c005f34 <cvx16_ddr_phy_power_on_seq2>
 c00604a:	60a2                	ld	ra,8(sp)
 c00604c:	0141                	addi	sp,sp,16
 c00604e:	bf45                	j	c005ffe <cvx16_set_dfi_init_complete>

000000000c006050 <cvx16_polling_synp_normal_mode>:
 c006050:	08004637          	lui	a2,0x8004
 c006054:	00009697          	auipc	a3,0x9
 c006058:	20468693          	addi	a3,a3,516 # c00f258 <rddata>
 c00605c:	4705                	li	a4,1
 c00605e:	425c                	lw	a5,4(a2)
 c006060:	c29c                	sw	a5,0(a3)
 c006062:	8b9d                	andi	a5,a5,7
 c006064:	fee79de3          	bne	a5,a4,c00605e <cvx16_polling_synp_normal_mode+0xe>
 c006068:	8082                	ret

000000000c00606a <cvx16_dfi_ca_park_prbs>:
 c00606a:	4785                	li	a5,1
 c00606c:	00009717          	auipc	a4,0x9
 c006070:	1ec70713          	addi	a4,a4,492 # c00f258 <rddata>
 c006074:	080006b7          	lui	a3,0x8000
 c006078:	c31c                	sw	a5,0(a4)
 c00607a:	16f6aa23          	sw	a5,372(a3) # 8000174 <p_rom_api_cryptodma_aes_decrypt+0x3be8074>
 c00607e:	08003637          	lui	a2,0x8003
 c006082:	468d                	li	a3,3
 c006084:	5a1c                	lw	a5,48(a2)
 c006086:	c31c                	sw	a5,0(a4)
 c006088:	2487b78b          	extu	a5,a5,9,8
 c00608c:	fed79ce3          	bne	a5,a3,c006084 <cvx16_dfi_ca_park_prbs+0x1a>
 c006090:	4785                	li	a5,1
 c006092:	02f51a63          	bne	a0,a5,c0060c6 <cvx16_dfi_ca_park_prbs+0x5c>
 c006096:	0800a7b7          	lui	a5,0x800a
 c00609a:	46ed                	li	a3,27
 c00609c:	c394                	sw	a3,0(a5)
 c00609e:	0800a7b7          	lui	a5,0x800a
 c0060a2:	4685                	li	a3,1
 c0060a4:	c3d4                	sw	a3,4(a5)
 c0060a6:	020006b7          	lui	a3,0x2000
 c0060aa:	fcb68693          	addi	a3,a3,-53 # 1ffffcb <__BSS_SIZE__+0x1ffaf5b>
 c0060ae:	c794                	sw	a3,8(a5)
 c0060b0:	400006b7          	lui	a3,0x40000
 c0060b4:	16fd                	addi	a3,a3,-1
 c0060b6:	c7d4                	sw	a3,12(a5)
 c0060b8:	47c1                	li	a5,16
 c0060ba:	c31c                	sw	a5,0(a4)
 c0060bc:	08000737          	lui	a4,0x8000
 c0060c0:	16f72a23          	sw	a5,372(a4) # 8000174 <p_rom_api_cryptodma_aes_decrypt+0x3be8074>
 c0060c4:	8082                	ret
 c0060c6:	0800a7b7          	lui	a5,0x800a
 c0060ca:	0007a023          	sw	zero,0(a5) # 800a000 <p_rom_api_cryptodma_aes_decrypt+0x3bf1f00>
 c0060ce:	bfc1                	j	c00609e <cvx16_dfi_ca_park_prbs+0x34>

000000000c0060d0 <cvx16_setting_check>:
 c0060d0:	08004737          	lui	a4,0x8004
 c0060d4:	080037b7          	lui	a5,0x8003
 c0060d8:	439c                	lw	a5,0(a5)
 c0060da:	19072683          	lw	a3,400(a4) # 8004190 <p_rom_api_cryptodma_aes_decrypt+0x3bec090>
 c0060de:	00009797          	auipc	a5,0x9
 c0060e2:	17a78793          	addi	a5,a5,378 # c00f258 <rddata>
 c0060e6:	c394                	sw	a3,0(a5)
 c0060e8:	19472703          	lw	a4,404(a4)
 c0060ec:	c398                	sw	a4,0(a5)
 c0060ee:	8082                	ret

000000000c0060f0 <cvx16_set_dfi_init_start>:
 c0060f0:	08004737          	lui	a4,0x8004
 c0060f4:	32072023          	sw	zero,800(a4) # 8004320 <p_rom_api_cryptodma_aes_decrypt+0x3bec220>
 c0060f8:	1b072783          	lw	a5,432(a4)
 c0060fc:	0207e793          	ori	a5,a5,32
 c006100:	00009697          	auipc	a3,0x9
 c006104:	14f6ac23          	sw	a5,344(a3) # c00f258 <rddata>
 c006108:	1af72823          	sw	a5,432(a4)
 c00610c:	4785                	li	a5,1
 c00610e:	32f72023          	sw	a5,800(a4)
 c006112:	8082                	ret

000000000c006114 <cvx16_pll_init>:
 c006114:	080067b7          	lui	a5,0x8006
 c006118:	00080737          	lui	a4,0x80
 c00611c:	0207a423          	sw	zero,40(a5) # 8006028 <p_rom_api_cryptodma_aes_decrypt+0x3bedf28>
 c006120:	0705                	addi	a4,a4,1
 c006122:	cbf8                	sw	a4,84(a5)
 c006124:	01011737          	lui	a4,0x1011
 c006128:	80870713          	addi	a4,a4,-2040 # 1010808 <__BSS_SIZE__+0x100b798>
 c00612c:	cfb8                	sw	a4,88(a5)
 c00612e:	00009717          	auipc	a4,0x9
 c006132:	11272703          	lw	a4,274(a4) # c00f240 <reg_set>
 c006136:	030036b7          	lui	a3,0x3003
 c00613a:	90068693          	addi	a3,a3,-1792 # 3002900 <__BSS_SIZE__+0x2ffd890>
 c00613e:	caf8                	sw	a4,84(a3)
 c006140:	00009717          	auipc	a4,0x9
 c006144:	10875703          	lhu	a4,264(a4) # c00f248 <reg_span>
 c006148:	00009617          	auipc	a2,0x9
 c00614c:	11060613          	addi	a2,a2,272 # c00f258 <rddata>
 c006150:	ceb8                	sw	a4,88(a3)
 c006152:	00009717          	auipc	a4,0x9
 c006156:	0fe73703          	ld	a4,254(a4) # c00f250 <reg_step>
 c00615a:	5c07370b          	extu	a4,a4,23,0
 c00615e:	2701                	sext.w	a4,a4
 c006160:	c218                	sw	a4,0(a2)
 c006162:	cef8                	sw	a4,92(a3)
 c006164:	4ab8                	lw	a4,80(a3)
 c006166:	00174713          	xori	a4,a4,1
 c00616a:	fa177713          	andi	a4,a4,-95
 c00616e:	02076713          	ori	a4,a4,32
 c006172:	c218                	sw	a4,0(a2)
 c006174:	cab8                	sw	a4,80(a3)
 c006176:	47d8                	lw	a4,12(a5)
 c006178:	30b74693          	xori	a3,a4,779
 c00617c:	3c06b68b          	extu	a3,a3,15,0
 c006180:	8f35                	xor	a4,a4,a3
 c006182:	c218                	sw	a4,0(a2)
 c006184:	c7d8                	sw	a4,12(a5)
 c006186:	4b98                	lw	a4,16(a5)
 c006188:	080066b7          	lui	a3,0x8006
 c00618c:	f0077713          	andi	a4,a4,-256
 c006190:	cb98                	sw	a4,16(a5)
 c006192:	4705                	li	a4,1
 c006194:	c218                	sw	a4,0(a2)
 c006196:	c3d8                	sw	a4,4(a5)
 c006198:	47d8                	lw	a4,12(a5)
 c00619a:	08076713          	ori	a4,a4,128
 c00619e:	c218                	sw	a4,0(a2)
 c0061a0:	c7d8                	sw	a4,12(a5)
 c0061a2:	6721                	lui	a4,0x8
 c0061a4:	4a9c                	lw	a5,16(a3)
 c0061a6:	c21c                	sw	a5,0(a2)
 c0061a8:	8ff9                	and	a5,a5,a4
 c0061aa:	dfed                	beqz	a5,c0061a4 <cvx16_pll_init+0x90>
 c0061ac:	8082                	ret

000000000c0061ae <cvx16_clk_gating_disable>:
 c0061ae:	6785                	lui	a5,0x1
 c0061b0:	08006737          	lui	a4,0x8006
 c0061b4:	2f578793          	addi	a5,a5,757 # 12f5 <__BSS_SIZE__-0x3d7b>
 c0061b8:	c37c                	sw	a5,68(a4)
 c0061ba:	00009697          	auipc	a3,0x9
 c0061be:	09e68693          	addi	a3,a3,158 # c00f258 <rddata>
 c0061c2:	0006a023          	sw	zero,0(a3)
 c0061c6:	080007b7          	lui	a5,0x8000
 c0061ca:	0e07aa23          	sw	zero,244(a5) # 80000f4 <p_rom_api_cryptodma_aes_decrypt+0x3be7ff4>
 c0061ce:	080047b7          	lui	a5,0x8004
 c0061d2:	5b98                	lw	a4,48(a5)
 c0061d4:	7f800637          	lui	a2,0x7f800
 c0061d8:	167d                	addi	a2,a2,-1
 c0061da:	dff77713          	andi	a4,a4,-513
 c0061de:	c298                	sw	a4,0(a3)
 c0061e0:	db98                	sw	a4,48(a5)
 c0061e2:	10078793          	addi	a5,a5,256 # 8004100 <p_rom_api_cryptodma_aes_decrypt+0x3bec000>
 c0061e6:	47b8                	lw	a4,72(a5)
 c0061e8:	8f71                	and	a4,a4,a2
 c0061ea:	c298                	sw	a4,0(a3)
 c0061ec:	c7b8                	sw	a4,72(a5)
 c0061ee:	8082                	ret

000000000c0061f0 <cvx16_clk_gating_enable>:
 c0061f0:	678d                	lui	a5,0x3
 c0061f2:	00009617          	auipc	a2,0x9
 c0061f6:	06660613          	addi	a2,a2,102 # c00f258 <rddata>
 c0061fa:	c8178793          	addi	a5,a5,-895 # 2c81 <__BSS_SIZE__-0x23ef>
 c0061fe:	c21c                	sw	a5,0(a2)
 c006200:	08006737          	lui	a4,0x8006
 c006204:	c37c                	sw	a5,68(a4)
 c006206:	08004737          	lui	a4,0x8004
 c00620a:	18070593          	addi	a1,a4,384 # 8004180 <p_rom_api_cryptodma_aes_decrypt+0x3bec080>
 c00620e:	499c                	lw	a5,16(a1)
 c006210:	060006b7          	lui	a3,0x6000
 c006214:	1f000537          	lui	a0,0x1f000
 c006218:	8ebd                	xor	a3,a3,a5
 c00621a:	8ee9                	and	a3,a3,a0
 c00621c:	8fb5                	xor	a5,a5,a3
 c00621e:	2781                	sext.w	a5,a5
 c006220:	c99c                	sw	a5,16(a1)
 c006222:	000307b7          	lui	a5,0x30
 c006226:	03378793          	addi	a5,a5,51 # 30033 <__BSS_SIZE__+0x2afc3>
 c00622a:	c21c                	sw	a5,0(a2)
 c00622c:	080006b7          	lui	a3,0x8000
 c006230:	0ef6aa23          	sw	a5,244(a3) # 80000f4 <p_rom_api_cryptodma_aes_decrypt+0x3be7ff4>
 c006234:	5b1c                	lw	a5,48(a4)
 c006236:	808006b7          	lui	a3,0x80800
 c00623a:	2007e793          	ori	a5,a5,512
 c00623e:	c21c                	sw	a5,0(a2)
 c006240:	db1c                	sw	a5,48(a4)
 c006242:	10070713          	addi	a4,a4,256
 c006246:	473c                	lw	a5,72(a4)
 c006248:	8fd5                	or	a5,a5,a3
 c00624a:	c21c                	sw	a5,0(a2)
 c00624c:	c73c                	sw	a5,72(a4)
 c00624e:	8082                	ret

000000000c006250 <cvx16_wrlvl_req>:
 c006250:	715d                	addi	sp,sp,-80
 c006252:	f44e                	sd	s3,40(sp)
 c006254:	e85a                	sd	s6,16(sp)
 c006256:	e486                	sd	ra,72(sp)
 c006258:	e0a2                	sd	s0,64(sp)
 c00625a:	fc26                	sd	s1,56(sp)
 c00625c:	f84a                	sd	s2,48(sp)
 c00625e:	f052                	sd	s4,32(sp)
 c006260:	ec56                	sd	s5,24(sp)
 c006262:	e45e                	sd	s7,8(sp)
 c006264:	080007b7          	lui	a5,0x8000
 c006268:	00fe0737          	lui	a4,0xfe0
 c00626c:	cff8                	sw	a4,92(a5)
 c00626e:	080047b7          	lui	a5,0x8004
 c006272:	5407a023          	sw	zero,1344(a5) # 8004540 <p_rom_api_cryptodma_aes_decrypt+0x3bec440>
 c006276:	5e07a823          	sw	zero,1520(a5)
 c00627a:	6a07a023          	sw	zero,1696(a5)
 c00627e:	08004b37          	lui	s6,0x8004
 c006282:	00009997          	auipc	s3,0x9
 c006286:	fd698993          	addi	s3,s3,-42 # c00f258 <rddata>
 c00628a:	3fcb2783          	lw	a5,1020(s6) # 80043fc <p_rom_api_cryptodma_aes_decrypt+0x3bec2fc>
 c00628e:	00f9a023          	sw	a5,0(s3)
 c006292:	ffe5                	bnez	a5,c00628a <cvx16_wrlvl_req+0x3a>
 c006294:	030b2783          	lw	a5,48(s6)
 c006298:	84be                	mv	s1,a5
 c00629a:	0017f913          	andi	s2,a5,1
 c00629e:	fd47f793          	andi	a5,a5,-44
 c0062a2:	00f9a023          	sw	a5,0(s3)
 c0062a6:	02fb2823          	sw	a5,48(s6)
 c0062aa:	f05ff0ef          	jal	ra,c0061ae <cvx16_clk_gating_disable>
 c0062ae:	244b2a03          	lw	s4,580(s6)
 c0062b2:	0149a023          	sw	s4,0(s3)
 c0062b6:	001a7a13          	andi	s4,s4,1
 c0062ba:	e70ff0ef          	jal	ra,c00592a <cvx16_bist_wrlvl_init>
 c0062be:	120a0563          	beqz	s4,c0063e8 <cvx16_wrlvl_req+0x198>
 c0062c2:	0e0b2403          	lw	s0,224(s6)
 c0062c6:	8aa2                	mv	s5,s0
 c0062c8:	01945b9b          	srliw	s7,s0,0x19
 c0062cc:	6994340b          	extu	s0,s0,26,25
 c0062d0:	ec61                	bnez	s0,c0063a8 <cvx16_wrlvl_req+0x158>
 c0062d2:	0159a023          	sw	s5,0(s3)
 c0062d6:	3c04358b          	extu	a1,s0,15,0
 c0062da:	0805e593          	ori	a1,a1,128
 c0062de:	4505                	li	a0,1
 c0062e0:	9d3ff0ef          	jal	ra,c005cb2 <cvx16_synp_mrw>
 c0062e4:	08000737          	lui	a4,0x8000
 c0062e8:	18072783          	lw	a5,384(a4) # 8000180 <p_rom_api_cryptodma_aes_decrypt+0x3be8080>
 c0062ec:	004a1a1b          	slliw	s4,s4,0x4
 c0062f0:	0017e793          	ori	a5,a5,1
 c0062f4:	0147ca33          	xor	s4,a5,s4
 c0062f8:	010a7a13          	andi	s4,s4,16
 c0062fc:	0147ca33          	xor	s4,a5,s4
 c006300:	0149a023          	sw	s4,0(s3)
 c006304:	19472023          	sw	s4,384(a4)
 c006308:	08003737          	lui	a4,0x8003
 c00630c:	44472783          	lw	a5,1092(a4) # 8003444 <p_rom_api_cryptodma_aes_decrypt+0x3beb344>
 c006310:	00f9a023          	sw	a5,0(s3)
 c006314:	8b85                	andi	a5,a5,1
 c006316:	dbfd                	beqz	a5,c00630c <cvx16_wrlvl_req+0xbc>
 c006318:	00040737          	lui	a4,0x40
 c00631c:	080107b7          	lui	a5,0x8010
 c006320:	08004437          	lui	s0,0x8004
 c006324:	c398                	sw	a4,0(a5)
 c006326:	503c                	lw	a5,96(s0)
 c006328:	08040a13          	addi	s4,s0,128 # 8004080 <p_rom_api_cryptodma_aes_decrypt+0x3bebf80>
 c00632c:	4505                	li	a0,1
 c00632e:	9bf9                	andi	a5,a5,-2
 c006330:	00f9a023          	sw	a5,0(s3)
 c006334:	d03c                	sw	a5,96(s0)
 c006336:	05ca2583          	lw	a1,92(s4) # 1f005c <__BSS_SIZE__+0x1eafec>
 c00633a:	00b9a023          	sw	a1,0(s3)
 c00633e:	3c05b58b          	extu	a1,a1,15,0
 c006342:	971ff0ef          	jal	ra,c005cb2 <cvx16_synp_mrw>
 c006346:	060a2583          	lw	a1,96(s4)
 c00634a:	4509                	li	a0,2
 c00634c:	00b9a023          	sw	a1,0(s3)
 c006350:	7d05b58b          	extu	a1,a1,31,16
 c006354:	95fff0ef          	jal	ra,c005cb2 <cvx16_synp_mrw>
 c006358:	581c                	lw	a5,48(s0)
 c00635a:	60a6                	ld	ra,72(sp)
 c00635c:	7a02                	ld	s4,32(sp)
 c00635e:	0097c733          	xor	a4,a5,s1
 c006362:	02077713          	andi	a4,a4,32
 c006366:	8fb9                	xor	a5,a5,a4
 c006368:	0097c733          	xor	a4,a5,s1
 c00636c:	8b21                	andi	a4,a4,8
 c00636e:	8fb9                	xor	a5,a5,a4
 c006370:	8cbd                	xor	s1,s1,a5
 c006372:	8889                	andi	s1,s1,2
 c006374:	8fa5                	xor	a5,a5,s1
 c006376:	9bf9                	andi	a5,a5,-2
 c006378:	0127e7b3          	or	a5,a5,s2
 c00637c:	00f9a023          	sw	a5,0(s3)
 c006380:	d81c                	sw	a5,48(s0)
 c006382:	50040713          	addi	a4,s0,1280
 c006386:	4785                	li	a5,1
 c006388:	c33c                	sw	a5,64(a4)
 c00638a:	58040713          	addi	a4,s0,1408
 c00638e:	db3c                	sw	a5,112(a4)
 c006390:	68040413          	addi	s0,s0,1664
 c006394:	d01c                	sw	a5,32(s0)
 c006396:	6406                	ld	s0,64(sp)
 c006398:	74e2                	ld	s1,56(sp)
 c00639a:	7942                	ld	s2,48(sp)
 c00639c:	79a2                	ld	s3,40(sp)
 c00639e:	6ae2                	ld	s5,24(sp)
 c0063a0:	6b42                	ld	s6,16(sp)
 c0063a2:	6ba2                	ld	s7,8(sp)
 c0063a4:	6161                	addi	sp,sp,80
 c0063a6:	b5a9                	j	c0061f0 <cvx16_clk_gating_enable>
 c0063a8:	fa0005b7          	lui	a1,0xfa000
 c0063ac:	15fd                	addi	a1,a1,-1
 c0063ae:	00baf5b3          	and	a1,s5,a1
 c0063b2:	00b9a023          	sw	a1,0(s3)
 c0063b6:	4509                	li	a0,2
 c0063b8:	7d05b58b          	extu	a1,a1,31,16
 c0063bc:	8f7ff0ef          	jal	ra,c005cb2 <cvx16_synp_mrw>
 c0063c0:	0dcb2403          	lw	s0,220(s6)
 c0063c4:	01aad59b          	srliw	a1,s5,0x1a
 c0063c8:	0065959b          	slliw	a1,a1,0x6
 c0063cc:	0089a023          	sw	s0,0(s3)
 c0063d0:	dff47413          	andi	s0,s0,-513
 c0063d4:	8da1                	xor	a1,a1,s0
 c0063d6:	0405f593          	andi	a1,a1,64
 c0063da:	8c2d                	xor	s0,s0,a1
 c0063dc:	002b959b          	slliw	a1,s7,0x2
 c0063e0:	8da1                	xor	a1,a1,s0
 c0063e2:	8991                	andi	a1,a1,4
 c0063e4:	8c2d                	xor	s0,s0,a1
 c0063e6:	bdc5                	j	c0062d6 <cvx16_wrlvl_req+0x86>
 c0063e8:	0dcb2583          	lw	a1,220(s6)
 c0063ec:	67c1                	lui	a5,0x10
 c0063ee:	dfb78793          	addi	a5,a5,-517 # fdfb <__BSS_SIZE__+0xad8b>
 c0063f2:	00b9a023          	sw	a1,0(s3)
 c0063f6:	dfb5f413          	andi	s0,a1,-517
 c0063fa:	8dfd                	and	a1,a1,a5
 c0063fc:	0405e593          	ori	a1,a1,64
 c006400:	4505                	li	a0,1
 c006402:	04046413          	ori	s0,s0,64
 c006406:	8adff0ef          	jal	ra,c005cb2 <cvx16_synp_mrw>
 c00640a:	b5f1                	j	c0062d6 <cvx16_wrlvl_req+0x86>

000000000c00640c <cvx16_rdglvl_req>:
 c00640c:	7179                	addi	sp,sp,-48
 c00640e:	f022                	sd	s0,32(sp)
 c006410:	e052                	sd	s4,0(sp)
 c006412:	f406                	sd	ra,40(sp)
 c006414:	ec26                	sd	s1,24(sp)
 c006416:	e84a                	sd	s2,16(sp)
 c006418:	e44e                	sd	s3,8(sp)
 c00641a:	080047b7          	lui	a5,0x8004
 c00641e:	5407a023          	sw	zero,1344(a5) # 8004540 <p_rom_api_cryptodma_aes_decrypt+0x3bec440>
 c006422:	5e07a823          	sw	zero,1520(a5)
 c006426:	6a07a023          	sw	zero,1696(a5)
 c00642a:	08004a37          	lui	s4,0x8004
 c00642e:	00009417          	auipc	s0,0x9
 c006432:	e2a40413          	addi	s0,s0,-470 # c00f258 <rddata>
 c006436:	3fca2783          	lw	a5,1020(s4) # 80043fc <p_rom_api_cryptodma_aes_decrypt+0x3bec2fc>
 c00643a:	c01c                	sw	a5,0(s0)
 c00643c:	ffed                	bnez	a5,c006436 <cvx16_rdglvl_req+0x2a>
 c00643e:	030a2783          	lw	a5,48(s4)
 c006442:	84be                	mv	s1,a5
 c006444:	0017f913          	andi	s2,a5,1
 c006448:	fd47f793          	andi	a5,a5,-44
 c00644c:	c01c                	sw	a5,0(s0)
 c00644e:	02fa2823          	sw	a5,48(s4)
 c006452:	d5dff0ef          	jal	ra,c0061ae <cvx16_clk_gating_disable>
 c006456:	080007b7          	lui	a5,0x8000
 c00645a:	1847a983          	lw	s3,388(a5) # 8000184 <p_rom_api_cryptodma_aes_decrypt+0x3be8084>
 c00645e:	01342023          	sw	s3,0(s0)
 c006462:	1049b98b          	extu	s3,s3,4,4
 c006466:	02098563          	beqz	s3,c006490 <cvx16_rdglvl_req+0x84>
 c00646a:	060a2783          	lw	a5,96(s4)
 c00646e:	450d                	li	a0,3
 c006470:	0017e793          	ori	a5,a5,1
 c006474:	c01c                	sw	a5,0(s0)
 c006476:	06fa2023          	sw	a5,96(s4)
 c00647a:	0e0a2583          	lw	a1,224(s4)
 c00647e:	0045e793          	ori	a5,a1,4
 c006482:	3c05b58b          	extu	a1,a1,15,0
 c006486:	0045e593          	ori	a1,a1,4
 c00648a:	c01c                	sw	a5,0(s0)
 c00648c:	827ff0ef          	jal	ra,c005cb2 <cvx16_synp_mrw>
 c006490:	ce0ff0ef          	jal	ra,c005970 <cvx16_bist_rdglvl_init>
 c006494:	08000737          	lui	a4,0x8000
 c006498:	18472783          	lw	a5,388(a4) # 8000184 <p_rom_api_cryptodma_aes_decrypt+0x3be8084>
 c00649c:	0017e793          	ori	a5,a5,1
 c0064a0:	c01c                	sw	a5,0(s0)
 c0064a2:	18f72223          	sw	a5,388(a4)
 c0064a6:	08003737          	lui	a4,0x8003
 c0064aa:	44472783          	lw	a5,1092(a4) # 8003444 <p_rom_api_cryptodma_aes_decrypt+0x3beb344>
 c0064ae:	c01c                	sw	a5,0(s0)
 c0064b0:	8b89                	andi	a5,a5,2
 c0064b2:	dfe5                	beqz	a5,c0064aa <cvx16_rdglvl_req+0x9e>
 c0064b4:	080107b7          	lui	a5,0x8010
 c0064b8:	00040737          	lui	a4,0x40
 c0064bc:	c398                	sw	a4,0(a5)
 c0064be:	02098563          	beqz	s3,c0064e8 <cvx16_rdglvl_req+0xdc>
 c0064c2:	080049b7          	lui	s3,0x8004
 c0064c6:	0e09a783          	lw	a5,224(s3) # 80040e0 <p_rom_api_cryptodma_aes_decrypt+0x3bebfe0>
 c0064ca:	65c1                	lui	a1,0x10
 c0064cc:	15ed                	addi	a1,a1,-5
 c0064ce:	ffb7f713          	andi	a4,a5,-5
 c0064d2:	8dfd                	and	a1,a1,a5
 c0064d4:	450d                	li	a0,3
 c0064d6:	c018                	sw	a4,0(s0)
 c0064d8:	fdaff0ef          	jal	ra,c005cb2 <cvx16_synp_mrw>
 c0064dc:	0609a783          	lw	a5,96(s3)
 c0064e0:	9bf9                	andi	a5,a5,-2
 c0064e2:	c01c                	sw	a5,0(s0)
 c0064e4:	06f9a023          	sw	a5,96(s3)
 c0064e8:	08004737          	lui	a4,0x8004
 c0064ec:	5b1c                	lw	a5,48(a4)
 c0064ee:	70a2                	ld	ra,40(sp)
 c0064f0:	69a2                	ld	s3,8(sp)
 c0064f2:	0097c6b3          	xor	a3,a5,s1
 c0064f6:	0206f693          	andi	a3,a3,32
 c0064fa:	8fb5                	xor	a5,a5,a3
 c0064fc:	0097c6b3          	xor	a3,a5,s1
 c006500:	8aa1                	andi	a3,a3,8
 c006502:	8fb5                	xor	a5,a5,a3
 c006504:	8cbd                	xor	s1,s1,a5
 c006506:	8889                	andi	s1,s1,2
 c006508:	8fa5                	xor	a5,a5,s1
 c00650a:	9bf9                	andi	a5,a5,-2
 c00650c:	0127e7b3          	or	a5,a5,s2
 c006510:	c01c                	sw	a5,0(s0)
 c006512:	db1c                	sw	a5,48(a4)
 c006514:	50070693          	addi	a3,a4,1280 # 8004500 <p_rom_api_cryptodma_aes_decrypt+0x3bec400>
 c006518:	4785                	li	a5,1
 c00651a:	c2bc                	sw	a5,64(a3)
 c00651c:	7402                	ld	s0,32(sp)
 c00651e:	58070693          	addi	a3,a4,1408
 c006522:	64e2                	ld	s1,24(sp)
 c006524:	6942                	ld	s2,16(sp)
 c006526:	6a02                	ld	s4,0(sp)
 c006528:	dabc                	sw	a5,112(a3)
 c00652a:	68070713          	addi	a4,a4,1664
 c00652e:	d31c                	sw	a5,32(a4)
 c006530:	6145                	addi	sp,sp,48
 c006532:	cbfff06f          	j	c0061f0 <cvx16_clk_gating_enable>

000000000c006536 <cvx16_rdlvl_req>:
 c006536:	7139                	addi	sp,sp,-64
 c006538:	f822                	sd	s0,48(sp)
 c00653a:	e456                	sd	s5,8(sp)
 c00653c:	e05a                	sd	s6,0(sp)
 c00653e:	fc06                	sd	ra,56(sp)
 c006540:	f426                	sd	s1,40(sp)
 c006542:	f04a                	sd	s2,32(sp)
 c006544:	ec4e                	sd	s3,24(sp)
 c006546:	e852                	sd	s4,16(sp)
 c006548:	080047b7          	lui	a5,0x8004
 c00654c:	5407a023          	sw	zero,1344(a5) # 8004540 <p_rom_api_cryptodma_aes_decrypt+0x3bec440>
 c006550:	5e07a823          	sw	zero,1520(a5)
 c006554:	8aaa                	mv	s5,a0
 c006556:	6a07a023          	sw	zero,1696(a5)
 c00655a:	08004b37          	lui	s6,0x8004
 c00655e:	00009417          	auipc	s0,0x9
 c006562:	cfa40413          	addi	s0,s0,-774 # c00f258 <rddata>
 c006566:	3fcb2783          	lw	a5,1020(s6) # 80043fc <p_rom_api_cryptodma_aes_decrypt+0x3bec2fc>
 c00656a:	c01c                	sw	a5,0(s0)
 c00656c:	ffed                	bnez	a5,c006566 <cvx16_rdlvl_req+0x30>
 c00656e:	030b2783          	lw	a5,48(s6)
 c006572:	893e                	mv	s2,a5
 c006574:	0017f493          	andi	s1,a5,1
 c006578:	fd47f793          	andi	a5,a5,-44
 c00657c:	c01c                	sw	a5,0(s0)
 c00657e:	02fb2823          	sw	a5,48(s6)
 c006582:	c2dff0ef          	jal	ra,c0061ae <cvx16_clk_gating_disable>
 c006586:	4505                	li	a0,1
 c006588:	ae3ff0ef          	jal	ra,c00606a <cvx16_dfi_ca_park_prbs>
 c00658c:	080006b7          	lui	a3,0x8000
 c006590:	08068613          	addi	a2,a3,128 # 8000080 <p_rom_api_cryptodma_aes_decrypt+0x3be7f80>
 c006594:	4218                	lw	a4,0(a2)
 c006596:	002007b7          	lui	a5,0x200
 c00659a:	007f05b7          	lui	a1,0x7f0
 c00659e:	8fb9                	xor	a5,a5,a4
 c0065a0:	8fed                	and	a5,a5,a1
 c0065a2:	8f3d                	xor	a4,a4,a5
 c0065a4:	2701                	sext.w	a4,a4
 c0065a6:	1f0007b7          	lui	a5,0x1f000
 c0065aa:	8fb9                	xor	a5,a5,a4
 c0065ac:	7f0005b7          	lui	a1,0x7f000
 c0065b0:	8fed                	and	a5,a5,a1
 c0065b2:	8f3d                	xor	a4,a4,a5
 c0065b4:	2701                	sext.w	a4,a4
 c0065b6:	c018                	sw	a4,0(s0)
 c0065b8:	c218                	sw	a4,0(a2)
 c0065ba:	00c62a03          	lw	s4,12(a2)
 c0065be:	18068693          	addi	a3,a3,384
 c0065c2:	87d2                	mv	a5,s4
 c0065c4:	9bc5                	andi	a5,a5,-15
 c0065c6:	c01c                	sw	a5,0(s0)
 c0065c8:	c65c                	sw	a5,12(a2)
 c0065ca:	0086a983          	lw	s3,8(a3)
 c0065ce:	082a3a0b          	extu	s4,s4,2,2
 c0065d2:	01342023          	sw	s3,0(s0)
 c0065d6:	1049b98b          	extu	s3,s3,4,4
 c0065da:	02098563          	beqz	s3,c006604 <cvx16_rdlvl_req+0xce>
 c0065de:	060b2783          	lw	a5,96(s6)
 c0065e2:	450d                	li	a0,3
 c0065e4:	0017e793          	ori	a5,a5,1
 c0065e8:	c01c                	sw	a5,0(s0)
 c0065ea:	06fb2023          	sw	a5,96(s6)
 c0065ee:	0e0b2583          	lw	a1,224(s6)
 c0065f2:	0045e793          	ori	a5,a1,4
 c0065f6:	3c05b58b          	extu	a1,a1,15,0
 c0065fa:	0045e593          	ori	a1,a1,4
 c0065fe:	c01c                	sw	a5,0(s0)
 c006600:	eb2ff0ef          	jal	ra,c005cb2 <cvx16_synp_mrw>
 c006604:	8556                	mv	a0,s5
 c006606:	bb0ff0ef          	jal	ra,c0059b6 <cvx16_bist_rdlvl_init>
 c00660a:	08000737          	lui	a4,0x8000
 c00660e:	18872783          	lw	a5,392(a4) # 8000188 <p_rom_api_cryptodma_aes_decrypt+0x3be8088>
 c006612:	0017e793          	ori	a5,a5,1
 c006616:	c01c                	sw	a5,0(s0)
 c006618:	18f72423          	sw	a5,392(a4)
 c00661c:	08003737          	lui	a4,0x8003
 c006620:	44472783          	lw	a5,1092(a4) # 8003444 <p_rom_api_cryptodma_aes_decrypt+0x3beb344>
 c006624:	c01c                	sw	a5,0(s0)
 c006626:	8b91                	andi	a5,a5,4
 c006628:	dfe5                	beqz	a5,c006620 <cvx16_rdlvl_req+0xea>
 c00662a:	040a0163          	beqz	s4,c00666c <cvx16_rdlvl_req+0x136>
 c00662e:	08000737          	lui	a4,0x8000
 c006632:	08070693          	addi	a3,a4,128 # 8000080 <p_rom_api_cryptodma_aes_decrypt+0x3be7f80>
 c006636:	46dc                	lw	a5,12(a3)
 c006638:	18070713          	addi	a4,a4,384
 c00663c:	9bed                	andi	a5,a5,-5
 c00663e:	c01c                	sw	a5,0(s0)
 c006640:	c6dc                	sw	a5,12(a3)
 c006642:	471c                	lw	a5,8(a4)
 c006644:	0017e793          	ori	a5,a5,1
 c006648:	c01c                	sw	a5,0(s0)
 c00664a:	c71c                	sw	a5,8(a4)
 c00664c:	08003737          	lui	a4,0x8003
 c006650:	44472783          	lw	a5,1092(a4) # 8003444 <p_rom_api_cryptodma_aes_decrypt+0x3beb344>
 c006654:	c01c                	sw	a5,0(s0)
 c006656:	8b91                	andi	a5,a5,4
 c006658:	dfe5                	beqz	a5,c006650 <cvx16_rdlvl_req+0x11a>
 c00665a:	08000737          	lui	a4,0x8000
 c00665e:	08c72783          	lw	a5,140(a4) # 800008c <p_rom_api_cryptodma_aes_decrypt+0x3be7f8c>
 c006662:	0047e793          	ori	a5,a5,4
 c006666:	c01c                	sw	a5,0(s0)
 c006668:	08f72623          	sw	a5,140(a4)
 c00666c:	02098563          	beqz	s3,c006696 <cvx16_rdlvl_req+0x160>
 c006670:	080049b7          	lui	s3,0x8004
 c006674:	0e09a783          	lw	a5,224(s3) # 80040e0 <p_rom_api_cryptodma_aes_decrypt+0x3bebfe0>
 c006678:	65c1                	lui	a1,0x10
 c00667a:	15ed                	addi	a1,a1,-5
 c00667c:	ffb7f713          	andi	a4,a5,-5
 c006680:	8dfd                	and	a1,a1,a5
 c006682:	450d                	li	a0,3
 c006684:	c018                	sw	a4,0(s0)
 c006686:	e2cff0ef          	jal	ra,c005cb2 <cvx16_synp_mrw>
 c00668a:	0609a783          	lw	a5,96(s3)
 c00668e:	9bf9                	andi	a5,a5,-2
 c006690:	c01c                	sw	a5,0(s0)
 c006692:	06f9a023          	sw	a5,96(s3)
 c006696:	d7eff0ef          	jal	ra,c005c14 <cvx16_rdvld_train>
 c00669a:	080107b7          	lui	a5,0x8010
 c00669e:	00040737          	lui	a4,0x40
 c0066a2:	c398                	sw	a4,0(a5)
 c0066a4:	4501                	li	a0,0
 c0066a6:	9c5ff0ef          	jal	ra,c00606a <cvx16_dfi_ca_park_prbs>
 c0066aa:	08004737          	lui	a4,0x8004
 c0066ae:	5b1c                	lw	a5,48(a4)
 c0066b0:	70e2                	ld	ra,56(sp)
 c0066b2:	69e2                	ld	s3,24(sp)
 c0066b4:	0127c6b3          	xor	a3,a5,s2
 c0066b8:	0206f693          	andi	a3,a3,32
 c0066bc:	8fb5                	xor	a5,a5,a3
 c0066be:	0127c6b3          	xor	a3,a5,s2
 c0066c2:	8aa1                	andi	a3,a3,8
 c0066c4:	8fb5                	xor	a5,a5,a3
 c0066c6:	0127c933          	xor	s2,a5,s2
 c0066ca:	00297913          	andi	s2,s2,2
 c0066ce:	0127c7b3          	xor	a5,a5,s2
 c0066d2:	9bf9                	andi	a5,a5,-2
 c0066d4:	8fc5                	or	a5,a5,s1
 c0066d6:	c01c                	sw	a5,0(s0)
 c0066d8:	db1c                	sw	a5,48(a4)
 c0066da:	50070693          	addi	a3,a4,1280 # 8004500 <p_rom_api_cryptodma_aes_decrypt+0x3bec400>
 c0066de:	4785                	li	a5,1
 c0066e0:	c2bc                	sw	a5,64(a3)
 c0066e2:	7442                	ld	s0,48(sp)
 c0066e4:	58070693          	addi	a3,a4,1408
 c0066e8:	74a2                	ld	s1,40(sp)
 c0066ea:	7902                	ld	s2,32(sp)
 c0066ec:	6a42                	ld	s4,16(sp)
 c0066ee:	6aa2                	ld	s5,8(sp)
 c0066f0:	6b02                	ld	s6,0(sp)
 c0066f2:	dabc                	sw	a5,112(a3)
 c0066f4:	68070713          	addi	a4,a4,1664
 c0066f8:	d31c                	sw	a5,32(a4)
 c0066fa:	6121                	addi	sp,sp,64
 c0066fc:	af5ff06f          	j	c0061f0 <cvx16_clk_gating_enable>

000000000c006700 <cvx16_wdqlvl_req>:
 c006700:	7179                	addi	sp,sp,-48
 c006702:	e84a                	sd	s2,16(sp)
 c006704:	e44e                	sd	s3,8(sp)
 c006706:	e052                	sd	s4,0(sp)
 c006708:	f406                	sd	ra,40(sp)
 c00670a:	f022                	sd	s0,32(sp)
 c00670c:	ec26                	sd	s1,24(sp)
 c00670e:	080047b7          	lui	a5,0x8004
 c006712:	5407a023          	sw	zero,1344(a5) # 8004540 <p_rom_api_cryptodma_aes_decrypt+0x3bec440>
 c006716:	5e07a823          	sw	zero,1520(a5)
 c00671a:	89aa                	mv	s3,a0
 c00671c:	8a2e                	mv	s4,a1
 c00671e:	6a07a023          	sw	zero,1696(a5)
 c006722:	08004737          	lui	a4,0x8004
 c006726:	00009917          	auipc	s2,0x9
 c00672a:	b3290913          	addi	s2,s2,-1230 # c00f258 <rddata>
 c00672e:	3fc72783          	lw	a5,1020(a4) # 80043fc <p_rom_api_cryptodma_aes_decrypt+0x3bec2fc>
 c006732:	00f92023          	sw	a5,0(s2)
 c006736:	ffe5                	bnez	a5,c00672e <cvx16_wdqlvl_req+0x2e>
 c006738:	5b1c                	lw	a5,48(a4)
 c00673a:	84be                	mv	s1,a5
 c00673c:	0017f413          	andi	s0,a5,1
 c006740:	fd47f793          	andi	a5,a5,-44
 c006744:	00f92023          	sw	a5,0(s2)
 c006748:	db1c                	sw	a5,48(a4)
 c00674a:	a65ff0ef          	jal	ra,c0061ae <cvx16_clk_gating_disable>
 c00674e:	4505                	li	a0,1
 c006750:	91bff0ef          	jal	ra,c00606a <cvx16_dfi_ca_park_prbs>
 c006754:	080007b7          	lui	a5,0x8000
 c006758:	0bc7a703          	lw	a4,188(a5) # 80000bc <p_rom_api_cryptodma_aes_decrypt+0x3be7fbc>
 c00675c:	000a1863          	bnez	s4,c00676c <cvx16_wdqlvl_req+0x6c>
 c006760:	77fd                	lui	a5,0xfffff
 c006762:	17fd                	addi	a5,a5,-1
 c006764:	8f7d                	and	a4,a4,a5
 c006766:	6789                	lui	a5,0x2
 c006768:	8f5d                	or	a4,a4,a5
 c00676a:	a821                	j	c006782 <cvx16_wdqlvl_req+0x82>
 c00676c:	4785                	li	a5,1
 c00676e:	00fa1763          	bne	s4,a5,c00677c <cvx16_wdqlvl_req+0x7c>
 c006772:	77f9                	lui	a5,0xffffe
 c006774:	17fd                	addi	a5,a5,-1
 c006776:	8f7d                	and	a4,a4,a5
 c006778:	6785                	lui	a5,0x1
 c00677a:	b7fd                	j	c006768 <cvx16_wdqlvl_req+0x68>
 c00677c:	4789                	li	a5,2
 c00677e:	0efa0463          	beq	s4,a5,c006866 <cvx16_wdqlvl_req+0x166>
 c006782:	00e92023          	sw	a4,0(s2)
 c006786:	00092703          	lw	a4,0(s2)
 c00678a:	080007b7          	lui	a5,0x8000
 c00678e:	0ae7ae23          	sw	a4,188(a5) # 80000bc <p_rom_api_cryptodma_aes_decrypt+0x3be7fbc>
 c006792:	0c0a1c63          	bnez	s4,c00686a <cvx16_wdqlvl_req+0x16a>
 c006796:	08004737          	lui	a4,0x8004
 c00679a:	475c                	lw	a5,12(a4)
 c00679c:	0807e793          	ori	a5,a5,128
 c0067a0:	00f92023          	sw	a5,0(s2)
 c0067a4:	c75c                	sw	a5,12(a4)
 c0067a6:	ba6ff0ef          	jal	ra,c005b4c <cvx16_bist_wdmlvl_init>
 c0067aa:	080007b7          	lui	a5,0x8000
 c0067ae:	18c7a783          	lw	a5,396(a5) # 800018c <p_rom_api_cryptodma_aes_decrypt+0x3be808c>
 c0067b2:	4017e693          	ori	a3,a5,1025
 c0067b6:	000a1663          	bnez	s4,c0067c2 <cvx16_wdqlvl_req+0xc2>
 c0067ba:	bff7f793          	andi	a5,a5,-1025
 c0067be:	0017e693          	ori	a3,a5,1
 c0067c2:	4785                	li	a5,1
 c0067c4:	00f98763          	beq	s3,a5,c0067d2 <cvx16_wdqlvl_req+0xd2>
 c0067c8:	39bd                	addiw	s3,s3,-17
 c0067ca:	fef6f713          	andi	a4,a3,-17
 c0067ce:	0137e463          	bltu	a5,s3,c0067d6 <cvx16_wdqlvl_req+0xd6>
 c0067d2:	0106e713          	ori	a4,a3,16
 c0067d6:	00e92023          	sw	a4,0(s2)
 c0067da:	080007b7          	lui	a5,0x8000
 c0067de:	18e7a623          	sw	a4,396(a5) # 800018c <p_rom_api_cryptodma_aes_decrypt+0x3be808c>
 c0067e2:	08003737          	lui	a4,0x8003
 c0067e6:	44472783          	lw	a5,1092(a4) # 8003444 <p_rom_api_cryptodma_aes_decrypt+0x3beb344>
 c0067ea:	00f92023          	sw	a5,0(s2)
 c0067ee:	8ba1                	andi	a5,a5,8
 c0067f0:	dbfd                	beqz	a5,c0067e6 <cvx16_wdqlvl_req+0xe6>
 c0067f2:	080049b7          	lui	s3,0x8004
 c0067f6:	00c9a783          	lw	a5,12(s3) # 800400c <p_rom_api_cryptodma_aes_decrypt+0x3bebf0c>
 c0067fa:	00040737          	lui	a4,0x40
 c0067fe:	4501                	li	a0,0
 c006800:	f7f7f793          	andi	a5,a5,-129
 c006804:	00f92023          	sw	a5,0(s2)
 c006808:	00f9a623          	sw	a5,12(s3)
 c00680c:	080107b7          	lui	a5,0x8010
 c006810:	c398                	sw	a4,0(a5)
 c006812:	859ff0ef          	jal	ra,c00606a <cvx16_dfi_ca_park_prbs>
 c006816:	0309a783          	lw	a5,48(s3)
 c00681a:	70a2                	ld	ra,40(sp)
 c00681c:	6a02                	ld	s4,0(sp)
 c00681e:	0097c733          	xor	a4,a5,s1
 c006822:	02077713          	andi	a4,a4,32
 c006826:	8fb9                	xor	a5,a5,a4
 c006828:	0097c733          	xor	a4,a5,s1
 c00682c:	8b21                	andi	a4,a4,8
 c00682e:	8fb9                	xor	a5,a5,a4
 c006830:	8cbd                	xor	s1,s1,a5
 c006832:	8889                	andi	s1,s1,2
 c006834:	8fa5                	xor	a5,a5,s1
 c006836:	9bf9                	andi	a5,a5,-2
 c006838:	8fc1                	or	a5,a5,s0
 c00683a:	00f92023          	sw	a5,0(s2)
 c00683e:	02f9a823          	sw	a5,48(s3)
 c006842:	50098713          	addi	a4,s3,1280
 c006846:	4785                	li	a5,1
 c006848:	c33c                	sw	a5,64(a4)
 c00684a:	58098713          	addi	a4,s3,1408
 c00684e:	7402                	ld	s0,32(sp)
 c006850:	db3c                	sw	a5,112(a4)
 c006852:	68098993          	addi	s3,s3,1664
 c006856:	64e2                	ld	s1,24(sp)
 c006858:	6942                	ld	s2,16(sp)
 c00685a:	02f9a023          	sw	a5,32(s3)
 c00685e:	69a2                	ld	s3,8(sp)
 c006860:	6145                	addi	sp,sp,48
 c006862:	98fff06f          	j	c0061f0 <cvx16_clk_gating_enable>
 c006866:	678d                	lui	a5,0x3
 c006868:	b701                	j	c006768 <cvx16_wdqlvl_req+0x68>
 c00686a:	854e                	mv	a0,s3
 c00686c:	a30ff0ef          	jal	ra,c005a9c <cvx16_bist_wdqlvl_init>
 c006870:	bf2d                	j	c0067aa <cvx16_wdqlvl_req+0xaa>

000000000c006872 <cvx16_en_rec_vol_mode>:
 c006872:	8082                	ret

000000000c006874 <ctrl_init_detect_dram_size>:
 c006874:	1101                	addi	sp,sp,-32
 c006876:	000e0737          	lui	a4,0xe0
 c00687a:	e802                	sd	zero,16(sp)
 c00687c:	ec02                	sd	zero,24(sp)
 c00687e:	c602                	sw	zero,12(sp)
 c006880:	080107b7          	lui	a5,0x8010
 c006884:	0719                	addi	a4,a4,6
 c006886:	c398                	sw	a4,0(a5)
 c006888:	0007a823          	sw	zero,16(a5) # 8010010 <p_rom_api_cryptodma_aes_decrypt+0x3bf7f10>
 c00688c:	577d                	li	a4,-1
 c00688e:	cbd8                	sw	a4,20(a5)
 c006890:	4711                	li	a4,4
 c006892:	cf98                	sw	a4,24(a5)
 c006894:	40004737          	lui	a4,0x40004
 c006898:	a0070713          	addi	a4,a4,-1536 # 40003a00 <__BL2_END__+0x33ff4790>
 c00689c:	c3b8                	sw	a4,64(a5)
 c00689e:	4732                	lw	a4,12(sp)
 c0068a0:	00009617          	auipc	a2,0x9
 c0068a4:	9b860613          	addi	a2,a2,-1608 # c00f258 <rddata>
 c0068a8:	c3f8                	sw	a4,68(a5)
 c0068aa:	4742                	lw	a4,16(sp)
 c0068ac:	c7b8                	sw	a4,72(a5)
 c0068ae:	4752                	lw	a4,20(sp)
 c0068b0:	c7f8                	sw	a4,76(a5)
 c0068b2:	4762                	lw	a4,24(sp)
 c0068b4:	cbb8                	sw	a4,80(a5)
 c0068b6:	4772                	lw	a4,28(sp)
 c0068b8:	cbf8                	sw	a4,84(a5)
 c0068ba:	6741                	lui	a4,0x10
 c0068bc:	0705                	addi	a4,a4,1
 c0068be:	c398                	sw	a4,0(a5)
 c0068c0:	08010737          	lui	a4,0x8010
 c0068c4:	08072783          	lw	a5,128(a4) # 8010080 <p_rom_api_cryptodma_aes_decrypt+0x3bf7f80>
 c0068c8:	c21c                	sw	a5,0(a2)
 c0068ca:	8b91                	andi	a5,a5,4
 c0068cc:	dfe5                	beqz	a5,c0068c4 <ctrl_init_detect_dram_size+0x50>
 c0068ce:	68c1                	lui	a7,0x10
 c0068d0:	67c1                	lui	a5,0x10
 c0068d2:	40004837          	lui	a6,0x40004
 c0068d6:	00188e13          	addi	t3,a7,1 # 10001 <__BSS_SIZE__+0xaf91>
 c0068da:	80004337          	lui	t1,0x80004
 c0068de:	c31c                	sw	a5,0(a4)
 c0068e0:	45d5                	li	a1,21
 c0068e2:	4f05                	li	t5,1
 c0068e4:	080107b7          	lui	a5,0x8010
 c0068e8:	b0080813          	addi	a6,a6,-1280 # 40003b00 <__BL2_END__+0x33ff4890>
 c0068ec:	8ff2                	mv	t6,t3
 c0068ee:	a0030313          	addi	t1,t1,-1536 # ffffffff80003a00 <__BL2_END__+0xffffffff73ff4790>
 c0068f2:	02000e93          	li	t4,32
 c0068f6:	00bf16bb          	sllw	a3,t5,a1
 c0068fa:	cb94                	sw	a3,16(a5)
 c0068fc:	0507a023          	sw	a6,64(a5) # 8010040 <p_rom_api_cryptodma_aes_decrypt+0x3bf7f40>
 c006900:	46b2                	lw	a3,12(sp)
 c006902:	ff05871b          	addiw	a4,a1,-16
 c006906:	0ff77713          	andi	a4,a4,255
 c00690a:	c3f4                	sw	a3,68(a5)
 c00690c:	46c2                	lw	a3,16(sp)
 c00690e:	c7b4                	sw	a3,72(a5)
 c006910:	46d2                	lw	a3,20(sp)
 c006912:	c7f4                	sw	a3,76(a5)
 c006914:	46e2                	lw	a3,24(sp)
 c006916:	cbb4                	sw	a3,80(a5)
 c006918:	46f2                	lw	a3,28(sp)
 c00691a:	cbf4                	sw	a3,84(a5)
 c00691c:	01f7a023          	sw	t6,0(a5)
 c006920:	0807a683          	lw	a3,128(a5)
 c006924:	c214                	sw	a3,0(a2)
 c006926:	8a91                	andi	a3,a3,4
 c006928:	dee5                	beqz	a3,c006920 <ctrl_init_detect_dram_size+0xac>
 c00692a:	0117a023          	sw	a7,0(a5)
 c00692e:	0007a823          	sw	zero,16(a5)
 c006932:	0467a023          	sw	t1,64(a5)
 c006936:	46b2                	lw	a3,12(sp)
 c006938:	c3f4                	sw	a3,68(a5)
 c00693a:	46c2                	lw	a3,16(sp)
 c00693c:	c7b4                	sw	a3,72(a5)
 c00693e:	46d2                	lw	a3,20(sp)
 c006940:	c7f4                	sw	a3,76(a5)
 c006942:	46e2                	lw	a3,24(sp)
 c006944:	cbb4                	sw	a3,80(a5)
 c006946:	46f2                	lw	a3,28(sp)
 c006948:	cbf4                	sw	a3,84(a5)
 c00694a:	01c7a023          	sw	t3,0(a5)
 c00694e:	0807a683          	lw	a3,128(a5)
 c006952:	c214                	sw	a3,0(a2)
 c006954:	8a91                	andi	a3,a3,4
 c006956:	dee5                	beqz	a3,c00694e <ctrl_init_detect_dram_size+0xda>
 c006958:	0117a023          	sw	a7,0(a5)
 c00695c:	4214                	lw	a3,0(a2)
 c00695e:	8aa1                	andi	a3,a3,8
 c006960:	e689                	bnez	a3,c00696a <ctrl_init_detect_dram_size+0xf6>
 c006962:	2585                	addiw	a1,a1,1
 c006964:	f9d599e3          	bne	a1,t4,c0068f6 <ctrl_init_detect_dram_size+0x82>
 c006968:	473d                	li	a4,15
 c00696a:	00e50023          	sb	a4,0(a0) # 1f000000 <__BL2_END__+0x12ff0d90>
 c00696e:	2701                	sext.w	a4,a4
 c006970:	c218                	sw	a4,0(a2)
 c006972:	080007b7          	lui	a5,0x8000
 c006976:	20e7a423          	sw	a4,520(a5) # 8000208 <p_rom_api_cryptodma_aes_decrypt+0x3be8108>
 c00697a:	080107b7          	lui	a5,0x8010
 c00697e:	00040737          	lui	a4,0x40
 c006982:	c398                	sw	a4,0(a5)
 c006984:	6105                	addi	sp,sp,32
 c006986:	8082                	ret

000000000c006988 <pll_init>:
 c006988:	7179                	addi	sp,sp,-48
 c00698a:	e44e                	sd	s3,8(sp)
 c00698c:	00001997          	auipc	s3,0x1
 c006990:	63498993          	addi	s3,s3,1588 # c007fc0 <ddr_data_rate>
 c006994:	e84a                	sd	s2,16(sp)
 c006996:	0009a583          	lw	a1,0(s3)
 c00699a:	00009917          	auipc	s2,0x9
 c00699e:	8c690913          	addi	s2,s2,-1850 # c00f260 <freq_in>
 c0069a2:	2f000793          	li	a5,752
 c0069a6:	ec26                	sd	s1,24(sp)
 c0069a8:	00f92023          	sw	a5,0(s2)
 c0069ac:	00009497          	auipc	s1,0x9
 c0069b0:	8b848493          	addi	s1,s1,-1864 # c00f264 <mod_freq>
 c0069b4:	06400793          	li	a5,100
 c0069b8:	f022                	sd	s0,32(sp)
 c0069ba:	c09c                	sw	a5,0(s1)
 c0069bc:	00009417          	auipc	s0,0x9
 c0069c0:	8a040413          	addi	s0,s0,-1888 # c00f25c <dev_freq>
 c0069c4:	47bd                	li	a5,15
 c0069c6:	00001517          	auipc	a0,0x1
 c0069ca:	59a50513          	addi	a0,a0,1434 # c007f60 <inc32table+0x2d8>
 c0069ce:	f406                	sd	ra,40(sp)
 c0069d0:	c01c                	sw	a5,0(s0)
 c0069d2:	961f90ef          	jal	ra,c000332 <tf_printf>
 c0069d6:	0009a783          	lw	a5,0(s3)
 c0069da:	00096703          	lwu	a4,0(s2)
 c0069de:	70a2                	ld	ra,40(sp)
 c0069e0:	0047d69b          	srliw	a3,a5,0x4
 c0069e4:	00009797          	auipc	a5,0x9
 c0069e8:	88d7a223          	sw	a3,-1916(a5) # c00f268 <tar_freq>
 c0069ec:	7c06b78b          	extu	a5,a3,31,0
 c0069f0:	076a                	slli	a4,a4,0x1a
 c0069f2:	02f75733          	divu	a4,a4,a5
 c0069f6:	6942                	ld	s2,16(sp)
 c0069f8:	69a2                	ld	s3,8(sp)
 c0069fa:	00009797          	auipc	a5,0x9
 c0069fe:	84e7b323          	sd	a4,-1978(a5) # c00f240 <reg_set>
 c006a02:	0fa00793          	li	a5,250
 c006a06:	02d787bb          	mulw	a5,a5,a3
 c006a0a:	4094                	lw	a3,0(s1)
 c006a0c:	64e2                	ld	s1,24(sp)
 c006a0e:	02d7d7bb          	divuw	a5,a5,a3
 c006a12:	7c07b78b          	extu	a5,a5,31,0
 c006a16:	00009697          	auipc	a3,0x9
 c006a1a:	82f6b923          	sd	a5,-1998(a3) # c00f248 <reg_span>
 c006a1e:	00046683          	lwu	a3,0(s0)
 c006a22:	7402                	ld	s0,32(sp)
 c006a24:	02e68733          	mul	a4,a3,a4
 c006a28:	3e800693          	li	a3,1000
 c006a2c:	02d787b3          	mul	a5,a5,a3
 c006a30:	02f757b3          	divu	a5,a4,a5
 c006a34:	00009717          	auipc	a4,0x9
 c006a38:	80f73e23          	sd	a5,-2020(a4) # c00f250 <reg_step>
 c006a3c:	6145                	addi	sp,sp,48
 c006a3e:	ed6ff06f          	j	c006114 <cvx16_pll_init>

000000000c006a42 <cvx16_pinmux>:
 c006a42:	1141                	addi	sp,sp,-16
 c006a44:	e406                	sd	ra,8(sp)
 c006a46:	b85fe0ef          	jal	ra,c0055ca <get_ddr_vendor>
 c006a4a:	357d                	addiw	a0,a0,-1
 c006a4c:	0ff57513          	andi	a0,a0,255
 c006a50:	47a5                	li	a5,9
 c006a52:	12a7ef63          	bltu	a5,a0,c006b90 <cvx16_pinmux+0x14e>
 c006a56:	00001717          	auipc	a4,0x1
 c006a5a:	51e70713          	addi	a4,a4,1310 # c007f74 <inc32table+0x2ec>
 c006a5e:	44a7478b          	lrw	a5,a4,a0,2
 c006a62:	97ba                	add	a5,a5,a4
 c006a64:	8782                	jr	a5
 c006a66:	12141737          	lui	a4,0x12141
 c006a6a:	080007b7          	lui	a5,0x8000
 c006a6e:	074d                	addi	a4,a4,19
 c006a70:	c398                	sw	a4,0(a5)
 c006a72:	0c041737          	lui	a4,0xc041
 c006a76:	50370713          	addi	a4,a4,1283 # c041503 <__BL2_END__+0x32293>
 c006a7a:	c3d8                	sw	a4,4(a5)
 c006a7c:	06050737          	lui	a4,0x6050
 c006a80:	0705                	addi	a4,a4,1
 c006a82:	c798                	sw	a4,8(a5)
 c006a84:	08071737          	lui	a4,0x8071
 c006a88:	b0270713          	addi	a4,a4,-1278 # 8070b02 <p_rom_api_cryptodma_aes_decrypt+0x3c58a02>
 c006a8c:	c7d8                	sw	a4,12(a5)
 c006a8e:	0a0f1737          	lui	a4,0xa0f1
 c006a92:	e0970713          	addi	a4,a4,-503 # a0f0e09 <p_rom_api_cryptodma_aes_decrypt+0x5cd8d09>
 c006a96:	cb98                	sw	a4,16(a5)
 c006a98:	00161737          	lui	a4,0x161
 c006a9c:	10d70713          	addi	a4,a4,269 # 16110d <__BSS_SIZE__+0x15c09d>
 c006aa0:	cbd8                	sw	a4,20(a5)
 c006aa2:	0007ac23          	sw	zero,24(a5) # 8000018 <p_rom_api_cryptodma_aes_decrypt+0x3be7f18>
 c006aa6:	10000713          	li	a4,256
 c006aaa:	cfd8                	sw	a4,28(a5)
 c006aac:	02136737          	lui	a4,0x2136
 c006ab0:	57470713          	addi	a4,a4,1396 # 2136574 <__BSS_SIZE__+0x2131504>
 c006ab4:	d398                	sw	a4,32(a5)
 c006ab6:	4721                	li	a4,8
 c006ab8:	d3d8                	sw	a4,36(a5)
 c006aba:	76512737          	lui	a4,0x76512
 c006abe:	30870713          	addi	a4,a4,776 # 76512308 <__BL2_END__+0x6a503098>
 c006ac2:	d798                	sw	a4,40(a5)
 c006ac4:	4711                	li	a4,4
 c006ac6:	d7d8                	sw	a4,44(a5)
 c006ac8:	a0e1                	j	c006b90 <cvx16_pinmux+0x14e>
 c006aca:	08071737          	lui	a4,0x8071
 c006ace:	080007b7          	lui	a5,0x8000
 c006ad2:	d0970713          	addi	a4,a4,-759 # 8070d09 <p_rom_api_cryptodma_aes_decrypt+0x3c58c09>
 c006ad6:	c398                	sw	a4,0(a5)
 c006ad8:	06050737          	lui	a4,0x6050
 c006adc:	20b70713          	addi	a4,a4,523 # 605020b <p_rom_api_cryptodma_aes_decrypt+0x1c3810b>
 c006ae0:	c3d8                	sw	a4,4(a5)
 c006ae2:	14040737          	lui	a4,0x14040
 c006ae6:	10070713          	addi	a4,a4,256 # 14040100 <__BL2_END__+0x8030e90>
 c006aea:	c798                	sw	a4,8(a5)
 c006aec:	15031737          	lui	a4,0x15031
 c006af0:	e0c70713          	addi	a4,a4,-500 # 15030e0c <__BL2_END__+0x9021b9c>
 c006af4:	c7d8                	sw	a4,12(a5)
 c006af6:	0a0f1737          	lui	a4,0xa0f1
 c006afa:	21370713          	addi	a4,a4,531 # a0f1213 <p_rom_api_cryptodma_aes_decrypt+0x5cd9113>
 c006afe:	cb98                	sw	a4,16(a5)
 c006b00:	00111737          	lui	a4,0x111
 c006b04:	0759                	addi	a4,a4,22
 c006b06:	cbd8                	sw	a4,20(a5)
 c006b08:	0007ac23          	sw	zero,24(a5) # 8000018 <p_rom_api_cryptodma_aes_decrypt+0x3be7f18>
 c006b0c:	10000713          	li	a4,256
 c006b10:	cfd8                	sw	a4,28(a5)
 c006b12:	82135737          	lui	a4,0x82135
 c006b16:	76470713          	addi	a4,a4,1892 # ffffffff82135764 <__BL2_END__+0xffffffff761264f4>
 c006b1a:	d398                	sw	a4,32(a5)
 c006b1c:	67513737          	lui	a4,0x67513
 c006b20:	0207a223          	sw	zero,36(a5)
 c006b24:	02870713          	addi	a4,a4,40 # 67513028 <__BL2_END__+0x5b503db8>
 c006b28:	bf69                	j	c006ac2 <cvx16_pinmux+0x80>
 c006b2a:	08071737          	lui	a4,0x8071
 c006b2e:	080007b7          	lui	a5,0x8000
 c006b32:	b0970713          	addi	a4,a4,-1271 # 8070b09 <p_rom_api_cryptodma_aes_decrypt+0x3c58a09>
 c006b36:	c398                	sw	a4,0(a5)
 c006b38:	05000737          	lui	a4,0x5000
 c006b3c:	20670713          	addi	a4,a4,518 # 5000206 <p_rom_api_cryptodma_aes_decrypt+0xbe8106>
 c006b40:	c3d8                	sw	a4,4(a5)
 c006b42:	0c040737          	lui	a4,0xc040
 c006b46:	10d70713          	addi	a4,a4,269 # c04010d <__BL2_END__+0x30e9d>
 c006b4a:	c798                	sw	a4,8(a5)
 c006b4c:	15031737          	lui	a4,0x15031
 c006b50:	a1470713          	addi	a4,a4,-1516 # 15030a14 <__BL2_END__+0x90217a4>
 c006b54:	c7d8                	sw	a4,12(a5)
 c006b56:	10111737          	lui	a4,0x10111
 c006b5a:	21370713          	addi	a4,a4,531 # 10111213 <__BL2_END__+0x4101fa3>
 c006b5e:	cb98                	sw	a4,16(a5)
 c006b60:	000f1737          	lui	a4,0xf1
 c006b64:	60e70713          	addi	a4,a4,1550 # f160e <__BSS_SIZE__+0xec59e>
 c006b68:	cbd8                	sw	a4,20(a5)
 c006b6a:	0007ac23          	sw	zero,24(a5) # 8000018 <p_rom_api_cryptodma_aes_decrypt+0x3be7f18>
 c006b6e:	10000713          	li	a4,256
 c006b72:	cfd8                	sw	a4,28(a5)
 c006b74:	31756737          	lui	a4,0x31756
 c006b78:	02470713          	addi	a4,a4,36 # 31756024 <__BL2_END__+0x25746db4>
 c006b7c:	d398                	sw	a4,32(a5)
 c006b7e:	4721                	li	a4,8
 c006b80:	d3d8                	sw	a4,36(a5)
 c006b82:	26473737          	lui	a4,0x26473
 c006b86:	51870713          	addi	a4,a4,1304 # 26473518 <__BL2_END__+0x1a4642a8>
 c006b8a:	d798                	sw	a4,40(a5)
 c006b8c:	0207a623          	sw	zero,44(a5)
 c006b90:	60a2                	ld	ra,8(sp)
 c006b92:	0141                	addi	sp,sp,16
 c006b94:	8082                	ret
 c006b96:	0c061737          	lui	a4,0xc061
 c006b9a:	080007b7          	lui	a5,0x8000
 c006b9e:	80b70713          	addi	a4,a4,-2037 # c06080b <__BL2_END__+0x5159b>
 c006ba2:	c398                	sw	a4,0(a5)
 c006ba4:	070d1737          	lui	a4,0x70d1
 c006ba8:	90470713          	addi	a4,a4,-1788 # 70d0904 <p_rom_api_cryptodma_aes_decrypt+0x2cb8804>
 c006bac:	c3d8                	sw	a4,4(a5)
 c006bae:	6741                	lui	a4,0x10
 c006bb0:	50270713          	addi	a4,a4,1282 # 10502 <__BSS_SIZE__+0xb492>
 c006bb4:	c798                	sw	a4,8(a5)
 c006bb6:	110a1737          	lui	a4,0x110a1
 c006bba:	e0370713          	addi	a4,a4,-509 # 110a0e03 <__BL2_END__+0x5091b93>
 c006bbe:	c7d8                	sw	a4,12(a5)
 c006bc0:	0f141737          	lui	a4,0xf141
 c006bc4:	61070713          	addi	a4,a4,1552 # f141610 <__BL2_END__+0x31323a0>
 c006bc8:	cb98                	sw	a4,16(a5)
 c006bca:	00151737          	lui	a4,0x151
 c006bce:	31270713          	addi	a4,a4,786 # 151312 <__BSS_SIZE__+0x14c2a2>
 c006bd2:	cbd8                	sw	a4,20(a5)
 c006bd4:	0007ac23          	sw	zero,24(a5) # 8000018 <p_rom_api_cryptodma_aes_decrypt+0x3be7f18>
 c006bd8:	10000713          	li	a4,256
 c006bdc:	cfd8                	sw	a4,28(a5)
 c006bde:	71840737          	lui	a4,0x71840
 c006be2:	53270713          	addi	a4,a4,1330 # 71840532 <__BL2_END__+0x658312c2>
 c006be6:	d398                	sw	a4,32(a5)
 c006be8:	4719                	li	a4,6
 c006bea:	d3d8                	sw	a4,36(a5)
 c006bec:	76103737          	lui	a4,0x76103
 c006bf0:	42570713          	addi	a4,a4,1061 # 76103425 <__BL2_END__+0x6a0f41b5>
 c006bf4:	d798                	sw	a4,40(a5)
 c006bf6:	4721                	li	a4,8
 c006bf8:	b5f9                	j	c006ac6 <cvx16_pinmux+0x84>
 c006bfa:	080b1737          	lui	a4,0x80b1
 c006bfe:	080007b7          	lui	a5,0x8000
 c006c02:	d0670713          	addi	a4,a4,-762 # 80b0d06 <p_rom_api_cryptodma_aes_decrypt+0x3c98c06>
 c006c06:	c398                	sw	a4,0(a5)
 c006c08:	09010737          	lui	a4,0x9010
 c006c0c:	40770713          	addi	a4,a4,1031 # 9010407 <p_rom_api_cryptodma_aes_decrypt+0x4bf8307>
 c006c10:	c3d8                	sw	a4,4(a5)
 c006c12:	14050737          	lui	a4,0x14050
 c006c16:	20c70713          	addi	a4,a4,524 # 1405020c <__BL2_END__+0x8040f9c>
 c006c1a:	c798                	sw	a4,8(a5)
 c006c1c:	15001737          	lui	a4,0x15001
 c006c20:	e0370713          	addi	a4,a4,-509 # 15000e03 <__BL2_END__+0x8ff1b93>
 c006c24:	c7d8                	sw	a4,12(a5)
 c006c26:	0a0f1737          	lui	a4,0xa0f1
 c006c2a:	21370713          	addi	a4,a4,531 # a0f1213 <p_rom_api_cryptodma_aes_decrypt+0x5cd9113>
 c006c2e:	cb98                	sw	a4,16(a5)
 c006c30:	00111737          	lui	a4,0x111
 c006c34:	0759                	addi	a4,a4,22
 c006c36:	cbd8                	sw	a4,20(a5)
 c006c38:	0007ac23          	sw	zero,24(a5) # 8000018 <p_rom_api_cryptodma_aes_decrypt+0x3be7f18>
 c006c3c:	10000713          	li	a4,256
 c006c40:	cfd8                	sw	a4,28(a5)
 c006c42:	82135737          	lui	a4,0x82135
 c006c46:	76470713          	addi	a4,a4,1892 # ffffffff82135764 <__BL2_END__+0xffffffff761264f4>
 c006c4a:	d398                	sw	a4,32(a5)
 c006c4c:	67513737          	lui	a4,0x67513
 c006c50:	0207a223          	sw	zero,36(a5)
 c006c54:	20870713          	addi	a4,a4,520 # 67513208 <__BL2_END__+0x5b503f98>
 c006c58:	b5ad                	j	c006ac2 <cvx16_pinmux+0x80>
 c006c5a:	0b061737          	lui	a4,0xb061
 c006c5e:	080007b7          	lui	a5,0x8000
 c006c62:	90870713          	addi	a4,a4,-1784 # b060908 <p_rom_api_cryptodma_aes_decrypt+0x6c48808>
 c006c66:	c398                	sw	a4,0(a5)
 c006c68:	02000737          	lui	a4,0x2000
 c006c6c:	10770713          	addi	a4,a4,263 # 2000107 <__BSS_SIZE__+0x1ffb097>
 c006c70:	c3d8                	sw	a4,4(a5)
 c006c72:	0c050737          	lui	a4,0xc050
 c006c76:	40d70713          	addi	a4,a4,1037 # c05040d <__BL2_END__+0x4119d>
 c006c7a:	c798                	sw	a4,8(a5)
 c006c7c:	13141737          	lui	a4,0x13141
 c006c80:	50370713          	addi	a4,a4,1283 # 13141503 <__BL2_END__+0x7132293>
 c006c84:	c7d8                	sw	a4,12(a5)
 c006c86:	160a1737          	lui	a4,0x160a1
 c006c8a:	11270713          	addi	a4,a4,274 # 160a1112 <__BL2_END__+0xa091ea2>
 c006c8e:	cb98                	sw	a4,16(a5)
 c006c90:	000f1737          	lui	a4,0xf1
 c006c94:	0739                	addi	a4,a4,14
 c006c96:	cbd8                	sw	a4,20(a5)
 c006c98:	0007ac23          	sw	zero,24(a5) # 8000018 <p_rom_api_cryptodma_aes_decrypt+0x3be7f18>
 c006c9c:	10000713          	li	a4,256
 c006ca0:	cfd8                	sw	a4,28(a5)
 c006ca2:	28137737          	lui	a4,0x28137
 c006ca6:	56470713          	addi	a4,a4,1380 # 28137564 <__BL2_END__+0x1c1282f4>
 c006caa:	d398                	sw	a4,32(a5)
 c006cac:	76158737          	lui	a4,0x76158
 c006cb0:	0207a223          	sw	zero,36(a5)
 c006cb4:	32070713          	addi	a4,a4,800 # 76158320 <__BL2_END__+0x6a1490b0>
 c006cb8:	b529                	j	c006ac2 <cvx16_pinmux+0x80>
 c006cba:	08061737          	lui	a4,0x8061
 c006cbe:	080007b7          	lui	a5,0x8000
 c006cc2:	b0970713          	addi	a4,a4,-1271 # 8060b09 <p_rom_api_cryptodma_aes_decrypt+0x3c48a09>
 c006cc6:	c398                	sw	a4,0(a5)
 c006cc8:	02040737          	lui	a4,0x2040
 c006ccc:	70170713          	addi	a4,a4,1793 # 2040701 <__BSS_SIZE__+0x203b691>
 c006cd0:	c3d8                	sw	a4,4(a5)
 c006cd2:	0c000737          	lui	a4,0xc000
 c006cd6:	50d70713          	addi	a4,a4,1293 # c00050d <__system_reset+0x45>
 c006cda:	c798                	sw	a4,8(a5)
 c006cdc:	13150737          	lui	a4,0x13150
 c006ce0:	31470713          	addi	a4,a4,788 # 13150314 <__BL2_END__+0x71410a4>
 c006ce4:	c7d8                	sw	a4,12(a5)
 c006ce6:	10111737          	lui	a4,0x10111
 c006cea:	21670713          	addi	a4,a4,534 # 10111216 <__BL2_END__+0x4101fa6>
 c006cee:	cb98                	sw	a4,16(a5)
 c006cf0:	000f1737          	lui	a4,0xf1
 c006cf4:	a0e70713          	addi	a4,a4,-1522 # f0a0e <__BSS_SIZE__+0xeb99e>
 c006cf8:	cbd8                	sw	a4,20(a5)
 c006cfa:	0007ac23          	sw	zero,24(a5) # 8000018 <p_rom_api_cryptodma_aes_decrypt+0x3be7f18>
 c006cfe:	10000713          	li	a4,256
 c006d02:	cfd8                	sw	a4,28(a5)
 c006d04:	82135737          	lui	a4,0x82135
 c006d08:	67470713          	addi	a4,a4,1652 # ffffffff82135674 <__BL2_END__+0xffffffff76126404>
 c006d0c:	d398                	sw	a4,32(a5)
 c006d0e:	76153737          	lui	a4,0x76153
 c006d12:	0207a223          	sw	zero,36(a5)
 c006d16:	28070713          	addi	a4,a4,640 # 76153280 <__BL2_END__+0x6a144010>
 c006d1a:	b365                	j	c006ac2 <cvx16_pinmux+0x80>
 c006d1c:	070b1737          	lui	a4,0x70b1
 c006d20:	080007b7          	lui	a5,0x8000
 c006d24:	90c70713          	addi	a4,a4,-1780 # 70b090c <p_rom_api_cryptodma_aes_decrypt+0x2c9880c>
 c006d28:	c398                	sw	a4,0(a5)
 c006d2a:	04050737          	lui	a4,0x4050
 c006d2e:	60870713          	addi	a4,a4,1544 # 4050608 <__BSS_SIZE__+0x404b598>
 c006d32:	c3d8                	sw	a4,4(a5)
 c006d34:	0e020737          	lui	a4,0xe020
 c006d38:	30d70713          	addi	a4,a4,781 # e02030d <__BL2_END__+0x201109d>
 c006d3c:	c798                	sw	a4,8(a5)
 c006d3e:	110a0737          	lui	a4,0x110a0
 c006d42:	10070713          	addi	a4,a4,256 # 110a0100 <__BL2_END__+0x5090e90>
 c006d46:	c7d8                	sw	a4,12(a5)
 c006d48:	0f131737          	lui	a4,0xf131
 c006d4c:	61470713          	addi	a4,a4,1556 # f131614 <__BL2_END__+0x31223a4>
 c006d50:	cb98                	sw	a4,16(a5)
 c006d52:	00151737          	lui	a4,0x151
 c006d56:	0749                	addi	a4,a4,18
 c006d58:	cbd8                	sw	a4,20(a5)
 c006d5a:	0007ac23          	sw	zero,24(a5) # 8000018 <p_rom_api_cryptodma_aes_decrypt+0x3be7f18>
 c006d5e:	10000713          	li	a4,256
 c006d62:	cfd8                	sw	a4,28(a5)
 c006d64:	86014737          	lui	a4,0x86014
 c006d68:	53270713          	addi	a4,a4,1330 # ffffffff86014532 <__BL2_END__+0xffffffff7a0052c2>
 c006d6c:	d398                	sw	a4,32(a5)
 c006d6e:	471d                	li	a4,7
 c006d70:	d3d8                	sw	a4,36(a5)
 c006d72:	76012737          	lui	a4,0x76012
 c006d76:	34570713          	addi	a4,a4,837 # 76012345 <__BL2_END__+0x6a0030d5>
 c006d7a:	bdad                	j	c006bf4 <cvx16_pinmux+0x1b2>

000000000c006d7c <cvx16_dram_cap_check>:
 c006d7c:	8082                	ret

000000000c006d7e <ddrc_init>:
 c006d7e:	63746737          	lui	a4,0x63746
 c006d82:	080047b7          	lui	a5,0x8004
 c006d86:	37170713          	addi	a4,a4,881 # 63746371 <__BL2_END__+0x57737101>
 c006d8a:	c7d8                	sw	a4,12(a5)
 c006d8c:	0407a223          	sw	zero,68(a5) # 8004044 <p_rom_api_cryptodma_aes_decrypt+0x3bebf44>
 c006d90:	10078713          	addi	a4,a5,256
 c006d94:	999f06b7          	lui	a3,0x999f0
 c006d98:	c734                	sw	a3,72(a4)
 c006d9a:	810416b7          	lui	a3,0x81041
 c006d9e:	40168693          	addi	a3,a3,1025 # ffffffff81041401 <__BL2_END__+0xffffffff75032191>
 c006da2:	c394                	sw	a3,0(a5)
 c006da4:	009306b7          	lui	a3,0x930
 c006da8:	0207a823          	sw	zero,48(a5)
 c006dac:	0685                	addi	a3,a3,1
 c006dae:	dbd4                	sw	a3,52(a5)
 c006db0:	000206b7          	lui	a3,0x20
 c006db4:	df94                	sw	a3,56(a5)
 c006db6:	002016b7          	lui	a3,0x201
 c006dba:	07068693          	addi	a3,a3,112 # 201070 <__BSS_SIZE__+0x1fc000>
 c006dbe:	cbb4                	sw	a3,80(a5)
 c006dc0:	007106b7          	lui	a3,0x710
 c006dc4:	0607a023          	sw	zero,96(a5)
 c006dc8:	0a468693          	addi	a3,a3,164 # 7100a4 <__BSS_SIZE__+0x70b034>
 c006dcc:	d3f4                	sw	a3,100(a5)
 c006dce:	0c07a023          	sw	zero,192(a5)
 c006dd2:	6641                	lui	a2,0x10
 c006dd4:	0c07a223          	sw	zero,196(a5)
 c006dd8:	08078693          	addi	a3,a5,128
 c006ddc:	0e560613          	addi	a2,a2,229 # 100e5 <__BSS_SIZE__+0xb075>
 c006de0:	cab0                	sw	a2,80(a3)
 c006de2:	006a0637          	lui	a2,0x6a0
 c006de6:	caf0                	sw	a2,84(a3)
 c006de8:	1f140637          	lui	a2,0x1f140
 c006dec:	04060613          	addi	a2,a2,64 # 1f140040 <__BL2_END__+0x13130dd0>
 c006df0:	cef0                	sw	a2,92(a3)
 c006df2:	00600637          	lui	a2,0x600
 c006df6:	d2b0                	sw	a2,96(a3)
 c006df8:	000b0637          	lui	a2,0xb0
 c006dfc:	3bf60613          	addi	a2,a2,959 # b03bf <__BSS_SIZE__+0xab34f>
 c006e00:	d2f0                	sw	a2,100(a3)
 c006e02:	0e1126b7          	lui	a3,0xe112
 c006e06:	f1068693          	addi	a3,a3,-240 # e111f10 <__BL2_END__+0x2102ca0>
 c006e0a:	c314                	sw	a3,0(a4)
 c006e0c:	000306b7          	lui	a3,0x30
 c006e10:	41768693          	addi	a3,a3,1047 # 30417 <__BSS_SIZE__+0x2b3a7>
 c006e14:	c354                	sw	a3,4(a4)
 c006e16:	050706b7          	lui	a3,0x5070
 c006e1a:	60a68693          	addi	a3,a3,1546 # 507060a <p_rom_api_cryptodma_aes_decrypt+0xc5850a>
 c006e1e:	6589                	lui	a1,0x2
 c006e20:	c714                	sw	a3,8(a4)
 c006e22:	00758693          	addi	a3,a1,7 # 2007 <__BSS_SIZE__-0x3069>
 c006e26:	c754                	sw	a3,12(a4)
 c006e28:	070206b7          	lui	a3,0x7020
 c006e2c:	30768693          	addi	a3,a3,775 # 7020307 <p_rom_api_cryptodma_aes_decrypt+0x2c08207>
 c006e30:	cb14                	sw	a3,16(a4)
 c006e32:	050506b7          	lui	a3,0x5050
 c006e36:	30368693          	addi	a3,a3,771 # 5050303 <p_rom_api_cryptodma_aes_decrypt+0xc38203>
 c006e3a:	6605                	lui	a2,0x1
 c006e3c:	cb54                	sw	a3,20(a4)
 c006e3e:	90760693          	addi	a3,a2,-1785 # 907 <__BSS_SIZE__-0x4769>
 c006e42:	d314                	sw	a3,32(a4)
 c006e44:	c09606b7          	lui	a3,0xc0960
 c006e48:	18078713          	addi	a4,a5,384
 c006e4c:	1207ae23          	sw	zero,316(a5)
 c006e50:	02668693          	addi	a3,a3,38 # ffffffffc0960026 <__BL2_END__+0xffffffffb4950db6>
 c006e54:	c314                	sw	a3,0(a4)
 c006e56:	048a8537          	lui	a0,0x48a8
 c006e5a:	4685                	li	a3,1
 c006e5c:	c354                	sw	a3,4(a4)
 c006e5e:	30550513          	addi	a0,a0,773 # 48a8305 <p_rom_api_cryptodma_aes_decrypt+0x490205>
 c006e62:	cb08                	sw	a0,16(a4)
 c006e64:	00070537          	lui	a0,0x70
 c006e68:	20250813          	addi	a6,a0,514 # 70202 <__BSS_SIZE__+0x6b192>
 c006e6c:	01072a23          	sw	a6,20(a4)
 c006e70:	07c13837          	lui	a6,0x7c13
 c006e74:	12180813          	addi	a6,a6,289 # 7c13121 <p_rom_api_cryptodma_aes_decrypt+0x37fb021>
 c006e78:	01072c23          	sw	a6,24(a4)
 c006e7c:	02100813          	li	a6,33
 c006e80:	01072e23          	sw	a6,28(a4)
 c006e84:	c0400837          	lui	a6,0xc0400
 c006e88:	0861                	addi	a6,a6,24
 c006e8a:	03072023          	sw	a6,32(a4)
 c006e8e:	00fe0837          	lui	a6,0xfe0
 c006e92:	0ff80813          	addi	a6,a6,255 # fe00ff <__BSS_SIZE__+0xfdb08f>
 c006e96:	03072223          	sw	a6,36(a4)
 c006e9a:	80000837          	lui	a6,0x80000
 c006e9e:	03072423          	sw	a6,40(a4)
 c006ea2:	2c100813          	li	a6,705
 c006ea6:	03072823          	sw	a6,48(a4)
 c006eaa:	c334                	sw	a3,64(a4)
 c006eac:	c374                	sw	a3,68(a4)
 c006eae:	f1f58593          	addi	a1,a1,-225
 c006eb2:	20078713          	addi	a4,a5,512
 c006eb6:	c30c                	sw	a1,0(a4)
 c006eb8:	70750513          	addi	a0,a0,1799
 c006ebc:	c348                	sw	a0,4(a4)
 c006ebe:	2007a423          	sw	zero,520(a5)
 c006ec2:	1f000537          	lui	a0,0x1f000
 c006ec6:	c748                	sw	a0,12(a4)
 c006ec8:	cb0c                	sw	a1,16(a4)
 c006eca:	060f05b7          	lui	a1,0x60f0
 c006ece:	60658593          	addi	a1,a1,1542 # 60f0606 <p_rom_api_cryptodma_aes_decrypt+0x1cd8506>
 c006ed2:	cb4c                	sw	a1,20(a4)
 c006ed4:	060605b7          	lui	a1,0x6060
 c006ed8:	60658593          	addi	a1,a1,1542 # 6060606 <p_rom_api_cryptodma_aes_decrypt+0x1c48506>
 c006edc:	cf0c                	sw	a1,24(a4)
 c006ede:	60600513          	li	a0,1542
 c006ee2:	cf48                	sw	a0,28(a4)
 c006ee4:	6511                	lui	a0,0x4
 c006ee6:	f3f50813          	addi	a6,a0,-193 # 3f3f <__BSS_SIZE__-0x1131>
 c006eea:	03072023          	sw	a6,32(a4)
 c006eee:	d34c                	sw	a1,36(a4)
 c006ef0:	d70c                	sw	a1,40(a4)
 c006ef2:	001f25b7          	lui	a1,0x1f2
 c006ef6:	f0658593          	addi	a1,a1,-250 # 1f1f06 <__BSS_SIZE__+0x1ece96>
 c006efa:	d74c                	sw	a1,44(a4)
 c006efc:	080005b7          	lui	a1,0x8000
 c006f00:	61058593          	addi	a1,a1,1552 # 8000610 <p_rom_api_cryptodma_aes_decrypt+0x3be8510>
 c006f04:	c32c                	sw	a1,64(a4)
 c006f06:	2407a223          	sw	zero,580(a5)
 c006f0a:	f8550513          	addi	a0,a0,-123
 c006f0e:	cb28                	sw	a0,80(a4)
 c006f10:	100005b7          	lui	a1,0x10000
 c006f14:	2407aa23          	sw	zero,596(a5)
 c006f18:	0f058593          	addi	a1,a1,240 # 100000f0 <__BL2_END__+0x3ff0e80>
 c006f1c:	cf6c                	sw	a1,92(a4)
 c006f1e:	d36c                	sw	a1,100(a4)
 c006f20:	d76c                	sw	a1,108(a4)
 c006f22:	3007a023          	sw	zero,768(a5)
 c006f26:	3007a223          	sw	zero,772(a5)
 c006f2a:	3007a623          	sw	zero,780(a5)
 c006f2e:	30078713          	addi	a4,a5,768
 c006f32:	d314                	sw	a3,32(a4)
 c006f34:	3607a623          	sw	zero,876(a5)
 c006f38:	40078713          	addi	a4,a5,1024
 c006f3c:	45c5                	li	a1,17
 c006f3e:	c30c                	sw	a1,0(a4)
 c006f40:	6599                	lui	a1,0x6
 c006f42:	c34c                	sw	a1,4(a4)
 c006f44:	c70c                	sw	a1,8(a4)
 c006f46:	48078713          	addi	a4,a5,1152
 c006f4a:	489d                	li	a7,7
 c006f4c:	06a00813          	li	a6,106
 c006f50:	cb14                	sw	a3,16(a4)
 c006f52:	01172a23          	sw	a7,20(a4)
 c006f56:	e0760613          	addi	a2,a2,-505
 c006f5a:	01072c23          	sw	a6,24(a4)
 c006f5e:	01a80537          	lui	a0,0x1a80
 c006f62:	cf50                	sw	a2,28(a4)
 c006f64:	1a850513          	addi	a0,a0,424 # 1a801a8 <__BSS_SIZE__+0x1a7b138>
 c006f68:	d308                	sw	a0,32(a4)
 c006f6a:	db4c                	sw	a1,52(a4)
 c006f6c:	df0c                	sw	a1,56(a4)
 c006f6e:	50078713          	addi	a4,a5,1280
 c006f72:	c334                	sw	a3,64(a4)
 c006f74:	05172223          	sw	a7,68(a4)
 c006f78:	05072423          	sw	a6,72(a4)
 c006f7c:	c770                	sw	a2,76(a4)
 c006f7e:	cb28                	sw	a0,80(a4)
 c006f80:	d36c                	sw	a1,100(a4)
 c006f82:	d72c                	sw	a1,104(a4)
 c006f84:	58078713          	addi	a4,a5,1408
 c006f88:	db34                	sw	a3,112(a4)
 c006f8a:	07172a23          	sw	a7,116(a4)
 c006f8e:	07072c23          	sw	a6,120(a4)
 c006f92:	df70                	sw	a2,124(a4)
 c006f94:	60078793          	addi	a5,a5,1536
 c006f98:	c388                	sw	a0,0(a5)
 c006f9a:	8082                	ret

000000000c006f9c <ctrl_init_high_patch>:
 c006f9c:	08004737          	lui	a4,0x8004
 c006fa0:	4789                	li	a5,2
 c006fa2:	db1c                	sw	a5,48(a4)
 c006fa4:	004007b7          	lui	a5,0x400
 c006fa8:	07e1                	addi	a5,a5,24
 c006faa:	1af72023          	sw	a5,416(a4) # 80041a0 <p_rom_api_cryptodma_aes_decrypt+0x3bec0a0>
 c006fae:	0800a7b7          	lui	a5,0x800a
 c006fb2:	0007aa23          	sw	zero,20(a5) # 800a014 <p_rom_api_cryptodma_aes_decrypt+0x3bf1f14>
 c006fb6:	8082                	ret

000000000c006fb8 <ctrl_init_low_patch>:
 c006fb8:	08004737          	lui	a4,0x8004
 c006fbc:	c04007b7          	lui	a5,0xc0400
 c006fc0:	02072823          	sw	zero,48(a4) # 8004030 <p_rom_api_cryptodma_aes_decrypt+0x3bebf30>
 c006fc4:	07e1                	addi	a5,a5,24
 c006fc6:	1af72023          	sw	a5,416(a4)
 c006fca:	6785                	lui	a5,0x1
 c006fcc:	0800a737          	lui	a4,0x800a
 c006fd0:	17fd                	addi	a5,a5,-1
 c006fd2:	cb5c                	sw	a5,20(a4)
 c006fd4:	8082                	ret

000000000c006fd6 <ctrl_init_update_by_dram_size>:
 c006fd6:	080047b7          	lui	a5,0x8004
 c006fda:	4398                	lw	a4,0(a5)
 c006fdc:	00008797          	auipc	a5,0x8
 c006fe0:	26e7ae23          	sw	a4,636(a5) # c00f258 <rddata>
 c006fe4:	34c7368b          	extu	a3,a4,13,12
 c006fe8:	4785                	li	a5,1
 c006fea:	9f95                	subw	a5,a5,a3
 c006fec:	40f557bb          	sraw	a5,a0,a5
 c006ff0:	4689                	li	a3,2
 c006ff2:	01e7571b          	srliw	a4,a4,0x1e
 c006ff6:	40e6873b          	subw	a4,a3,a4
 c006ffa:	0ff7f793          	andi	a5,a5,255
 c006ffe:	40e7d7bb          	sraw	a5,a5,a4
 c007002:	0ff7f793          	andi	a5,a5,255
 c007006:	ffa7869b          	addiw	a3,a5,-6
 c00700a:	4711                	li	a4,4
 c00700c:	02d76663          	bltu	a4,a3,c007038 <ctrl_init_update_by_dram_size+0x62>
 c007010:	00001717          	auipc	a4,0x1
 c007014:	f8c70713          	addi	a4,a4,-116 # c007f9c <inc32table+0x314>
 c007018:	54d7478b          	lurw	a5,a4,a3,2
 c00701c:	97ba                	add	a5,a5,a4
 c00701e:	08004737          	lui	a4,0x8004
 c007022:	8782                	jr	a5
 c007024:	007107b7          	lui	a5,0x710
 c007028:	02a78793          	addi	a5,a5,42 # 71002a <__BSS_SIZE__+0x70afba>
 c00702c:	d37c                	sw	a5,100(a4)
 c00702e:	6785                	lui	a5,0x1
 c007030:	90378793          	addi	a5,a5,-1789 # 903 <__BSS_SIZE__-0x476d>
 c007034:	12f72023          	sw	a5,288(a4) # 8004120 <p_rom_api_cryptodma_aes_decrypt+0x3bec020>
 c007038:	080047b7          	lui	a5,0x8004
 c00703c:	4709                	li	a4,2
 c00703e:	d3b8                	sw	a4,96(a5)
 c007040:	0607a023          	sw	zero,96(a5) # 8004060 <p_rom_api_cryptodma_aes_decrypt+0x3bebf60>
 c007044:	8082                	ret
 c007046:	007107b7          	lui	a5,0x710
 c00704a:	03478793          	addi	a5,a5,52 # 710034 <__BSS_SIZE__+0x70afc4>
 c00704e:	bff9                	j	c00702c <ctrl_init_update_by_dram_size+0x56>
 c007050:	007107b7          	lui	a5,0x710
 c007054:	04b78793          	addi	a5,a5,75 # 71004b <__BSS_SIZE__+0x70afdb>
 c007058:	d37c                	sw	a5,100(a4)
 c00705a:	6785                	lui	a5,0x1
 c00705c:	90478793          	addi	a5,a5,-1788 # 904 <__BSS_SIZE__-0x476c>
 c007060:	bfd1                	j	c007034 <ctrl_init_update_by_dram_size+0x5e>
 c007062:	007107b7          	lui	a5,0x710
 c007066:	07a78793          	addi	a5,a5,122 # 71007a <__BSS_SIZE__+0x70b00a>
 c00706a:	d37c                	sw	a5,100(a4)
 c00706c:	6785                	lui	a5,0x1
 c00706e:	90578793          	addi	a5,a5,-1787 # 905 <__BSS_SIZE__-0x476b>
 c007072:	b7c9                	j	c007034 <ctrl_init_update_by_dram_size+0x5e>
 c007074:	007107b7          	lui	a5,0x710
 c007078:	0a478793          	addi	a5,a5,164 # 7100a4 <__BSS_SIZE__+0x70b034>
 c00707c:	d37c                	sw	a5,100(a4)
 c00707e:	6785                	lui	a5,0x1
 c007080:	90778793          	addi	a5,a5,-1785 # 907 <__BSS_SIZE__-0x4769>
 c007084:	bf45                	j	c007034 <ctrl_init_update_by_dram_size+0x5e>

000000000c007086 <phy_init>:
 c007086:	03020737          	lui	a4,0x3020
 c00708a:	080007b7          	lui	a5,0x8000
 c00708e:	10070713          	addi	a4,a4,256 # 3020100 <__BSS_SIZE__+0x301b090>
 c007092:	c398                	sw	a4,0(a5)
 c007094:	07060737          	lui	a4,0x7060
 c007098:	50470713          	addi	a4,a4,1284 # 7060504 <p_rom_api_cryptodma_aes_decrypt+0x2c48404>
 c00709c:	c3d8                	sw	a4,4(a5)
 c00709e:	0b0a1737          	lui	a4,0xb0a1
 c0070a2:	90870713          	addi	a4,a4,-1784 # b0a0908 <p_rom_api_cryptodma_aes_decrypt+0x6c88808>
 c0070a6:	c798                	sw	a4,8(a5)
 c0070a8:	0f0e1737          	lui	a4,0xf0e1
 c0070ac:	d0c70713          	addi	a4,a4,-756 # f0e0d0c <__BL2_END__+0x30d1a9c>
 c0070b0:	c7d8                	sw	a4,12(a5)
 c0070b2:	13121737          	lui	a4,0x13121
 c0070b6:	11070713          	addi	a4,a4,272 # 13121110 <__BL2_END__+0x7111ea0>
 c0070ba:	cb98                	sw	a4,16(a5)
 c0070bc:	00161737          	lui	a4,0x161
 c0070c0:	51470713          	addi	a4,a4,1300 # 161514 <__BSS_SIZE__+0x15c4a4>
 c0070c4:	cbd8                	sw	a4,20(a5)
 c0070c6:	0007ac23          	sw	zero,24(a5) # 8000018 <p_rom_api_cryptodma_aes_decrypt+0x3be7f18>
 c0070ca:	10000613          	li	a2,256
 c0070ce:	76543737          	lui	a4,0x76543
 c0070d2:	cfd0                	sw	a2,28(a5)
 c0070d4:	21070713          	addi	a4,a4,528 # 76543210 <__BL2_END__+0x6a533fa0>
 c0070d8:	d398                	sw	a4,32(a5)
 c0070da:	46a1                	li	a3,8
 c0070dc:	d3d4                	sw	a3,36(a5)
 c0070de:	d798                	sw	a4,40(a5)
 c0070e0:	d7d4                	sw	a3,44(a5)
 c0070e2:	007f0737          	lui	a4,0x7f0
 c0070e6:	0407a023          	sw	zero,64(a5)
 c0070ea:	0735                	addi	a4,a4,13
 c0070ec:	c3f8                	sw	a4,68(a5)
 c0070ee:	0407a423          	sw	zero,72(a5)
 c0070f2:	c7f4                	sw	a3,76(a5)
 c0070f4:	4719                	li	a4,6
 c0070f6:	cbb8                	sw	a4,80(a5)
 c0070f8:	0c001737          	lui	a4,0xc001
 c0070fc:	b0070713          	addi	a4,a4,-1280 # c000b00 <set_rtc_en_registers+0x22>
 c007100:	cbf8                	sw	a4,84(a5)
 c007102:	09160737          	lui	a4,0x9160
 c007106:	04f70713          	addi	a4,a4,79 # 916004f <p_rom_api_cryptodma_aes_decrypt+0x4d47f4f>
 c00710a:	cfb8                	sw	a4,88(a5)
 c00710c:	04000837          	lui	a6,0x4000
 c007110:	0407ae23          	sw	zero,92(a5)
 c007114:	37080713          	addi	a4,a6,880 # 4000370 <__BSS_SIZE__+0x3ffb300>
 c007118:	d3b8                	sw	a4,96(a5)
 c00711a:	0d001737          	lui	a4,0xd001
 c00711e:	a0070713          	addi	a4,a4,-1536 # d000a00 <__BL2_END__+0xff1790>
 c007122:	d3f8                	sw	a4,100(a5)
 c007124:	00800737          	lui	a4,0x800
 c007128:	d7b8                	sw	a4,104(a5)
 c00712a:	10800713          	li	a4,264
 c00712e:	dbb8                	sw	a4,112(a5)
 c007130:	00072737          	lui	a4,0x72
 c007134:	dbf8                	sw	a4,116(a5)
 c007136:	1f00e6b7          	lui	a3,0x1f00e
 c00713a:	08078713          	addi	a4,a5,128
 c00713e:	c314                	sw	a3,0(a4)
 c007140:	010b16b7          	lui	a3,0x10b1
 c007144:	c0a68693          	addi	a3,a3,-1014 # 10b0c0a <__BSS_SIZE__+0x10abb9a>
 c007148:	c354                	sw	a3,4(a4)
 c00714a:	0a0106b7          	lui	a3,0xa010
 c00714e:	11468693          	addi	a3,a3,276 # a010114 <p_rom_api_cryptodma_aes_decrypt+0x5bf8014>
 c007152:	c714                	sw	a3,8(a4)
 c007154:	aaaa06b7          	lui	a3,0xaaaa0
 c007158:	08f68693          	addi	a3,a3,143 # ffffffffaaaa008f <__BL2_END__+0xffffffff9ea90e1f>
 c00715c:	c754                	sw	a3,12(a4)
 c00715e:	6691                	lui	a3,0x4
 c007160:	6505                	lui	a0,0x1
 c007162:	80068593          	addi	a1,a3,-2048 # 3800 <__BSS_SIZE__-0x1870>
 c007166:	cb0c                	sw	a1,16(a4)
 c007168:	80150593          	addi	a1,a0,-2047 # 801 <__BSS_SIZE__-0x486f>
 c00716c:	cb4c                	sw	a1,20(a4)
 c00716e:	074005b7          	lui	a1,0x7400
 c007172:	54058593          	addi	a1,a1,1344 # 7400540 <p_rom_api_cryptodma_aes_decrypt+0x2fe8440>
 c007176:	d30c                	sw	a1,32(a4)
 c007178:	014205b7          	lui	a1,0x1420
 c00717c:	50458593          	addi	a1,a1,1284 # 1420504 <__BSS_SIZE__+0x141b494>
 c007180:	d34c                	sw	a1,36(a4)
 c007182:	005505b7          	lui	a1,0x550
 c007186:	05a9                	addi	a1,a1,10
 c007188:	d70c                	sw	a1,40(a4)
 c00718a:	005545b7          	lui	a1,0x554
 c00718e:	c5a58593          	addi	a1,a1,-934 # 553c5a <__BSS_SIZE__+0x54ebea>
 c007192:	d74c                	sw	a1,44(a4)
 c007194:	00aaa5b7          	lui	a1,0xaaa
 c007198:	5c358593          	addi	a1,a1,1475 # aaa5c3 <__BSS_SIZE__+0xaa5553>
 c00719c:	db0c                	sw	a1,48(a4)
 c00719e:	00aaf5b7          	lui	a1,0xaaf
 c0071a2:	0f058593          	addi	a1,a1,240 # aaf0f0 <__BSS_SIZE__+0xaaa080>
 c0071a6:	db4c                	sw	a1,52(a4)
 c0071a8:	1e0015b7          	lui	a1,0x1e001
 c0071ac:	f0f58593          	addi	a1,a1,-241 # 1e000f0f <__BL2_END__+0x11ff1c9f>
 c0071b0:	df0c                	sw	a1,56(a4)
 c0071b2:	000845b7          	lui	a1,0x84
 c0071b6:	e1358593          	addi	a1,a1,-493 # 83e13 <__BSS_SIZE__+0x7eda3>
 c0071ba:	df4c                	sw	a1,60(a4)
 c0071bc:	000305b7          	lui	a1,0x30
 c0071c0:	0e07a823          	sw	zero,240(a5)
 c0071c4:	03358593          	addi	a1,a1,51 # 30033 <__BSS_SIZE__+0x2afc3>
 c0071c8:	db6c                	sw	a1,116(a4)
 c0071ca:	002105b7          	lui	a1,0x210
 c0071ce:	02c58593          	addi	a1,a1,44 # 21002c <__BSS_SIZE__+0x20afbc>
 c0071d2:	df2c                	sw	a1,120(a4)
 c0071d4:	003705b7          	lui	a1,0x370
 c0071d8:	05d9                	addi	a1,a1,22
 c0071da:	df6c                	sw	a1,124(a4)
 c0071dc:	10078713          	addi	a4,a5,256
 c0071e0:	01072023          	sw	a6,0(a4) # 72000 <__BSS_SIZE__+0x6cf90>
 c0071e4:	1007a223          	sw	zero,260(a5)
 c0071e8:	1007a623          	sw	zero,268(a5)
 c0071ec:	1007a823          	sw	zero,272(a5)
 c0071f0:	1007aa23          	sw	zero,276(a5)
 c0071f4:	659d                	lui	a1,0x7
 c0071f6:	1007ac23          	sw	zero,280(a5)
 c0071fa:	a1058593          	addi	a1,a1,-1520 # 6a10 <__BSS_SIZE__+0x19a0>
 c0071fe:	cf4c                	sw	a1,28(a4)
 c007200:	1207a023          	sw	zero,288(a5)
 c007204:	ef700593          	li	a1,-265
 c007208:	d34c                	sw	a1,36(a4)
 c00720a:	45fd                	li	a1,31
 c00720c:	d70c                	sw	a1,40(a4)
 c00720e:	4585                	li	a1,1
 c007210:	d74c                	sw	a1,44(a4)
 c007212:	10100593          	li	a1,257
 c007216:	db0c                	sw	a1,48(a4)
 c007218:	db50                	sw	a2,52(a4)
 c00721a:	4851                	li	a6,20
 c00721c:	03072c23          	sw	a6,56(a4)
 c007220:	1407a023          	sw	zero,320(a5)
 c007224:	1407a223          	sw	zero,324(a5)
 c007228:	80850e13          	addi	t3,a0,-2040
 c00722c:	05c72423          	sw	t3,72(a4)
 c007230:	1407a623          	sw	zero,332(a5)
 c007234:	4815                	li	a6,5
 c007236:	05072823          	sw	a6,80(a4)
 c00723a:	cb6c                	sw	a1,84(a4)
 c00723c:	1407ac23          	sw	zero,344(a5)
 c007240:	003335b7          	lui	a1,0x333
 c007244:	1407ae23          	sw	zero,348(a5)
 c007248:	33158593          	addi	a1,a1,817 # 333331 <__BSS_SIZE__+0x32e2c1>
 c00724c:	1607a223          	sw	zero,356(a5)
 c007250:	d72c                	sw	a1,104(a4)
 c007252:	1607a623          	sw	zero,364(a5)
 c007256:	1607a823          	sw	zero,368(a5)
 c00725a:	db70                	sw	a2,116(a4)
 c00725c:	00020637          	lui	a2,0x20
 c007260:	18078713          	addi	a4,a5,384
 c007264:	0641                	addi	a2,a2,16
 c007266:	c310                	sw	a2,0(a4)
 c007268:	1807a223          	sw	zero,388(a5)
 c00726c:	00090637          	lui	a2,0x90
 c007270:	1807a423          	sw	zero,392(a5)
 c007274:	40060613          	addi	a2,a2,1024 # 90400 <__BSS_SIZE__+0x8b390>
 c007278:	c750                	sw	a2,12(a4)
 c00727a:	00021637          	lui	a2,0x21
 c00727e:	20e60613          	addi	a2,a2,526 # 2120e <__BSS_SIZE__+0x1c19e>
 c007282:	cb10                	sw	a2,16(a4)
 c007284:	2007a023          	sw	zero,512(a5)
 c007288:	20078713          	addi	a4,a5,512
 c00728c:	44000613          	li	a2,1088
 c007290:	c350                	sw	a2,4(a4)
 c007292:	2007a423          	sw	zero,520(a5)
 c007296:	2207a023          	sw	zero,544(a5)
 c00729a:	d350                	sw	a2,36(a4)
 c00729c:	2207a423          	sw	zero,552(a5)
 c0072a0:	4007a023          	sw	zero,1024(a5)
 c0072a4:	4007a223          	sw	zero,1028(a5)
 c0072a8:	4007a423          	sw	zero,1032(a5)
 c0072ac:	4007a623          	sw	zero,1036(a5)
 c0072b0:	40078713          	addi	a4,a5,1024
 c0072b4:	001005b7          	lui	a1,0x100
 c0072b8:	e4b7558b          	swd	a1,a1,(a4),2,3
 c0072bc:	4609                	li	a2,2
 c0072be:	cf10                	sw	a2,24(a4)
 c0072c0:	04068693          	addi	a3,a3,64
 c0072c4:	cf54                	sw	a3,28(a4)
 c0072c6:	00150813          	addi	a6,a0,1
 c0072ca:	50078713          	addi	a4,a5,1280
 c0072ce:	e0b7580b          	swd	a6,a1,(a4),0,3
 c0072d2:	5007a423          	sw	zero,1288(a5)
 c0072d6:	5007a623          	sw	zero,1292(a5)
 c0072da:	4611                	li	a2,4
 c0072dc:	cb10                	sw	a2,16(a4)
 c0072de:	5007aa23          	sw	zero,1300(a5)
 c0072e2:	5007ac23          	sw	zero,1304(a5)
 c0072e6:	5007ae23          	sw	zero,1308(a5)
 c0072ea:	468d                	li	a3,3
 c0072ec:	d314                	sw	a3,32(a4)
 c0072ee:	05072023          	sw	a6,64(a4)
 c0072f2:	c36c                	sw	a1,68(a4)
 c0072f4:	5407a423          	sw	zero,1352(a5)
 c0072f8:	5407a623          	sw	zero,1356(a5)
 c0072fc:	cb30                	sw	a2,80(a4)
 c0072fe:	5407aa23          	sw	zero,1364(a5)
 c007302:	5407ac23          	sw	zero,1368(a5)
 c007306:	5407ae23          	sw	zero,1372(a5)
 c00730a:	d334                	sw	a3,96(a4)
 c00730c:	08001737          	lui	a4,0x8001
 c007310:	90070793          	addi	a5,a4,-1792 # 8000900 <p_rom_api_cryptodma_aes_decrypt+0x3be8800>
 c007314:	40000693          	li	a3,1024
 c007318:	c394                	sw	a3,0(a5)
 c00731a:	d7d4                	sw	a3,44(a5)
 c00731c:	db94                	sw	a3,48(a5)
 c00731e:	dbd4                	sw	a3,52(a5)
 c007320:	df94                	sw	a3,56(a5)
 c007322:	94072023          	sw	zero,-1728(a4)
 c007326:	96072823          	sw	zero,-1680(a4)
 c00732a:	96072a23          	sw	zero,-1676(a4)
 c00732e:	080806b7          	lui	a3,0x8080
 c007332:	96072c23          	sw	zero,-1672(a4)
 c007336:	40468693          	addi	a3,a3,1028 # 8080404 <p_rom_api_cryptodma_aes_decrypt+0x3c68304>
 c00733a:	08081837          	lui	a6,0x8081
 c00733e:	dff4                	sw	a3,124(a5)
 c007340:	80880813          	addi	a6,a6,-2040 # 8080808 <p_rom_api_cryptodma_aes_decrypt+0x3c68708>
 c007344:	98070793          	addi	a5,a4,-1664
 c007348:	06400637          	lui	a2,0x6400
 c00734c:	0107a023          	sw	a6,0(a5)
 c007350:	64060613          	addi	a2,a2,1600 # 6400640 <p_rom_api_cryptodma_aes_decrypt+0x1fe8540>
 c007354:	a0070793          	addi	a5,a4,-1536
 c007358:	e0c7d60b          	swd	a2,a2,(a5),0,3
 c00735c:	e2c7d60b          	swd	a2,a2,(a5),1,3
 c007360:	64000f93          	li	t6,1600
 c007364:	01f7a823          	sw	t6,16(a5)
 c007368:	0b000f37          	lui	t5,0xb000
 c00736c:	0a001337          	lui	t1,0xa001
 c007370:	01e7aa23          	sw	t5,20(a5)
 c007374:	90030313          	addi	t1,t1,-1792 # a000900 <p_rom_api_cryptodma_aes_decrypt+0x5be8800>
 c007378:	000408b7          	lui	a7,0x40
 c00737c:	0067ac23          	sw	t1,24(a5)
 c007380:	60088893          	addi	a7,a7,1536 # 40600 <__BSS_SIZE__+0x3b590>
 c007384:	004006b7          	lui	a3,0x400
 c007388:	04068693          	addi	a3,a3,64 # 400040 <__BSS_SIZE__+0x3fafd0>
 c00738c:	0117ae23          	sw	a7,28(a5)
 c007390:	d394                	sw	a3,32(a5)
 c007392:	d3d4                	sw	a3,36(a5)
 c007394:	d794                	sw	a3,40(a5)
 c007396:	d7d4                	sw	a3,44(a5)
 c007398:	04000e93          	li	t4,64
 c00739c:	03d7a823          	sw	t4,48(a5)
 c0073a0:	a2072a23          	sw	zero,-1484(a4)
 c0073a4:	03c7ac23          	sw	t3,56(a5)
 c0073a8:	0307ae23          	sw	a6,60(a5)
 c0073ac:	c3b0                	sw	a2,64(a5)
 c0073ae:	c3f0                	sw	a2,68(a5)
 c0073b0:	c7b0                	sw	a2,72(a5)
 c0073b2:	c7f0                	sw	a2,76(a5)
 c0073b4:	05f7a823          	sw	t6,80(a5)
 c0073b8:	05e7aa23          	sw	t5,84(a5)
 c0073bc:	0467ac23          	sw	t1,88(a5)
 c0073c0:	0517ae23          	sw	a7,92(a5)
 c0073c4:	d3b4                	sw	a3,96(a5)
 c0073c6:	d3f4                	sw	a3,100(a5)
 c0073c8:	d7b4                	sw	a3,104(a5)
 c0073ca:	d7f4                	sw	a3,108(a5)
 c0073cc:	07d7a823          	sw	t4,112(a5)
 c0073d0:	a6072a23          	sw	zero,-1420(a4)
 c0073d4:	07c7ac23          	sw	t3,120(a5)
 c0073d8:	0707ae23          	sw	a6,124(a5)
 c0073dc:	b0072023          	sw	zero,-1280(a4)
 c0073e0:	b0072223          	sw	zero,-1276(a4)
 c0073e4:	b0070793          	addi	a5,a4,-1280
 c0073e8:	00404837          	lui	a6,0x404
 c0073ec:	0107a423          	sw	a6,8(a5)
 c0073f0:	a0050513          	addi	a0,a0,-1536
 c0073f4:	c7c8                	sw	a0,12(a5)
 c0073f6:	000816b7          	lui	a3,0x81
 c0073fa:	b0072823          	sw	zero,-1264(a4)
 c0073fe:	e0e68693          	addi	a3,a3,-498 # 80e0e <__BSS_SIZE__+0x7bd9e>
 c007402:	cbd4                	sw	a3,20(a5)
 c007404:	b0072c23          	sw	zero,-1256(a4)
 c007408:	b0072e23          	sw	zero,-1252(a4)
 c00740c:	40400637          	lui	a2,0x40400
 c007410:	d390                	sw	a2,32(a5)
 c007412:	05c1                	addi	a1,a1,16
 c007414:	d3cc                	sw	a1,36(a5)
 c007416:	b2072823          	sw	zero,-1232(a4)
 c00741a:	b2072a23          	sw	zero,-1228(a4)
 c00741e:	0307ac23          	sw	a6,56(a5)
 c007422:	dfc8                	sw	a0,60(a5)
 c007424:	b4072023          	sw	zero,-1216(a4)
 c007428:	c3f4                	sw	a3,68(a5)
 c00742a:	b4072423          	sw	zero,-1208(a4)
 c00742e:	b4072623          	sw	zero,-1204(a4)
 c007432:	cbb0                	sw	a2,80(a5)
 c007434:	cbec                	sw	a1,84(a5)
 c007436:	8082                	ret

000000000c007438 <build_message>:
 c007438:	3032 3432 312d 2d31 3631 3154 3a35 3232     2024-11-16T15:22
 c007448:	333a 2b38 3830 303a 0030 0000 0000 0000     :38+08:00.......

000000000c007458 <version_string>:
 c007458:	624a 3832 3932 673a 3937 3037 3266 3762     Jb2829:g7970f2b7
	...
 c007470:	3201 504f 4e45 4253 3a49 6e20 7865 5f74     .2OPENSBI: next_
 c007480:	6461 7264 303d 2578 786c 6120 6772 3d31     addr=0x%lx arg1=
 c007490:	7830 6c25 0078 0000 7830 0000 8f4c ffff     0x%lx...0x..L...
 c0074a0:	8ef4 ffff 8ef4 ffff 8ef4 ffff 8ef4 ffff     ................
 c0074b0:	8f4c ffff 8ef4 ffff 8ef4 ffff 9000 ffff     L...............
 c0074c0:	8ef4 ffff 8ef4 ffff 8ef4 ffff 8fa8 ffff     ................
 c0074d0:	8ef4 ffff 8ef4 ffff 8f88 ffff 8ef4 ffff     ................
 c0074e0:	9006 ffff 8ef4 ffff 8ef4 ffff 8fdc ffff     ................
 c0074f0:	8ef4 ffff 8ffa ffff 3001 4520 523a 5345     .........0 E:RES
 c007500:	5445 253a 3a73 6425 000a 0000 0000 0000     ET:%s:%d........
 c007510:	3001 4520 723a 3d61 7830 6c25 0a78 0000     .0 E:ra=0x%lx...
 c007520:	6170 696e 0063 0000 3201 5352 2e43 000a     panic....2RSC...
 c007530:	3201 4c50 534c 4f2f 2e44 000a 0000 0000     .2PLLS/OD.......
 c007540:	3201 4c50 534c 0a2e 0000 0000 0000 0000     .2PLLS..........
 c007550:	3201 4c50 454c 0a2e 0000 0000 0000 0000     .2PLLE..........
 c007560:	3201 7942 7020 7361 2073 7472 2063 6f6d     .2By pass rtc mo
 c007570:	6564 7320 6977 6374 0a68 0000 0000 0000     de switch.......
 c007580:	3201 7355 2065 6e69 6574 6e72 6c61 3320     .2Use internal 3
 c007590:	6b32 000a 0000 0000 3201 7753 7469 6863     2k.......2Switch
 c0075a0:	5220 4354 6d20 646f 2065 6f74 7820 6174      RTC mode to xta
 c0075b0:	336c 6b32 000a 0000 3201 7473 6f5f 5f6e     l32k.....2st_on_
 c0075c0:	6572 7361 6e6f 253d 0a78 0000 0000 0000     reason=%x.......
 c0075d0:	3201 7473 6f5f 6666 725f 6165 6f73 3d6e     .2st_off_reason=
 c0075e0:	7825 000a 0000 0000 0000 249f 1746 245d     %x.........$F.]$
 c0075f0:	1746 245d 92a4 22f3 8201 0020 8101 0018     F.]$...".. .....
 c007600:	8201 0030 8101 0014 1746 245d aaab 24aa     ..0.....F.]$...$
 c007610:	8201 0012 8101 0018 8201 0030 8101 0016     ..........0.....
 c007620:	3201 6177 7469 6920 6c64 2065 6974 656d     .2wait idle time
 c007630:	756f 0a74 0000 0000 0101 0101 0101 0101     out.............
 c007640:	3201 6665 7375 2065 6f70 6577 2072 6e6f     .2efuse power on
 c007650:	6620 6961 0a6c 0000 3201 6665 7375 2065      fail....2efuse 
 c007660:	6572 7266 7365 2068 6873 6461 776f 6620     refresh shadow f
 c007670:	6961 0a6c 0000 0000 3201 6f6c 6b63 6520     ail......2lock e
 c007680:	7566 6573 6320 6968 7370 206e 6166 6c69     fuse chipsn fail
 c007690:	000a 0000 0000 0000 3201 6665 7375 2065     .........2efuse 
 c0076a0:	6f70 6577 2072 666f 2066 6166 6c69 000a     power off fail..
 c0076b0:	3201 3250 2f53 7830 6c25 2f78 7025 0a2e     .2P2S/0x%lx/%p..
	...
 c0076c8:	3101 5720 4c3a 3250 4e5f 4d4f 4741 4349     .1 W:LP2_NOMAGIC
 c0076d8:	000a 0000 0000 0000 3001 4520 703a 7261     .........0 E:par
 c0076e8:	6d61 5f32 6b63 7573 206d 3028 2578 2f78     am2_cksum (0x%x/
 c0076f8:	7830 7825 0a29 0000 3201 3250 2e45 000a     0x%x)....2P2E...
 c007708:	3201 5044 2f53 7830 7825 302f 2578 2e78     .2DPS/0x%x/0x%x.
 c007718:	000a 0000 0000 0000 3001 4520 643a 7264     .........0 E:ddr
 c007728:	705f 7261 6d61 635f 736b 6d75 2820 7830     _param_cksum (0x
 c007738:	7825 302f 2578 2978 000a 0000 0000 0000     %x/0x%x)........
 c007748:	3201 5044 2e45 000a 3101 5720 443a 204c     .2DPE....1 W:DL 
 c007758:	6163 636e 6c65 656c 2e64 4c20 616f 2064     cancelled. Load 
 c007768:	6c66 7361 2e68 2820 6425 2e29 000a 0000     flash. (%d).....
 c007778:	3001 4520 463a 6961 656c 2064 6f74 6c20     .0 E:Failed to l
 c007788:	616f 2064 4444 2052 6170 6172 206d 2528     oad DDR param (%
 c007798:	2964 0a2e 0000 0000 3201 3243 2f53 7830     d).......2C2S/0x
 c0077a8:	7825 302f 2578 2f78 7830 7825 0a2e 0000     %x/0x%x/0x%x....
 c0077b8:	3201 6f4e 4320 3039 4c36 6920 616d 6567     .2No C906L image
 c0077c8:	0a2e 0000 0000 0000 3001 4520 623a 636c     .........0 E:blc
 c0077d8:	5f70 6e32 5f64 7572 616e 6464 2072 3028     p_2nd_runaddr (0
 c0077e8:	2578 2978 6920 2073 6f6e 2074 6e69 4420     x%x) is not in D
 c0077f8:	4152 2e4d 000a 0000 3001 4520 623a 636c     RAM......0 E:blc
 c007808:	5f70 6e32 5f64 6973 657a 2820 7830 7825     p_2nd_size (0x%x
 c007818:	2029 7369 6e20 746f 6920 206e 5244 4d41     ) is not in DRAM
 c007828:	0a2e 0000 0000 0000 3001 4520 623a 636c     .........0 E:blc
 c007838:	5f70 6e32 5f64 6b63 7573 206d 3028 2578     p_2nd_cksum (0x%
 c007848:	2f78 7830 7825 0a29 0000 0000 0000 0000     x/0x%x).........
 c007858:	3001 4520 763a 7265 6669 2079 6c62 7063     .0 E:verify blcp
 c007868:	3220 646e 2820 6425 0a29 0000 0000 0000      2nd (%d).......
 c007878:	3201 3243 2e45 000a 3201 534d 302f 2578     .2C2E....2MS/0x%
 c007888:	2f78 7830 7825 302f 2578 2e78 000a 0000     x/0x%x/0x%x.....
 c007898:	3201 6f4e 6d20 6e6f 7469 726f 0a2e 0000     .2No monitor....
 c0078a8:	3001 4520 6d3a 6e6f 7469 726f 725f 6e75     .0 E:monitor_run
 c0078b8:	6461 7264 2820 7830 7825 2029 7369 6e20     addr (0x%x) is n
 c0078c8:	746f 6920 206e 5244 4d41 0a2e 0000 0000     ot in DRAM......
 c0078d8:	3001 4520 6d3a 6e6f 7469 726f 735f 7a69     .0 E:monitor_siz
 c0078e8:	2065 3028 2578 2978 6920 2073 6f6e 2074     e (0x%x) is not 
 c0078f8:	6e69 4420 4152 2e4d 000a 0000 0000 0000     in DRAM.........
 c007908:	3001 4520 6d3a 6e6f 7469 726f 635f 736b     .0 E:monitor_cks
 c007918:	6d75 2820 7830 7825 302f 2578 2978 000a     um (0x%x/0x%x)..
 c007928:	3001 4520 763a 7265 6669 2079 6f6d 696e     .0 E:verify moni
 c007938:	6f74 2072 2528 2964 000a 0000 0000 0000     tor (%d)........
 c007948:	3201 454d 0a2e 0000 3201 324c 302f 2578     .2ME.....2L2/0x%
 c007958:	2e78 000a 0000 0000 3201 324c 302f 2578     x........2L2/0x%
 c007968:	2f78 7830 7825 302f 2578 786c 302f 2578     x/0x%x/0x%lx/0x%
 c007978:	2f78 7830 7825 000a 3201 4f43 504d 252f     x/0x%x...2COMP/%
 c007988:	2e64 000a 0000 0000 3001 4520 6c3a 616f     d........0 E:loa
 c007998:	6564 5f72 6e32 5f64 6b63 7573 206d 3028     der_2nd_cksum (0
 c0079a8:	2578 2f78 7830 7825 0a29 0000 0000 0000     x%x/0x%x).......
 c0079b8:	3001 4520 763a 7265 6669 2079 6f6c 6461     .0 E:verify load
 c0079c8:	7265 3220 646e 2820 6425 0a29 0000 0000     er 2nd (%d).....
 c0079d8:	3001 4520 463a 6961 656c 2064 6f74 6420     .0 E:Failed to d
 c0079e8:	6365 6d6f 7270 7365 2073 6f6c 6461 7265     ecompress loader
 c0079f8:	325f 646e 2820 6425 252f 756c 0a29 0000     _2nd (%d/%lu)...
 c007a08:	3201 6f4c 6461 7265 325f 646e 6c20 616f     .2Loader_2nd loa
 c007a18:	6564 2e64 000a 0000 3001 4520 463a 6961     ded......0 E:Fai
 c007a28:	656c 2064 6f74 6c20 616f 2064 6572 7473     led to load rest
 c007a38:	2820 6425 2e29 000a 3201 754a 706d 7420      (%d)....2Jump t
 c007a48:	206f 6f6d 696e 6f74 2072 7461 3020 2578     o monitor at 0x%
 c007a58:	786c 0a2e 0000 0000 3201 754a 706d 7420     lx.......2Jump t
 c007a68:	206f 6f6c 6461 7265 325f 646e 6120 2074     o loader_2nd at 
 c007a78:	7830 6c25 2e78 000a 5643 444c 3230 000a     0x%lx...CVLD02..
 c007a88:	3001 4520 253a 2073 6163 276e 2074 6c61     .0 E:%s can't al
 c007a98:	6f6c 2063 6c25 2075 7962 6574 0a73 0000     loc %lu bytes...
 c007aa8:	3001 4520 253a 3a73 6420 7473 735f 7a69     .0 E:%s: dst_siz
 c007ab8:	2065 7369 4e20 4c55 2e4c 000a 0000 0000     e is NULL.......
 c007ac8:	3301 4920 4c3a 4d5a 3141 252f 2f70 7025     .3 I:LZMA1/%p/%p
 c007ad8:	0a2e 0000 0000 0000 3301 4920 4c3a 4d5a     .........3 I:LZM
 c007ae8:	3241 752f 636e 6d6f 5f70 6973 657a 303d     A2/uncomp_size=0
 c007af8:	2578 786c 000a 0000 3001 4520 4c3a 6d7a     x%lx.....0 E:Lzm
 c007b08:	4461 6365 646f 2065 5245 4f52 3a52 2520     aDecode ERROR: %
 c007b18:	2064 7328 6174 7574 3d73 6425 0a29 0000     d (status=%d)...
 c007b28:	3301 4920 4c3a 4d5a 3941 302f 2578 786c     .3 I:LZMA9/0x%lx
 c007b38:	000a 0000 0000 0000 3301 4920 4c3a 345a     .........3 I:LZ4
 c007b48:	252f 2f70 7025 0a2e 0000 0000 0000 0000     /%p/%p..........
 c007b58:	3001 4520 643a 7463 5378 6174 7574 3d73     .0 E:dctxStatus=
 c007b68:	6c25 0a75 0000 0000 3301 4920 643a 7473     %lu......3 I:dst
 c007b78:	735f 7a69 3d65 6c25 2075 7273 5f63 6973     _size=%lu src_si
 c007b88:	657a 253d 756c 7220 7465 253d 647a 000a     ze=%lu ret=%zd..
 c007b98:	3001 4520 4c3a 345a 5f46 6564 6f63 706d     .0 E:LZ4F_decomp
 c007ba8:	6572 7373 253d 756c 000a 0000 0000 0000     ress=%lu........
 c007bb8:	3201 4344 2f50 7025 302f 2578 786c 252f     .2DCP/%p/0x%lx/%
 c007bc8:	2f70 7830 6c25 2f78 6425 0a2e 0000 0000     p/0x%lx/%d......
 c007bd8:	3201 4344 2f50 7830 6c25 2f78 6425 0a2e     .2DCP/0x%lx/%d..
	...

000000000c007bf0 <__func__.0>:
 c007bf0:	7a53 6c41 6f6c 0063                         SzAlloc.

000000000c007bf8 <__func__.1>:
 c007bf8:	6564 6f63 706d 6572 7373 6c5f 6d7a 0061     decompress_lzma.
 c007c08:	c7ea ffff c81e ffff c888 ffff c904 ffff     ................
 c007c18:	c92a ffff c9c4 ffff ca6c ffff caca ffff     *.......l.......
 c007c28:	cbfa ffff ccea ffff ccee ffff cd20 ffff     ............ ...
 c007c38:	cd8c ffff cdac ffff ce02 ffff 0000 0000     ................

000000000c007c48 <blockSizes.0>:
 c007c48:	0000 0001 0000 0000 0000 0004 0000 0000     ................
 c007c58:	0000 0010 0000 0000 0000 0040 0000 0000     ..........@.....

000000000c007c68 <dec64table>:
	...
 c007c74:	ffff ffff fffc ffff 0001 0000 0002 0000     ................
 c007c84:	0003 0000                                   ....

000000000c007c88 <inc32table>:
 c007c88:	0000 0000 0001 0000 0002 0000 0001 0000     ................
 c007c98:	0000 0000 0004 0000 0004 0000 0004 0000     ................
 c007ca8:	d11c ffff d0fc ffff d0dc ffff ce9a ffff     ................
 c007cb8:	cf3a ffff cfec ffff d0ae ffff ce6c ffff     :...........l...
 c007cc8:	cf0c ffff cfbe ffff d080 ffff ce3e ffff     ............>...
 c007cd8:	cede ffff cf90 ffff d052 ffff 0000 0000     ........R.......
 c007ce8:	3201 460a 4253 204c 7325 253a 0a73 0000     .2.FSBL %s:%s...
 c007cf8:	3301 4920 733a 5f77 6e69 6f66 303d 2578     .3 I:sw_info=0x%
 c007d08:	0a78 0000 0000 0000 3301 4920 663a 7069     x........3 I:fip
 c007d18:	705f 7261 6d61 3a31 7020 7261 6d61 635f     _param1: param_c
 c007d28:	736b 6d75 303d 2578 2078 6170 6172 326d     ksum=0x%x param2
 c007d38:	6c5f 616f 6164 6464 3d72 7830 7825 000a     _loadaddr=0x%x..
 c007d48:	3301 4920 433a 5f50 5453 5441 5f45 4552     .3 I:CP_STATE_RE
 c007d58:	3d47 7830 7825 000a 3201 4c42 2032 6e65     G=0x%x...2BL2 en
 c007d68:	2e64 000a 0000 0000 3201 7663 3831 7831     d........2cv181x
 c007d78:	4420 5244 6920 696e 2e74 000a 0000 0000      DDR init.......
 c007d88:	3201 6464 5f72 6170 6172 5b6d 5d30 303d     .2ddr_param[0]=0
 c007d98:	2578 2e78 000a 0000 3201 6b70 5f67 7974     x%x......2pkg_ty
 c007da8:	6570 253d 0a78 0000 3201 6e32 0a64 0000     pe=%x....22nd...
 c007db8:	3201 6e75 6e6b 776f 206e 6b70 5f67 7974     .2unknown pkg_ty
 c007dc8:	6570 303d 2578 0a78 0000 0000 0000 0000     pe=0x%x.........
 c007dd8:	3201 2544 5f78 7825 255f 0a78 0000 0000     .2D%x_%x_%x.....
 c007de8:	3201 4444 3252 0000 3201 4444 3352 0000     .2DDR2...2DDR3..
 c007df8:	3201 6e75 6e6b 776f 206e 6576 646e 726f     .2unknown vendor
 c007e08:	253d 0064 0000 0000 3201 352d 3231 004d     =%d......2-512M.
 c007e18:	3201 312d 0047 0000 3201 322d 0047 0000     .2-1G....2-2G...
 c007e28:	3201 342d 0047 0000 3201 752d 6b6e 6f6e     .2-4G....2-unkno
 c007e38:	6e77 6320 7061 6361 7469 3d79 6425 0000     wn capacity=%d..
 c007e48:	3201 512d 4e46 000a 3201 422d 4147 000a     .2-QFN...2-BGA..
 c007e58:	3201 752d 6b6e 6f6e 6e77 7020 676b 253d     .2-unknown pkg=%
 c007e68:	0064 0000 d53a ffff d594 ffff d5a4 ffff     d...:...........
 c007e78:	d5fc ffff d5b2 ffff d5d8 ffff d5e8 ffff     ................
 c007e88:	d5f2 ffff d630 ffff d630 ffff d630 ffff     ....0...0...0...
 c007e98:	d5ec ffff d630 ffff d630 ffff d630 ffff     ....0...0...0...
 c007ea8:	d630 ffff d5ec ffff d630 ffff 0000 0000     0.......0.......
 c007eb8:	3001 4520 453a 5252 524f 6220 7369 5f74     .0 E:ERROR bist_
 c007ec8:	6166 6c69 000a 0000 3001 4520 623a 7369     fail.....0 E:bis
 c007ed8:	5f74 6572 7573 746c 3d20 2520 2c78 6520     t_result = %x, e
 c007ee8:	7272 645f 7461 5f61 646f 2064 203d 6c25     rr_data_odd = %l
 c007ef8:	2c78 6520 7272 645f 7461 5f61 7665 6e65     x, err_data_even
 c007f08:	3d20 2520 786c 000a 3201 4444 2052 4942      = %lx...2DDR BI
 c007f18:	5453 4620 4941 0a4c 0000 0000 0000 0000     ST FAIL.........
 c007f28:	3201 4444 2052 4942 5453 5020 5341 0a53     .2DDR BIST PASS.
	...
 c007f40:	fa02 401f fa02 801f 2c02 4010 2c02 8010     ...@.....,.@.,..
 c007f50:	7a00 4000 7a00 8000 3a00 4000 3a00 8000     .z.@.z...:.@.:..
 c007f60:	3201 6144 6174 7220 7461 3d65 6425 0a2e     .2Data rate=%d..
 c007f70:	0000 0000 eaf2 ffff eb56 ffff ebb6 ffff     ........V.......
 c007f80:	ec22 ffff ece6 ffff ec86 ffff ec1c ffff     "...............
 c007f90:	ec1c ffff eda8 ffff ed46 ffff f088 ffff     ........F.......
 c007fa0:	f0aa ffff f0b4 ffff f0c6 ffff f0d8 ffff     ................
